---
triple:          'arm64-apple-darwin'
binary-path:     '/Users/endogen/Projekte/xian/xian-contracting/packages/xian-fastpath-core/target/debug/deps/lib_native.dylib'
relocations:
  - { offset: 0x1E, size: 0x8, addend: 0x0, symName: __ZN8pyo3_ffi10boolobject7Py_True17h85364a5f4c872524E, symObjAddr: 0x0, symBinAddr: 0x888, symSize: 0xC }
  - { offset: 0x35, size: 0x8, addend: 0x0, symName: __ZN8pyo3_ffi10boolobject7Py_True17h85364a5f4c872524E, symObjAddr: 0x0, symBinAddr: 0x888, symSize: 0xC }
  - { offset: 0x52, size: 0x8, addend: 0x0, symName: __ZN8pyo3_ffi10boolobject8Py_False17h3aed38dff85da6b5E, symObjAddr: 0xC, symBinAddr: 0x894, symSize: 0xC }
  - { offset: 0x139, size: 0x8, addend: 0x0, symName: '__ZN160_$LT$$LT$T$u20$as$u20$alloc..slice..$LT$impl$u20$$u5b$T$u5d$$GT$..to_vec_in..ConvertVec$GT$..to_vec..DropGuard$LT$T$C$A$GT$$u20$as$u20$core..ops..drop..Drop$GT$4drop17hf252f27d781b64faE', symObjAddr: 0x0, symBinAddr: 0x8A0, symSize: 0x80 }
  - { offset: 0x2C0, size: 0x8, addend: 0x0, symName: '__ZN4core3ptr101drop_in_place$LT$core..result..Result$LT$$u5b$u8$u3b$$u20$32$u5d$$C$alloc..vec..Vec$LT$u8$GT$$GT$$GT$17hfdb7175159670c18E', symObjAddr: 0x3F8, symBinAddr: 0xC98, symSize: 0x40 }
  - { offset: 0x2EF, size: 0x8, addend: 0x0, symName: '__ZN4core3ptr101drop_in_place$LT$core..result..Result$LT$$u5b$u8$u3b$$u20$64$u5d$$C$alloc..vec..Vec$LT$u8$GT$$GT$$GT$17hb426a6bc91bb4230E', symObjAddr: 0x438, symBinAddr: 0xCD8, symSize: 0x40 }
  - { offset: 0x31E, size: 0x8, addend: 0x0, symName: '__ZN4core3ptr102drop_in_place$LT$core..slice..sort..shared..smallsort..CopyOnDrop$LT$$RF$alloc..string..String$GT$$GT$17h311e20e267b71510E', symObjAddr: 0x478, symBinAddr: 0xD18, symSize: 0x24 }
  - { offset: 0x34D, size: 0x8, addend: 0x0, symName: '__ZN4core3ptr103drop_in_place$LT$hashbrown..map..HashMap$LT$$RF$str$C$$LP$$RP$$C$std..hash..random..RandomState$GT$$GT$17h3c134076b0d10e91E', symObjAddr: 0x49C, symBinAddr: 0xD3C, symSize: 0x24 }
  - { offset: 0x37C, size: 0x8, addend: 0x0, symName: '__ZN4core3ptr113drop_in_place$LT$core..result..Result$LT$ed25519_dalek..verifying..VerifyingKey$C$signature..error..Error$GT$$GT$17hd6e6de5ff6f6988dE', symObjAddr: 0x4E4, symBinAddr: 0xD60, symSize: 0x40 }
  - { offset: 0x3AB, size: 0x8, addend: 0x0, symName: '__ZN4core3ptr117drop_in_place$LT$core..result..Result$LT$pyo3..instance..Py$LT$pyo3..types..any..PyAny$GT$$C$pyo3..err..PyErr$GT$$GT$17hcea26d6a9bca89afE', symObjAddr: 0x524, symBinAddr: 0xDA0, symSize: 0x50 }
  - { offset: 0x3DA, size: 0x8, addend: 0x0, symName: '__ZN4core3ptr141drop_in_place$LT$pyo3..err..PyErr..new$LT$_native..NativeFastpathValidationError$C$alloc..string..String$GT$..$u7b$$u7b$closure$u7d$$u7d$$GT$17h69988977a2b44383E', symObjAddr: 0x574, symBinAddr: 0xDF0, symSize: 0x24 }
  - { offset: 0x409, size: 0x8, addend: 0x0, symName: '__ZN4core3ptr181drop_in_place$LT$$LT$T$u20$as$u20$alloc..slice..$LT$impl$u20$$u5b$T$u5d$$GT$..to_vec_in..ConvertVec$GT$..to_vec..DropGuard$LT$serde_json..value..Value$C$alloc..alloc..Global$GT$$GT$17h29f388c1963f3a18E', symObjAddr: 0x598, symBinAddr: 0xE14, symSize: 0x24 }
  - { offset: 0x438, size: 0x8, addend: 0x0, symName: '__ZN4core3ptr69drop_in_place$LT$alloc..vec..Vec$LT$$RF$alloc..string..String$GT$$GT$17ha7852a5f636a07faE', symObjAddr: 0x5E0, symBinAddr: 0xE38, symSize: 0x5C }
  - { offset: 0x467, size: 0x8, addend: 0x0, symName: '__ZN4core3ptr71drop_in_place$LT$core..array..iter..IntoIter$LT$usize$C$2_usize$GT$$GT$17hc7be79ce4128577dE', symObjAddr: 0x63C, symBinAddr: 0xE94, symSize: 0x24 }
  - { offset: 0x496, size: 0x8, addend: 0x0, symName: '__ZN4core3ptr72drop_in_place$LT$std..collections..hash..set..HashSet$LT$$RF$str$GT$$GT$17h2b667d2f7b298d6fE', symObjAddr: 0x660, symBinAddr: 0xEB8, symSize: 0x24 }
  - { offset: 0x4C5, size: 0x8, addend: 0x0, symName: '__ZN4core3ptr73drop_in_place$LT$core..array..iter..IntoIter$LT$$RF$str$C$7_usize$GT$$GT$17hd24c5acac7d6abf0E', symObjAddr: 0x684, symBinAddr: 0xEDC, symSize: 0x24 }
  - { offset: 0x4F4, size: 0x8, addend: 0x0, symName: '__ZN4core3ptr76drop_in_place$LT$alloc..raw_vec..RawVec$LT$$RF$alloc..string..String$GT$$GT$17heea5b7ae1508b774E', symObjAddr: 0x6A8, symBinAddr: 0xF00, symSize: 0x24 }
  - { offset: 0x523, size: 0x8, addend: 0x0, symName: '__ZN4core3ptr79drop_in_place$LT$hashbrown..raw..RawTable$LT$$LP$$RF$str$C$$LP$$RP$$RP$$GT$$GT$17h6e75c6f5ad92e9faE', symObjAddr: 0x6CC, symBinAddr: 0xF24, symSize: 0x24 }
  - { offset: 0x552, size: 0x8, addend: 0x0, symName: '__ZN4core3ptr83drop_in_place$LT$core..result..Result$LT$$LP$$RP$$C$signature..error..Error$GT$$GT$17h221ca4a4f5fc4fd9E', symObjAddr: 0x6F0, symBinAddr: 0xF48, symSize: 0x40 }
  - { offset: 0x581, size: 0x8, addend: 0x0, symName: '__ZN4core3ptr89drop_in_place$LT$core..result..Result$LT$alloc..string..String$C$pyo3..err..PyErr$GT$$GT$17hf03b1eafa62befd5E', symObjAddr: 0x730, symBinAddr: 0xF88, symSize: 0x50 }
  - { offset: 0x5B0, size: 0x8, addend: 0x0, symName: '__ZN4core3ptr92drop_in_place$LT$hashbrown..set..HashSet$LT$$RF$str$C$std..hash..random..RandomState$GT$$GT$17ha5bb8b0c2d643b39E', symObjAddr: 0x780, symBinAddr: 0xFD8, symSize: 0x24 }
  - { offset: 0x5DF, size: 0x8, addend: 0x0, symName: '__ZN4core3ptr98drop_in_place$LT$core..slice..sort..stable..merge..MergeState$LT$$RF$alloc..string..String$GT$$GT$17he189db87e5860619E', symObjAddr: 0x7A4, symBinAddr: 0xFFC, symSize: 0x24 }
  - { offset: 0xEE1, size: 0x8, addend: 0x0, symName: __ZN4core3ops8function5FnMut8call_mut17h4169d25ec23d7415E, symObjAddr: 0x80, symBinAddr: 0x920, symSize: 0x2C }
  - { offset: 0xF25, size: 0x8, addend: 0x0, symName: __ZN4core3ops8function5FnMut8call_mut17hbd2097319f54b47fE, symObjAddr: 0xAC, symBinAddr: 0x94C, symSize: 0x30 }
  - { offset: 0xF6F, size: 0x8, addend: 0x0, symName: '__ZN4core3ops8function6FnOnce40call_once$u7b$$u7b$vtable.shim$u7d$$u7d$17h08abf3555149d05dE', symObjAddr: 0xDC, symBinAddr: 0x97C, symSize: 0x38 }
  - { offset: 0xFB3, size: 0x8, addend: 0x0, symName: '__ZN4core3ops8function6FnOnce40call_once$u7b$$u7b$vtable.shim$u7d$$u7d$17h6d8eef41fb8eed58E', symObjAddr: 0x114, symBinAddr: 0x9B4, symSize: 0x38 }
  - { offset: 0xFF7, size: 0x8, addend: 0x0, symName: '__ZN4core3ops8function6FnOnce40call_once$u7b$$u7b$vtable.shim$u7d$$u7d$17hc914c6e8d21becb4E', symObjAddr: 0x14C, symBinAddr: 0x9EC, symSize: 0x24 }
  - { offset: 0x103B, size: 0x8, addend: 0x0, symName: '__ZN4core3ops8function6FnOnce40call_once$u7b$$u7b$vtable.shim$u7d$$u7d$17hfe770d6b601ee003E', symObjAddr: 0x170, symBinAddr: 0xA10, symSize: 0x38 }
  - { offset: 0x107F, size: 0x8, addend: 0x0, symName: __ZN4core3ops8function6FnOnce9call_once17h0b6fff3d82faf8d7E, symObjAddr: 0x1A8, symBinAddr: 0xA48, symSize: 0x2C }
  - { offset: 0x10C3, size: 0x8, addend: 0x0, symName: __ZN4core3ops8function6FnOnce9call_once17h2fe497721795342fE, symObjAddr: 0x1D4, symBinAddr: 0xA74, symSize: 0x5C }
  - { offset: 0x1107, size: 0x8, addend: 0x0, symName: __ZN4core3ops8function6FnOnce9call_once17h34163d8db993e1afE, symObjAddr: 0x230, symBinAddr: 0xAD0, symSize: 0x58 }
  - { offset: 0x114B, size: 0x8, addend: 0x0, symName: __ZN4core3ops8function6FnOnce9call_once17h5b34515f99cac814E, symObjAddr: 0x288, symBinAddr: 0xB28, symSize: 0x24 }
  - { offset: 0x118F, size: 0x8, addend: 0x0, symName: __ZN4core3ops8function6FnOnce9call_once17h719b06814779d78bE, symObjAddr: 0x2AC, symBinAddr: 0xB4C, symSize: 0x4C }
  - { offset: 0x11D3, size: 0x8, addend: 0x0, symName: __ZN4core3ops8function6FnOnce9call_once17h9daa7828cad30cf1E, symObjAddr: 0x2F8, symBinAddr: 0xB98, symSize: 0x48 }
  - { offset: 0x1217, size: 0x8, addend: 0x0, symName: __ZN4core3ops8function6FnOnce9call_once17hc7635d7f31e9138fE, symObjAddr: 0x340, symBinAddr: 0xBE0, symSize: 0x24 }
  - { offset: 0x125B, size: 0x8, addend: 0x0, symName: __ZN4core3ops8function6FnOnce9call_once17hfbe39868d8c07091E, symObjAddr: 0x364, symBinAddr: 0xC04, symSize: 0x58 }
  - { offset: 0x129F, size: 0x8, addend: 0x0, symName: __ZN4core3ops8function6FnOnce9call_once17hfd83d63a9c611b7cE, symObjAddr: 0x3BC, symBinAddr: 0xC5C, symSize: 0x3C }
  - { offset: 0x13A2, size: 0x8, addend: 0x0, symName: '__ZN82_$LT$core..array..iter..IntoIter$LT$T$C$_$GT$$u20$as$u20$core..ops..drop..Drop$GT$4drop17h5d7354ffe5da354bE', symObjAddr: 0x858, symBinAddr: 0x10B0, symSize: 0x14 }
  - { offset: 0x13D5, size: 0x8, addend: 0x0, symName: '__ZN82_$LT$core..array..iter..IntoIter$LT$T$C$_$GT$$u20$as$u20$core..ops..drop..Drop$GT$4drop17h85ac60c853035cf1E', symObjAddr: 0x86C, symBinAddr: 0x10C4, symSize: 0x14 }
  - { offset: 0x14BA, size: 0x8, addend: 0x0, symName: '__ZN95_$LT$core..slice..sort..stable..merge..MergeState$LT$T$GT$$u20$as$u20$core..ops..drop..Drop$GT$4drop17hdf7cc268bbf547b1E', symObjAddr: 0x880, symBinAddr: 0x10D8, symSize: 0xEC }
  - { offset: 0x15F8, size: 0x8, addend: 0x0, symName: '__ZN99_$LT$core..slice..sort..shared..smallsort..CopyOnDrop$LT$T$GT$$u20$as$u20$core..ops..drop..Drop$GT$4drop17h2d9d7c02822ca115E', symObjAddr: 0x988, symBinAddr: 0x11C4, symSize: 0x84 }
  - { offset: 0x1D35, size: 0x8, addend: 0x0, symName: '__ZN77_$LT$alloc..raw_vec..RawVec$LT$T$C$A$GT$$u20$as$u20$core..ops..drop..Drop$GT$4drop17hd3850f02e1632e34E', symObjAddr: 0x7EC, symBinAddr: 0x1044, symSize: 0x30 }
  - { offset: 0x1EB8, size: 0x8, addend: 0x0, symName: '__ZN70_$LT$alloc..vec..Vec$LT$T$C$A$GT$$u20$as$u20$core..ops..drop..Drop$GT$4drop17hd3df9265f44e0ebfE', symObjAddr: 0x7C8, symBinAddr: 0x1020, symSize: 0x24 }
  - { offset: 0x20F0, size: 0x8, addend: 0x0, symName: '__ZN160_$LT$$LT$T$u20$as$u20$alloc..slice..$LT$impl$u20$$u5b$T$u5d$$GT$..to_vec_in..ConvertVec$GT$..to_vec..DropGuard$LT$T$C$A$GT$$u20$as$u20$core..ops..drop..Drop$GT$4drop17hf252f27d781b64faE', symObjAddr: 0x0, symBinAddr: 0x8A0, symSize: 0x80 }
  - { offset: 0x2613, size: 0x8, addend: 0x0, symName: '__ZN79_$LT$hashbrown..raw..RawTable$LT$T$C$A$GT$$u20$as$u20$core..ops..drop..Drop$GT$4drop17h47726342173d6f9cE', symObjAddr: 0x81C, symBinAddr: 0x1074, symSize: 0x3C }
  - { offset: 0x32FA, size: 0x8, addend: 0x0, symName: '__ZN4core4iter6traits8iterator8Iterator12try_for_each4call28_$u7b$$u7b$closure$u7d$$u7d$17h167e27546740fb11E', symObjAddr: 0x0, symBinAddr: 0x1248, symSize: 0x2C }
  - { offset: 0x332A, size: 0x8, addend: 0x0, symName: '__ZN4core4iter6traits8iterator8Iterator12try_for_each4call28_$u7b$$u7b$closure$u7d$$u7d$17h167e27546740fb11E', symObjAddr: 0x0, symBinAddr: 0x1248, symSize: 0x2C }
  - { offset: 0x339B, size: 0x8, addend: 0x0, symName: '__ZN4core4iter6traits8iterator8Iterator3all5check28_$u7b$$u7b$closure$u7d$$u7d$17h6e16347de6db0f1dE', symObjAddr: 0x2C, symBinAddr: 0x1274, symSize: 0x4C }
  - { offset: 0x33F7, size: 0x8, addend: 0x0, symName: '__ZN4core4iter6traits8iterator8Iterator3all5check28_$u7b$$u7b$closure$u7d$$u7d$17h8a21f540381fa974E', symObjAddr: 0x78, symBinAddr: 0x12C0, symSize: 0x50 }
  - { offset: 0x3453, size: 0x8, addend: 0x0, symName: '__ZN4core4iter6traits8iterator8Iterator3all5check28_$u7b$$u7b$closure$u7d$$u7d$17hb8a0560cf03d266eE', symObjAddr: 0xC8, symBinAddr: 0x1310, symSize: 0x50 }
  - { offset: 0x34AF, size: 0x8, addend: 0x0, symName: '__ZN4core4iter6traits8iterator8Iterator3all5check28_$u7b$$u7b$closure$u7d$$u7d$17hcdf9a631a886b3e0E', symObjAddr: 0x118, symBinAddr: 0x1360, symSize: 0x60 }
  - { offset: 0x350C, size: 0x8, addend: 0x0, symName: '__ZN4core4iter6traits8iterator8Iterator3all5check28_$u7b$$u7b$closure$u7d$$u7d$17hfa5a010b86e2f47fE', symObjAddr: 0x178, symBinAddr: 0x13C0, symSize: 0x4C }
  - { offset: 0x3574, size: 0x8, addend: 0x0, symName: '__ZN4core4iter6traits8iterator8Iterator8for_each4call28_$u7b$$u7b$closure$u7d$$u7d$17h1ffd01f64b4beadeE', symObjAddr: 0x1C4, symBinAddr: 0x140C, symSize: 0x30 }
  - { offset: 0x35CC, size: 0x8, addend: 0x0, symName: '__ZN4core4iter6traits8iterator8Iterator8for_each4call28_$u7b$$u7b$closure$u7d$$u7d$17h2c5a65df8601143bE', symObjAddr: 0x1F4, symBinAddr: 0x143C, symSize: 0x30 }
  - { offset: 0x4329, size: 0x8, addend: 0x0, symName: __ZN4core5slice3raw14from_raw_parts17h0ab61335fa48adc0E, symObjAddr: 0x0, symBinAddr: 0x146C, symSize: 0x58 }
  - { offset: 0x43CA, size: 0x8, addend: 0x0, symName: __ZN4core5slice3raw14from_raw_parts17h0ab61335fa48adc0E, symObjAddr: 0x0, symBinAddr: 0x146C, symSize: 0x58 }
  - { offset: 0x440D, size: 0x8, addend: 0x0, symName: __ZN4core5slice3raw14from_raw_parts17h52ce35c190479ab7E, symObjAddr: 0x58, symBinAddr: 0x14C4, symSize: 0x58 }
  - { offset: 0x4795, size: 0x8, addend: 0x0, symName: __ZN4core5slice4sort6stable9quicksort16stable_partition17h27e2f0894df1cb6dE, symObjAddr: 0x0, symBinAddr: 0x151C, symSize: 0x420 }
  - { offset: 0x5066, size: 0x8, addend: 0x0, symName: __ZN4core5slice4sort6stable9quicksort16stable_partition17h27e2f0894df1cb6dE, symObjAddr: 0x0, symBinAddr: 0x151C, symSize: 0x420 }
  - { offset: 0x54F0, size: 0x8, addend: 0x0, symName: __ZN4core5slice4sort6stable9quicksort16stable_partition17hc08dd189006fe930E, symObjAddr: 0x420, symBinAddr: 0x193C, symSize: 0x420 }
  - { offset: 0x597A, size: 0x8, addend: 0x0, symName: __ZN4core5slice4sort6stable9quicksort9quicksort17hb4a7dd1442c9c3b3E, symObjAddr: 0x978, symBinAddr: 0x1E94, symSize: 0x340 }
  - { offset: 0x5C2B, size: 0x8, addend: 0x0, symName: '__ZN4core5slice4sort6stable9quicksort9quicksort28_$u7b$$u7b$closure$u7d$$u7d$17h798d10c0db43b1a6E', symObjAddr: 0xCB8, symBinAddr: 0x21D4, symSize: 0x48 }
  - { offset: 0x6155, size: 0x8, addend: 0x0, symName: '__ZN4core5slice4sort6stable9quicksort23PartitionState$LT$T$GT$13partition_one17h0abd0e5047cb3c7cE', symObjAddr: 0x840, symBinAddr: 0x1D5C, symSize: 0x138 }
  - { offset: 0x630C, size: 0x8, addend: 0x0, symName: '__ZN4core5slice29_$LT$impl$u20$$u5b$T$u5d$$GT$18split_at_unchecked18precondition_check17h6ed8348cd077eec7E', symObjAddr: 0x0, symBinAddr: 0x221C, symSize: 0x60 }
  - { offset: 0x632D, size: 0x8, addend: 0x0, symName: '__ZN4core5slice29_$LT$impl$u20$$u5b$T$u5d$$GT$18split_at_unchecked18precondition_check17h6ed8348cd077eec7E', symObjAddr: 0x0, symBinAddr: 0x221C, symSize: 0x60 }
  - { offset: 0x6386, size: 0x8, addend: 0x0, symName: '__ZN4core5slice29_$LT$impl$u20$$u5b$T$u5d$$GT$22split_at_mut_unchecked18precondition_check17hd48b2bba901bfb2aE', symObjAddr: 0x60, symBinAddr: 0x227C, symSize: 0x60 }
  - { offset: 0x6430, size: 0x8, addend: 0x0, symName: __ZN4core3cmp9PartialEq2ne17h1d3b4f2a17dc62f6E, symObjAddr: 0x0, symBinAddr: 0x22DC, symSize: 0x38 }
  - { offset: 0x644C, size: 0x8, addend: 0x0, symName: __ZN4core3cmp9PartialEq2ne17h1d3b4f2a17dc62f6E, symObjAddr: 0x0, symBinAddr: 0x22DC, symSize: 0x38 }
  - { offset: 0x64F8, size: 0x8, addend: 0x0, symName: '__ZN7_native7_native11__pyo3_init28_$u7b$$u7b$closure$u7d$$u7d$17h3f3c8e82c80e5e6bE', symObjAddr: 0x0, symBinAddr: 0x2314, symSize: 0x30 }
  - { offset: 0x6599, size: 0x8, addend: 0x0, symName: '__ZN7_native7_native11__pyo3_init28_$u7b$$u7b$closure$u7d$$u7d$17h3f3c8e82c80e5e6bE', symObjAddr: 0x0, symBinAddr: 0x2314, symSize: 0x30 }
  - { offset: 0x6DF0, size: 0x8, addend: 0x0, symName: '__ZN5alloc3vec16Vec$LT$T$C$A$GT$7set_len18precondition_check17h8488e45690519c54E', symObjAddr: 0x0, symBinAddr: 0x2344, symSize: 0x60 }
  - { offset: 0x6E11, size: 0x8, addend: 0x0, symName: '__ZN5alloc3vec16Vec$LT$T$C$A$GT$7set_len18precondition_check17h8488e45690519c54E', symObjAddr: 0x0, symBinAddr: 0x2344, symSize: 0x60 }
  - { offset: 0x6EBB, size: 0x8, addend: 0x0, symName: '__ZN10serde_core3ser5impls62_$LT$impl$u20$serde_core..ser..Serialize$u20$for$u20$$RF$T$GT$9serialize17h2c0de9b2e8472532E', symObjAddr: 0x0, symBinAddr: 0x23A4, symSize: 0x30 }
  - { offset: 0x72A8, size: 0x8, addend: 0x0, symName: __ZN4core3cmp10PartialOrd2lt17h85e6d867df2a1b24E, symObjAddr: 0xE8, symBinAddr: 0x248C, symSize: 0x70 }
  - { offset: 0x7375, size: 0x8, addend: 0x0, symName: '__ZN4core3cmp5impls69_$LT$impl$u20$core..cmp..PartialEq$LT$$RF$B$GT$$u20$for$u20$$RF$A$GT$2eq17hf1a4f55a06bda8d3E', symObjAddr: 0x158, symBinAddr: 0x24FC, symSize: 0x34 }
  - { offset: 0x73CA, size: 0x8, addend: 0x0, symName: '__ZN4core3cmp5impls70_$LT$impl$u20$core..cmp..PartialOrd$LT$$RF$B$GT$$u20$for$u20$$RF$A$GT$2lt17h97ca7f9af3746ae3E', symObjAddr: 0x18C, symBinAddr: 0x2530, symSize: 0x34 }
  - { offset: 0x7676, size: 0x8, addend: 0x0, symName: '__ZN4core5slice29_$LT$impl$u20$$u5b$T$u5d$$GT$12split_at_mut17he763060b317fc8baE', symObjAddr: 0x1C0, symBinAddr: 0x2564, symSize: 0xAC }
  - { offset: 0x7701, size: 0x8, addend: 0x0, symName: '__ZN4core5slice29_$LT$impl$u20$$u5b$T$u5d$$GT$22split_at_mut_unchecked17h623d6be902fa1e7aE', symObjAddr: 0x26C, symBinAddr: 0x2610, symSize: 0xE8 }
  - { offset: 0x7813, size: 0x8, addend: 0x0, symName: '__ZN4core5slice29_$LT$impl$u20$$u5b$T$u5d$$GT$4iter17h18f61feca0266b1eE', symObjAddr: 0x354, symBinAddr: 0x26F8, symSize: 0x28 }
  - { offset: 0x7898, size: 0x8, addend: 0x0, symName: '__ZN4core5slice29_$LT$impl$u20$$u5b$T$u5d$$GT$7reverse17hfa009a095f483ccbE', symObjAddr: 0x37C, symBinAddr: 0x2720, symSize: 0xF0 }
  - { offset: 0x7A9F, size: 0x8, addend: 0x0, symName: '__ZN68_$LT$T$u20$as$u20$core..slice..sort..stable..quicksort..IsFreeze$GT$9is_freeze17ha7f048aa01252ee7E', symObjAddr: 0x52C, symBinAddr: 0x28D0, symSize: 0xC }
  - { offset: 0x813D, size: 0x8, addend: 0x0, symName: '__ZN10serde_core3ser5impls62_$LT$impl$u20$serde_core..ser..Serialize$u20$for$u20$$RF$T$GT$9serialize17h2c0de9b2e8472532E', symObjAddr: 0x0, symBinAddr: 0x23A4, symSize: 0x30 }
  - { offset: 0x8192, size: 0x8, addend: 0x0, symName: '__ZN10serde_core3ser5impls78_$LT$impl$u20$serde_core..ser..Serialize$u20$for$u20$alloc..string..String$GT$9serialize17h0a71abf5f429011dE', symObjAddr: 0x30, symBinAddr: 0x23D4, symSize: 0x90 }
  - { offset: 0x81E8, size: 0x8, addend: 0x0, symName: '__ZN45_$LT$T$u20$as$u20$alloc..string..ToString$GT$9to_string17hb5ab3bec057b5b82E', symObjAddr: 0xC0, symBinAddr: 0x2464, symSize: 0x28 }
  - { offset: 0x82F6, size: 0x8, addend: 0x0, symName: '__ZN5alloc5slice29_$LT$impl$u20$$u5b$T$u5d$$GT$4sort17h82c6a7b04e4f6332E', symObjAddr: 0x504, symBinAddr: 0x28A8, symSize: 0x28 }
  - { offset: 0x8457, size: 0x8, addend: 0x0, symName: __ZN4pyo310conversion15IntoPyObjectExt11into_py_any17hff3b6b74006b2020E, symObjAddr: 0x46C, symBinAddr: 0x2810, symSize: 0x50 }
  - { offset: 0x84C7, size: 0x8, addend: 0x0, symName: __ZN4pyo310conversion15IntoPyObjectExt22into_pyobject_or_pyerr17h212588b446bc0216E, symObjAddr: 0x4BC, symBinAddr: 0x2860, symSize: 0x48 }
  - { offset: 0x8CEC, size: 0x8, addend: 0x0, symName: '__ZN100_$LT$pyo3..types..tuple..BorrowedTupleIterator$u20$as$u20$core..iter..traits..iterator..Iterator$GT$4next17h6e235f1fedfcc37bE', symObjAddr: 0x0, symBinAddr: 0x28DC, symSize: 0x9C }
  - { offset: 0x8D92, size: 0x8, addend: 0x0, symName: '__ZN100_$LT$pyo3..types..tuple..BorrowedTupleIterator$u20$as$u20$core..iter..traits..iterator..Iterator$GT$4next17h6e235f1fedfcc37bE', symObjAddr: 0x0, symBinAddr: 0x28DC, symSize: 0x9C }
  - { offset: 0x918E, size: 0x8, addend: 0x0, symName: __ZN4core5slice4sort6stable5drift10create_run17haae4f32b30158ba9E, symObjAddr: 0x0, symBinAddr: 0x2978, symSize: 0x3D8 }
  - { offset: 0x96CF, size: 0x8, addend: 0x0, symName: __ZN4core5slice4sort6stable5drift10create_run17haae4f32b30158ba9E, symObjAddr: 0x0, symBinAddr: 0x2978, symSize: 0x3D8 }
  - { offset: 0x9BDE, size: 0x8, addend: 0x0, symName: __ZN4core5slice4sort6stable5drift16stable_quicksort17ha1be1072ee7e9e73E, symObjAddr: 0x3D8, symBinAddr: 0x2D50, symSize: 0xB4 }
  - { offset: 0x9E03, size: 0x8, addend: 0x0, symName: __ZN4core5slice4sort6stable5drift4sort17h33ebc8f737e4a27cE, symObjAddr: 0x48C, symBinAddr: 0x2E04, symSize: 0x61C }
  - { offset: 0xB07D, size: 0x8, addend: 0x0, symName: '__ZN106_$LT$core..iter..adapters..GenericShunt$LT$I$C$R$GT$$u20$as$u20$core..iter..traits..iterator..Iterator$GT$4next17hf7c9847adb45782cE', symObjAddr: 0x0, symBinAddr: 0x3420, symSize: 0x7C }
  - { offset: 0xB114, size: 0x8, addend: 0x0, symName: '__ZN63_$LT$I$u20$as$u20$core..iter..traits..collect..IntoIterator$GT$9into_iter17h9feb0330f8f25b6dE', symObjAddr: 0x4D0, symBinAddr: 0x38F0, symSize: 0x30 }
  - { offset: 0xB1F5, size: 0x8, addend: 0x0, symName: '__ZN106_$LT$core..iter..adapters..GenericShunt$LT$I$C$R$GT$$u20$as$u20$core..iter..traits..iterator..Iterator$GT$4next17hf7c9847adb45782cE', symObjAddr: 0x0, symBinAddr: 0x3420, symSize: 0x7C }
  - { offset: 0xB287, size: 0x8, addend: 0x0, symName: '__ZN106_$LT$core..iter..adapters..GenericShunt$LT$I$C$R$GT$$u20$as$u20$core..iter..traits..iterator..Iterator$GT$8try_fold17hda02f4ce82fc0909E', symObjAddr: 0x7C, symBinAddr: 0x349C, symSize: 0xC0 }
  - { offset: 0xB338, size: 0x8, addend: 0x0, symName: '__ZN106_$LT$core..iter..adapters..GenericShunt$LT$I$C$R$GT$$u20$as$u20$core..iter..traits..iterator..Iterator$GT$8try_fold28_$u7b$$u7b$closure$u7d$$u7d$17hecca9b0309707461E', symObjAddr: 0x13C, symBinAddr: 0x355C, symSize: 0x184 }
  - { offset: 0xB431, size: 0x8, addend: 0x0, symName: '__ZN106_$LT$core..iter..adapters..GenericShunt$LT$I$C$R$GT$$u20$as$u20$core..iter..traits..iterator..Iterator$GT$9size_hint17h5dc8fd05a4855b8dE', symObjAddr: 0x2C0, symBinAddr: 0x36E0, symSize: 0xA4 }
  - { offset: 0xB4AA, size: 0x8, addend: 0x0, symName: __ZN4core4iter8adapters11try_process17hc836fd0a371fe0fbE, symObjAddr: 0x364, symBinAddr: 0x3784, symSize: 0x16C }
  - { offset: 0xBE04, size: 0x8, addend: 0x0, symName: '__ZN103_$LT$pyo3..instance..Bound$LT$pyo3..types..any..PyAny$GT$$u20$as$u20$pyo3..types..any..PyAnyMethods$GT$7extract17h54ad2eebe4f1e4cfE', symObjAddr: 0x0, symBinAddr: 0x3920, symSize: 0x30 }
  - { offset: 0xBEAA, size: 0x8, addend: 0x0, symName: '__ZN103_$LT$pyo3..instance..Bound$LT$pyo3..types..any..PyAny$GT$$u20$as$u20$pyo3..types..any..PyAnyMethods$GT$7extract17h54ad2eebe4f1e4cfE', symObjAddr: 0x0, symBinAddr: 0x3920, symSize: 0x30 }
  - { offset: 0xBEE1, size: 0x8, addend: 0x0, symName: '__ZN103_$LT$pyo3..instance..Bound$LT$pyo3..types..any..PyAny$GT$$u20$as$u20$pyo3..types..any..PyAnyMethods$GT$7extract17ha358cb0f0fecf9deE', symObjAddr: 0x30, symBinAddr: 0x3950, symSize: 0x30 }
  - { offset: 0xBF39, size: 0x8, addend: 0x0, symName: '__ZN107_$LT$pyo3..instance..Bound$LT$pyo3..types..dict..PyDict$GT$$u20$as$u20$pyo3..types..dict..PyDictMethods$GT$8set_item17hb3f1e3ff4b707108E', symObjAddr: 0x60, symBinAddr: 0x3980, symSize: 0x28C }
  - { offset: 0xC008, size: 0x8, addend: 0x0, symName: '__ZN107_$LT$pyo3..instance..Bound$LT$pyo3..types..list..PyList$GT$$u20$as$u20$pyo3..types..list..PyListMethods$GT$6append17hc049024623a6bd97E', symObjAddr: 0x2EC, symBinAddr: 0x3C0C, symSize: 0x164 }
  - { offset: 0xC09F, size: 0x8, addend: 0x0, symName: '__ZN115_$LT$pyo3..instance..Bound$LT$pyo3..types..module..PyModule$GT$$u20$as$u20$pyo3..types..module..PyModuleMethods$GT$3add17ha0b00ffd0930ec8dE', symObjAddr: 0x450, symBinAddr: 0x3D70, symSize: 0x288 }
  - { offset: 0xC215, size: 0x8, addend: 0x0, symName: __ZN4pyo310conversion15IntoPyObjectExt17into_bound_py_any17hf611368514d3be24E, symObjAddr: 0x700, symBinAddr: 0x4020, symSize: 0x50 }
  - { offset: 0xC285, size: 0x8, addend: 0x0, symName: __ZN4pyo310conversion15IntoPyObjectExt22into_pyobject_or_pyerr17h1187632d933e68d9E, symObjAddr: 0x750, symBinAddr: 0x4070, symSize: 0x48 }
  - { offset: 0xC2F5, size: 0x8, addend: 0x0, symName: __ZN4pyo310conversion15IntoPyObjectExt22into_pyobject_or_pyerr17hf232c730f008b800E, symObjAddr: 0x798, symBinAddr: 0x40B8, symSize: 0x48 }
  - { offset: 0xC36B, size: 0x8, addend: 0x0, symName: '__ZN81_$LT$pyo3..instance..Bound$LT$T$GT$$u20$as$u20$pyo3..conversion..IntoPyObject$GT$13into_pyobject17h8a2894579ac9bcb5E', symObjAddr: 0x948, symBinAddr: 0x4268, symSize: 0x14 }
  - { offset: 0xC3CE, size: 0x8, addend: 0x0, symName: '__ZN4pyo35impl_9pymethods133_$LT$impl$u20$core..convert..From$LT$pyo3..impl_..pymethods..BoundRef$LT$T$GT$$GT$$u20$for$u20$$RF$pyo3..instance..Bound$LT$T$GT$$GT$4from17hb050dd4d0dbdfdb1E', symObjAddr: 0x7E0, symBinAddr: 0x4100, symSize: 0x14 }
  - { offset: 0xC6B0, size: 0x8, addend: 0x0, symName: '__ZN4pyo38instance39Borrowed$LT$pyo3..types..any..PyAny$GT$15from_ptr_or_opt28_$u7b$$u7b$closure$u7d$$u7d$17h7e92b15830901576E', symObjAddr: 0x900, symBinAddr: 0x4220, symSize: 0x20 }
  - { offset: 0xC773, size: 0x8, addend: 0x0, symName: '__ZN87_$LT$pyo3..instance..Bound$LT$T$GT$$u20$as$u20$pyo3..instance..BoundObject$LT$T$GT$$GT$8into_any17h40a99df4728af082E', symObjAddr: 0x95C, symBinAddr: 0x427C, symSize: 0x24 }
  - { offset: 0xC7AA, size: 0x8, addend: 0x0, symName: '__ZN87_$LT$pyo3..instance..Bound$LT$T$GT$$u20$as$u20$pyo3..instance..BoundObject$LT$T$GT$$GT$8into_any17h60deaf46d854b272E', symObjAddr: 0x980, symBinAddr: 0x42A0, symSize: 0x24 }
  - { offset: 0xC7E7, size: 0x8, addend: 0x0, symName: '__ZN90_$LT$pyo3..instance..Borrowed$LT$T$GT$$u20$as$u20$pyo3..instance..BoundObject$LT$T$GT$$GT$6unbind17h7497f7d20e63851cE', symObjAddr: 0x9A4, symBinAddr: 0x42C4, symSize: 0x30 }
  - { offset: 0xC81E, size: 0x8, addend: 0x0, symName: '__ZN90_$LT$pyo3..instance..Borrowed$LT$T$GT$$u20$as$u20$pyo3..instance..BoundObject$LT$T$GT$$GT$8into_any17h8800c3c48c91e3a2E', symObjAddr: 0x9D4, symBinAddr: 0x42F4, symSize: 0x24 }
  - { offset: 0xCB53, size: 0x8, addend: 0x0, symName: '__ZN4core5slice29_$LT$impl$u20$$u5b$T$u5d$$GT$4iter17hac3be6c56cd4a551E', symObjAddr: 0x6D8, symBinAddr: 0x3FF8, symSize: 0x28 }
  - { offset: 0xD56A, size: 0x8, addend: 0x0, symName: '__ZN4pyo38instance11Py$LT$T$GT$13from_non_null17h46d26694469f9f42E', symObjAddr: 0x7F4, symBinAddr: 0x4114, symSize: 0x14 }
  - { offset: 0xD596, size: 0x8, addend: 0x0, symName: '__ZN4pyo38instance11Py$LT$T$GT$8into_any17h0fb312ba4bad61deE', symObjAddr: 0x808, symBinAddr: 0x4128, symSize: 0x3C }
  - { offset: 0xD5CF, size: 0x8, addend: 0x0, symName: '__ZN4pyo38instance11Py$LT$T$GT$8into_ptr17h6fa94b9afb2424d1E', symObjAddr: 0x844, symBinAddr: 0x4164, symSize: 0x30 }
  - { offset: 0xD633, size: 0x8, addend: 0x0, symName: '__ZN4pyo38instance14Bound$LT$T$GT$6unbind17hbe11a22291d2532eE', symObjAddr: 0x874, symBinAddr: 0x4194, symSize: 0x48 }
  - { offset: 0xD67D, size: 0x8, addend: 0x0, symName: '__ZN4pyo38instance14Bound$LT$T$GT$8into_any17h84ecadfe7ad064e3E', symObjAddr: 0x8BC, symBinAddr: 0x41DC, symSize: 0x30 }
  - { offset: 0xD6C3, size: 0x8, addend: 0x0, symName: '__ZN4pyo38instance17Borrowed$LT$T$GT$6to_any17h4f2d761772053932E', symObjAddr: 0x8EC, symBinAddr: 0x420C, symSize: 0x14 }
  - { offset: 0xD6EF, size: 0x8, addend: 0x0, symName: '__ZN4pyo38instance39Borrowed$LT$pyo3..types..any..PyAny$GT$18downcast_unchecked17h731699a449daa466E', symObjAddr: 0x920, symBinAddr: 0x4240, symSize: 0x14 }
  - { offset: 0xD728, size: 0x8, addend: 0x0, symName: '__ZN4pyo38instance39Borrowed$LT$pyo3..types..any..PyAny$GT$18downcast_unchecked17hf0ac7e78095b4a61E', symObjAddr: 0x934, symBinAddr: 0x4254, symSize: 0x14 }
  - { offset: 0xDB3E, size: 0x8, addend: 0x0, symName: __ZN4core5slice20copy_from_slice_impl17h1965935e1c1c41feE, symObjAddr: 0x0, symBinAddr: 0x4318, symSize: 0xAC }
  - { offset: 0xDC32, size: 0x8, addend: 0x0, symName: '__ZN4core5slice29_$LT$impl$u20$$u5b$T$u5d$$GT$7reverse7revswap17hb455f4d800daeaccE', symObjAddr: 0xAC, symBinAddr: 0x43C4, symSize: 0x17C }
  - { offset: 0xDCF1, size: 0x8, addend: 0x0, symName: __ZN4core5slice20copy_from_slice_impl17h1965935e1c1c41feE, symObjAddr: 0x0, symBinAddr: 0x4318, symSize: 0xAC }
  - { offset: 0xE2E6, size: 0x8, addend: 0x0, symName: '__ZN4core3ptr9const_ptr33_$LT$impl$u20$$BP$const$u20$T$GT$7is_null17h35a94daa18e014f2E', symObjAddr: 0x0, symBinAddr: 0x4540, symSize: 0x18 }
  - { offset: 0xE3A3, size: 0x8, addend: 0x0, symName: '__ZN4core3ptr9const_ptr33_$LT$impl$u20$$BP$const$u20$T$GT$7is_null17h35a94daa18e014f2E', symObjAddr: 0x0, symBinAddr: 0x4540, symSize: 0x18 }
  - { offset: 0xE4F9, size: 0x8, addend: 0x0, symName: '__ZN4core5slice29_$LT$impl$u20$$u5b$T$u5d$$GT$15copy_from_slice17h4cce1b7ccf659c77E', symObjAddr: 0x18, symBinAddr: 0x4558, symSize: 0x34 }
  - { offset: 0xE562, size: 0x8, addend: 0x0, symName: '__ZN4core5slice29_$LT$impl$u20$$u5b$T$u5d$$GT$18split_at_unchecked17hc3427f0757e65f99E', symObjAddr: 0x4C, symBinAddr: 0x458C, symSize: 0xE8 }
  - { offset: 0xE6A7, size: 0x8, addend: 0x0, symName: '__ZN4core5slice29_$LT$impl$u20$$u5b$T$u5d$$GT$8split_at17hb92f358dc2cb435aE', symObjAddr: 0x134, symBinAddr: 0x4674, symSize: 0xAC }
  - { offset: 0x104F4, size: 0x8, addend: 0x0, symName: '__ZN4core6option15Option$LT$T$GT$10ok_or_else17h0f82def869edd401E', symObjAddr: 0x1E0, symBinAddr: 0x4720, symSize: 0x80 }
  - { offset: 0x10586, size: 0x8, addend: 0x0, symName: '__ZN4core6option15Option$LT$T$GT$10ok_or_else17h13756675271a5f05E', symObjAddr: 0x260, symBinAddr: 0x47A0, symSize: 0xA8 }
  - { offset: 0x105F1, size: 0x8, addend: 0x0, symName: '__ZN4core6option15Option$LT$T$GT$10ok_or_else17h5dd2707d6947d321E', symObjAddr: 0x308, symBinAddr: 0x4848, symSize: 0x80 }
  - { offset: 0x10669, size: 0x8, addend: 0x0, symName: '__ZN4core6option15Option$LT$T$GT$10ok_or_else17h92bf2744ef2071b2E', symObjAddr: 0x388, symBinAddr: 0x48C8, symSize: 0x98 }
  - { offset: 0x106D4, size: 0x8, addend: 0x0, symName: '__ZN4core6option15Option$LT$T$GT$10ok_or_else17h9b7e4e1db7ee17d8E', symObjAddr: 0x420, symBinAddr: 0x4960, symSize: 0x80 }
  - { offset: 0x1073F, size: 0x8, addend: 0x0, symName: '__ZN4core6option15Option$LT$T$GT$10ok_or_else17h9d1f76aa7ff05191E', symObjAddr: 0x4A0, symBinAddr: 0x49E0, symSize: 0x80 }
  - { offset: 0x107AA, size: 0x8, addend: 0x0, symName: '__ZN4core6option15Option$LT$T$GT$10ok_or_else17hc8532fd8c32a3afbE', symObjAddr: 0x520, symBinAddr: 0x4A60, symSize: 0x7C }
  - { offset: 0x10815, size: 0x8, addend: 0x0, symName: '__ZN4core6option15Option$LT$T$GT$10ok_or_else17hf8f27b0b5443d662E', symObjAddr: 0x59C, symBinAddr: 0x4ADC, symSize: 0x7C }
  - { offset: 0x10898, size: 0x8, addend: 0x0, symName: '__ZN4core6option15Option$LT$T$GT$11is_some_and17hbf2eef987c92ffb1E', symObjAddr: 0x618, symBinAddr: 0x4B58, symSize: 0x60 }
  - { offset: 0x108FA, size: 0x8, addend: 0x0, symName: '__ZN4core6option15Option$LT$T$GT$17unwrap_or_default17haa25cc101bcb539cE', symObjAddr: 0x678, symBinAddr: 0x4BB8, symSize: 0x38 }
  - { offset: 0x10933, size: 0x8, addend: 0x0, symName: '__ZN4core6option15Option$LT$T$GT$3map17h9e4d0b8cfd10ec2dE', symObjAddr: 0x6B0, symBinAddr: 0x4BF0, symSize: 0x50 }
  - { offset: 0x109AB, size: 0x8, addend: 0x0, symName: '__ZN4core6option15Option$LT$T$GT$3map17ha9e4313652cb0d2eE', symObjAddr: 0x700, symBinAddr: 0x4C40, symSize: 0x5C }
  - { offset: 0x10A23, size: 0x8, addend: 0x0, symName: '__ZN4core6option15Option$LT$T$GT$3map17hb7c74fb8807eabf9E', symObjAddr: 0x75C, symBinAddr: 0x4C9C, symSize: 0x64 }
  - { offset: 0x10BB6, size: 0x8, addend: 0x0, symName: '__ZN4core6option15Option$LT$T$GT$5ok_or17h9955393a42caea6dE', symObjAddr: 0x7C0, symBinAddr: 0x4D00, symSize: 0xAC }
  - { offset: 0x10C45, size: 0x8, addend: 0x0, symName: '__ZN4core6option15Option$LT$T$GT$6expect17h7226725a4c8cf79cE', symObjAddr: 0x86C, symBinAddr: 0x4DAC, symSize: 0x5C }
  - { offset: 0x10C8D, size: 0x8, addend: 0x0, symName: '__ZN4core6option15Option$LT$T$GT$7is_some17hd99a83c241eb8ecdE', symObjAddr: 0x8C8, symBinAddr: 0x4E08, symSize: 0x20 }
  - { offset: 0x10CC6, size: 0x8, addend: 0x0, symName: '__ZN4core6option15Option$LT$T$GT$7is_some17hec0cf3c3ed3e879eE', symObjAddr: 0x8E8, symBinAddr: 0x4E28, symSize: 0x28 }
  - { offset: 0x10CFF, size: 0x8, addend: 0x0, symName: '__ZN4core6option15Option$LT$T$GT$7replace17he52e5059d2bd442dE', symObjAddr: 0x910, symBinAddr: 0x4E50, symSize: 0x28 }
  - { offset: 0x10D70, size: 0x8, addend: 0x0, symName: '__ZN4core6option15Option$LT$T$GT$8and_then17h7861491fe5f6d1c1E', symObjAddr: 0x938, symBinAddr: 0x4E78, symSize: 0x58 }
  - { offset: 0x10E95, size: 0x8, addend: 0x0, symName: '__ZN4core6option15Option$LT$T$GT$8as_deref17h6ca9c7ecddc8a415E', symObjAddr: 0x990, symBinAddr: 0x4ED0, symSize: 0x6C }
  - { offset: 0x10F7A, size: 0x8, addend: 0x0, symName: __ZN10serde_json5value5Value3get17h4c508cc35e0be0a6E, symObjAddr: 0x0, symBinAddr: 0x4F3C, symSize: 0x60 }
  - { offset: 0x115F2, size: 0x8, addend: 0x0, symName: '__ZN87_$LT$T$u20$as$u20$alloc..slice..$LT$impl$u20$$u5b$T$u5d$$GT$..to_vec_in..ConvertVec$GT$6to_vec17hcd45b3561093eceaE', symObjAddr: 0x1B0, symBinAddr: 0x50EC, symSize: 0x374 }
  - { offset: 0x1217C, size: 0x8, addend: 0x0, symName: __ZN4core3cmp9PartialEq2ne17h535b76c9719f020cE, symObjAddr: 0x60, symBinAddr: 0x4F9C, symSize: 0x30 }
  - { offset: 0x121DC, size: 0x8, addend: 0x0, symName: '__ZN73_$LT$$u5b$A$u5d$$u20$as$u20$core..slice..cmp..SlicePartialEq$LT$B$GT$$GT$5equal17hc79096c256ee4bf7E', symObjAddr: 0x90, symBinAddr: 0x4FCC, symSize: 0x120 }
  - { offset: 0x12529, size: 0x8, addend: 0x0, symName: __ZN10serde_json5value5Value3get17h4c508cc35e0be0a6E, symObjAddr: 0x0, symBinAddr: 0x4F3C, symSize: 0x60 }
  - { offset: 0x1297E, size: 0x8, addend: 0x0, symName: _PyInit__native, symObjAddr: 0x0, symBinAddr: 0x5460, symSize: 0x34 }
  - { offset: 0x129A2, size: 0x8, addend: 0x0, symName: __ZN7_native7_native9_PYO3_DEF17ha262421a67573950E, symObjAddr: 0x50, symBinAddr: 0xF8368, symSize: 0x0 }
  - { offset: 0x129AF, size: 0x8, addend: 0x0, symName: _PyInit__native, symObjAddr: 0x0, symBinAddr: 0x5460, symSize: 0x34 }
  - { offset: 0x138B9, size: 0x8, addend: 0x0, symName: __ZN4core4hash11BuildHasher8hash_one17h2f926fadf61c2630E, symObjAddr: 0x0, symBinAddr: 0x5494, symSize: 0x84 }
  - { offset: 0x138D5, size: 0x8, addend: 0x0, symName: __ZN4core4hash11BuildHasher8hash_one17h2f926fadf61c2630E, symObjAddr: 0x0, symBinAddr: 0x5494, symSize: 0x84 }
  - { offset: 0x13AD3, size: 0x8, addend: 0x0, symName: __ZN4pyo35impl_16extract_argument16extract_argument17h192aec28ba656007E, symObjAddr: 0x0, symBinAddr: 0x5518, symSize: 0x144 }
  - { offset: 0x144FE, size: 0x8, addend: 0x0, symName: __ZN4pyo35impl_16extract_argument16extract_argument17h192aec28ba656007E, symObjAddr: 0x0, symBinAddr: 0x5518, symSize: 0x144 }
  - { offset: 0x14584, size: 0x8, addend: 0x0, symName: __ZN4pyo35impl_16extract_argument16extract_argument17h6788de089893e657E, symObjAddr: 0x144, symBinAddr: 0x565C, symSize: 0x144 }
  - { offset: 0x14713, size: 0x8, addend: 0x0, symName: '__ZN4pyo35impl_16extract_argument19FunctionDescription26extract_arguments_fastcall28_$u7b$$u7b$closure$u7d$$u7d$17h9666384df64a14d9E', symObjAddr: 0xFCC, symBinAddr: 0x64E4, symSize: 0x24 }
  - { offset: 0x1476B, size: 0x8, addend: 0x0, symName: '__ZN4pyo35impl_16extract_argument19FunctionDescription36find_keyword_parameter_in_positional28_$u7b$$u7b$closure$u7d$$u7d$17h5357025efbb8e29eE', symObjAddr: 0xFF0, symBinAddr: 0x6508, symSize: 0x48 }
  - { offset: 0x147CB, size: 0x8, addend: 0x0, symName: '__ZN4pyo35impl_16extract_argument19FunctionDescription38find_keyword_parameter_in_keyword_only28_$u7b$$u7b$closure$u7d$$u7d$17hd3c91ddf403da29bE', symObjAddr: 0x1038, symBinAddr: 0x6550, symSize: 0x38 }
  - { offset: 0x14812, size: 0x8, addend: 0x0, symName: '__ZN71_$LT$T$u20$as$u20$pyo3..impl_..extract_argument..PyFunctionArgument$GT$7extract17h38ebf01f771dab80E', symObjAddr: 0x1070, symBinAddr: 0x6588, symSize: 0x28 }
  - { offset: 0x14851, size: 0x8, addend: 0x0, symName: '__ZN71_$LT$T$u20$as$u20$pyo3..impl_..extract_argument..PyFunctionArgument$GT$7extract17h395c35c3da152474E', symObjAddr: 0x1098, symBinAddr: 0x65B0, symSize: 0x28 }
  - { offset: 0x14EF9, size: 0x8, addend: 0x0, symName: __ZN4pyo35impl_16extract_argument19FunctionDescription13handle_kwargs17h6d051842164e6b14E, symObjAddr: 0x288, symBinAddr: 0x57A0, symSize: 0x70C }
  - { offset: 0x15132, size: 0x8, addend: 0x0, symName: __ZN4pyo35impl_16extract_argument19FunctionDescription26extract_arguments_fastcall17he58ea00d89793ca9E, symObjAddr: 0x994, symBinAddr: 0x5EAC, symSize: 0x638 }
  - { offset: 0x155E3, size: 0x8, addend: 0x0, symName: '__ZN5alloc7raw_vec19RawVec$LT$T$C$A$GT$8grow_one17h24007f5e367c1d5dE', symObjAddr: 0x0, symBinAddr: 0x65D8, symSize: 0x88 }
  - { offset: 0x15B51, size: 0x8, addend: 0x0, symName: '__ZN5alloc7raw_vec19RawVec$LT$T$C$A$GT$8grow_one17h24007f5e367c1d5dE', symObjAddr: 0x0, symBinAddr: 0x65D8, symSize: 0x88 }
  - { offset: 0x15BDA, size: 0x8, addend: 0x0, symName: __ZN4core4char7convert18from_u32_unchecked18precondition_check17h612389cb2ed12cb3E, symObjAddr: 0x0, symBinAddr: 0x6660, symSize: 0x7C }
  - { offset: 0x15C65, size: 0x8, addend: 0x0, symName: __ZN4core4char7convert18from_u32_unchecked18precondition_check17h612389cb2ed12cb3E, symObjAddr: 0x0, symBinAddr: 0x6660, symSize: 0x7C }
  - { offset: 0x15DD9, size: 0x8, addend: 0x0, symName: '__ZN71_$LT$std..hash..random..DefaultHasher$u20$as$u20$core..hash..Hasher$GT$6finish17h416accf6fa9ee732E', symObjAddr: 0x0, symBinAddr: 0x66DC, symSize: 0x20 }
  - { offset: 0x15F7D, size: 0x8, addend: 0x0, symName: '__ZN71_$LT$std..hash..random..DefaultHasher$u20$as$u20$core..hash..Hasher$GT$6finish17h416accf6fa9ee732E', symObjAddr: 0x0, symBinAddr: 0x66DC, symSize: 0x20 }
  - { offset: 0x15FC5, size: 0x8, addend: 0x0, symName: '__ZN71_$LT$std..hash..random..DefaultHasher$u20$as$u20$core..hash..Hasher$GT$9write_str17h69ec510ef8b4d1deE', symObjAddr: 0x20, symBinAddr: 0x66FC, symSize: 0x2C }
  - { offset: 0x16055, size: 0x8, addend: 0x0, symName: '__ZN73_$LT$std..hash..random..RandomState$u20$as$u20$core..default..Default$GT$7default17hb06d4bde48efb1e9E', symObjAddr: 0x4C, symBinAddr: 0x6728, symSize: 0x1C }
  - { offset: 0x1608D, size: 0x8, addend: 0x0, symName: '__ZN74_$LT$std..hash..random..RandomState$u20$as$u20$core..hash..BuildHasher$GT$12build_hasher17h89930a9c6dd7893fE', symObjAddr: 0x68, symBinAddr: 0x6744, symSize: 0xCC }
  - { offset: 0x1620E, size: 0x8, addend: 0x0, symName: __ZN4pyo35types4none6PyNone3get17h8941eaac4e7d0700E, symObjAddr: 0x0, symBinAddr: 0x6810, symSize: 0x2C }
  - { offset: 0x1651D, size: 0x8, addend: 0x0, symName: __ZN4pyo35types4none6PyNone3get17h8941eaac4e7d0700E, symObjAddr: 0x0, symBinAddr: 0x6810, symSize: 0x2C }
  - { offset: 0x16568, size: 0x8, addend: 0x0, symName: __ZN4core5slice4sort6shared9smallsort11insert_tail17h39c180ebdaf71423E, symObjAddr: 0x0, symBinAddr: 0x683C, symSize: 0x18C }
  - { offset: 0x16ED6, size: 0x8, addend: 0x0, symName: __ZN4core5slice4sort6shared9smallsort11insert_tail17h39c180ebdaf71423E, symObjAddr: 0x0, symBinAddr: 0x683C, symSize: 0x18C }
  - { offset: 0x1702C, size: 0x8, addend: 0x0, symName: __ZN4core5slice4sort6shared9smallsort12sort4_stable17hd21db9121faf7263E, symObjAddr: 0x18C, symBinAddr: 0x69C8, symSize: 0x720 }
  - { offset: 0x182F1, size: 0x8, addend: 0x0, symName: __ZN4core5slice4sort6shared9smallsort12sort8_stable17hed5697b9dd95ff35E, symObjAddr: 0x8AC, symBinAddr: 0x70E8, symSize: 0x94 }
  - { offset: 0x184A0, size: 0x8, addend: 0x0, symName: __ZN4core5slice4sort6shared9smallsort19bidirectional_merge17h1f686449a4fb5416E, symObjAddr: 0x940, symBinAddr: 0x717C, symSize: 0x4DC }
  - { offset: 0x18B43, size: 0x8, addend: 0x0, symName: __ZN4core5slice4sort6shared9smallsort25insertion_sort_shift_left17h87abac1829827b1eE, symObjAddr: 0xE1C, symBinAddr: 0x7658, symSize: 0xC0 }
  - { offset: 0x18C7D, size: 0x8, addend: 0x0, symName: __ZN4core5slice4sort6shared9smallsort31small_sort_general_with_scratch17h5a7c640acf126b81E, symObjAddr: 0xEDC, symBinAddr: 0x7718, symSize: 0x4E0 }
  - { offset: 0x199F5, size: 0x8, addend: 0x0, symName: '__ZN4pyo34sync20GILOnceCell$LT$T$GT$11get_or_init17hca158357eb56b95eE', symObjAddr: 0x0, symBinAddr: 0x7BF8, symSize: 0xD8 }
  - { offset: 0x19F6F, size: 0x8, addend: 0x0, symName: '__ZN4pyo34sync20GILOnceCell$LT$T$GT$11get_or_init28_$u7b$$u7b$closure$u7d$$u7d$17he49e9ef0421651d0E', symObjAddr: 0xD8, symBinAddr: 0x7CD0, symSize: 0x24 }
  - { offset: 0x1A20B, size: 0x8, addend: 0x0, symName: '__ZN4pyo34sync20GILOnceCell$LT$T$GT$11get_or_init17hca158357eb56b95eE', symObjAddr: 0x0, symBinAddr: 0x7BF8, symSize: 0xD8 }
  - { offset: 0x1A2CB, size: 0x8, addend: 0x0, symName: '__ZN4pyo34sync20GILOnceCell$LT$T$GT$4init17hf73b4660ab9e2d89E', symObjAddr: 0xFC, symBinAddr: 0x9E0F4, symSize: 0x11C }
  - { offset: 0x1A39D, size: 0x8, addend: 0x0, symName: '__ZN104_$LT$core..iter..adapters..copied..Copied$LT$I$GT$$u20$as$u20$core..iter..traits..iterator..Iterator$GT$4fold17hde907e09bbe64167E', symObjAddr: 0x0, symBinAddr: 0x7CF4, symSize: 0x34 }
  - { offset: 0x1A448, size: 0x8, addend: 0x0, symName: '__ZN104_$LT$core..iter..adapters..copied..Copied$LT$I$GT$$u20$as$u20$core..iter..traits..iterator..Iterator$GT$4fold17hde907e09bbe64167E', symObjAddr: 0x0, symBinAddr: 0x7CF4, symSize: 0x34 }
  - { offset: 0x1A4B0, size: 0x8, addend: 0x0, symName: '__ZN104_$LT$core..iter..adapters..copied..Copied$LT$I$GT$$u20$as$u20$core..iter..traits..iterator..Iterator$GT$4next17he39281b6a2536c97E', symObjAddr: 0x34, symBinAddr: 0x7D28, symSize: 0x5C }
  - { offset: 0x1A525, size: 0x8, addend: 0x0, symName: '__ZN104_$LT$core..iter..adapters..copied..Copied$LT$I$GT$$u20$as$u20$core..iter..traits..iterator..Iterator$GT$8try_fold17hbe70884d6a211b76E', symObjAddr: 0x90, symBinAddr: 0x7D84, symSize: 0x24 }
  - { offset: 0x1A59A, size: 0x8, addend: 0x0, symName: '__ZN104_$LT$core..iter..adapters..copied..Copied$LT$I$GT$$u20$as$u20$core..iter..traits..iterator..Iterator$GT$9size_hint17h6a386bf32af7d1a2E', symObjAddr: 0xB4, symBinAddr: 0x7DA8, symSize: 0x24 }
  - { offset: 0x1A5DE, size: 0x8, addend: 0x0, symName: '__ZN4core4iter8adapters6copied13copy_try_fold28_$u7b$$u7b$closure$u7d$$u7d$17hd2a2b8b06e5236abE', symObjAddr: 0x15C, symBinAddr: 0x7E50, symSize: 0x34 }
  - { offset: 0x1A66B, size: 0x8, addend: 0x0, symName: '__ZN4core4iter8adapters6copied9copy_fold28_$u7b$$u7b$closure$u7d$$u7d$17h7404d5a3f8724be9E', symObjAddr: 0x190, symBinAddr: 0x7E84, symSize: 0x40 }
  - { offset: 0x1A7AE, size: 0x8, addend: 0x0, symName: __ZN4core4iter6traits8iterator8Iterator3all17haa15d236b81f9ba3E, symObjAddr: 0xD8, symBinAddr: 0x7DCC, symSize: 0x3C }
  - { offset: 0x1A7FD, size: 0x8, addend: 0x0, symName: __ZN4core4iter6traits8iterator8Iterator3map17he85ec11d67dbf7eeE, symObjAddr: 0x114, symBinAddr: 0x7E08, symSize: 0x1C }
  - { offset: 0x1A855, size: 0x8, addend: 0x0, symName: __ZN4core4iter6traits8iterator8Iterator7collect17hf8cd89af43079001E, symObjAddr: 0x130, symBinAddr: 0x7E24, symSize: 0x2C }
  - { offset: 0x1A8DF, size: 0x8, addend: 0x0, symName: '__ZN63_$LT$I$u20$as$u20$core..iter..traits..collect..IntoIterator$GT$9into_iter17h50b91a43ad82723dE', symObjAddr: 0x1D0, symBinAddr: 0x7EC4, symSize: 0x1C }
  - { offset: 0x1A916, size: 0x8, addend: 0x0, symName: '__ZN63_$LT$I$u20$as$u20$core..iter..traits..collect..IntoIterator$GT$9into_iter17h9f74aa04a95e389fE', symObjAddr: 0x1EC, symBinAddr: 0x7EE0, symSize: 0x1C }
  - { offset: 0x1B1DB, size: 0x8, addend: 0x0, symName: '__ZN45_$LT$T$u20$as$u20$alloc..string..ToString$GT$9to_string17hb59058a0ce8a9719E', symObjAddr: 0x0, symBinAddr: 0x7EFC, symSize: 0x24 }
  - { offset: 0x1B22A, size: 0x8, addend: 0x0, symName: '__ZN45_$LT$T$u20$as$u20$alloc..string..ToString$GT$9to_string17hb59058a0ce8a9719E', symObjAddr: 0x0, symBinAddr: 0x7EFC, symSize: 0x24 }
  - { offset: 0x1B267, size: 0x8, addend: 0x0, symName: '__ZN49_$LT$T$u20$as$u20$alloc..string..SpecToString$GT$14spec_to_string17hbc6fd64b3d051ffdE', symObjAddr: 0x24, symBinAddr: 0x7F20, symSize: 0xF4 }
  - { offset: 0x1B531, size: 0x8, addend: 0x0, symName: '__ZN4core3cmp5impls69_$LT$impl$u20$core..cmp..PartialEq$LT$$RF$B$GT$$u20$for$u20$$RF$A$GT$2eq17h36e0b8d514e7c409E', symObjAddr: 0x118, symBinAddr: 0x8014, symSize: 0x34 }
  - { offset: 0x1B71D, size: 0x8, addend: 0x0, symName: '__ZN4core3str6traits108_$LT$impl$u20$core..slice..index..SliceIndex$LT$str$GT$$u20$for$u20$core..ops..range..Range$LT$usize$GT$$GT$13get_unchecked18precondition_check17hf6e2f08df2dda4eeE', symObjAddr: 0x0, symBinAddr: 0x8048, symSize: 0x80 }
  - { offset: 0x1B743, size: 0x8, addend: 0x0, symName: '__ZN4core3str6traits108_$LT$impl$u20$core..slice..index..SliceIndex$LT$str$GT$$u20$for$u20$core..ops..range..Range$LT$usize$GT$$GT$13get_unchecked18precondition_check17hf6e2f08df2dda4eeE', symObjAddr: 0x0, symBinAddr: 0x8048, symSize: 0x80 }
  - { offset: 0x1B7AB, size: 0x8, addend: 0x0, symName: '__ZN4core3str6traits54_$LT$impl$u20$core..cmp..PartialEq$u20$for$u20$str$GT$2eq17h5e3d46c1b4345d35E', symObjAddr: 0x80, symBinAddr: 0x80C8, symSize: 0x4C }
  - { offset: 0x1B9A0, size: 0x8, addend: 0x0, symName: '__ZN106_$LT$pyo3..impl_..extract_argument..NoVarargs$u20$as$u20$pyo3..impl_..extract_argument..VarargsHandler$GT$23handle_varargs_fastcall17h77a6692c48164f2aE', symObjAddr: 0x0, symBinAddr: 0x8114, symSize: 0xB4 }
  - { offset: 0x1BA46, size: 0x8, addend: 0x0, symName: '__ZN106_$LT$pyo3..impl_..extract_argument..NoVarargs$u20$as$u20$pyo3..impl_..extract_argument..VarargsHandler$GT$23handle_varargs_fastcall17h77a6692c48164f2aE', symObjAddr: 0x0, symBinAddr: 0x8114, symSize: 0xB4 }
  - { offset: 0x1BABA, size: 0x8, addend: 0x0, symName: '__ZN114_$LT$pyo3..impl_..extract_argument..NoVarkeywords$u20$as$u20$pyo3..impl_..extract_argument..VarkeywordsHandler$GT$17handle_varkeyword17h937e8d44fab3b735E', symObjAddr: 0xB4, symBinAddr: 0x81C8, symSize: 0x6C }
  - { offset: 0x1BBF9, size: 0x8, addend: 0x0, symName: __ZN4pyo35impl_16extract_argument24unwrap_required_argument17h9dcf884bc6dfb5a6E, symObjAddr: 0x4D4, symBinAddr: 0x85E8, symSize: 0x58 }
  - { offset: 0x1C6E8, size: 0x8, addend: 0x0, symName: __ZN4pyo35impl_16extract_argument19FunctionDescription36find_keyword_parameter_in_positional17h87fc7d6f02a77dd1E, symObjAddr: 0x120, symBinAddr: 0x8234, symSize: 0x5C }
  - { offset: 0x1C71A, size: 0x8, addend: 0x0, symName: __ZN4pyo35impl_16extract_argument19FunctionDescription38find_keyword_parameter_in_keyword_only17hc17b777c0ab60affE, symObjAddr: 0x17C, symBinAddr: 0x8290, symSize: 0x5C }
  - { offset: 0x1CA00, size: 0x8, addend: 0x0, symName: __ZN4pyo35impl_16extract_argument19FunctionDescription44ensure_no_missing_required_keyword_arguments17h5f279b9e38eaabcbE, symObjAddr: 0x1D8, symBinAddr: 0x82EC, symSize: 0x160 }
  - { offset: 0x1CACC, size: 0x8, addend: 0x0, symName: __ZN4pyo35impl_16extract_argument19FunctionDescription47ensure_no_missing_required_positional_arguments17hd7bd622a7da60494E, symObjAddr: 0x338, symBinAddr: 0x844C, symSize: 0x19C }
  - { offset: 0x1CC54, size: 0x8, addend: 0x0, symName: '__ZN4core3str21_$LT$impl$u20$str$GT$3len17hb9dd3c9a3b483636E', symObjAddr: 0x0, symBinAddr: 0x8640, symSize: 0x1C }
  - { offset: 0x1CC70, size: 0x8, addend: 0x0, symName: '__ZN4core3str21_$LT$impl$u20$str$GT$3len17hb9dd3c9a3b483636E', symObjAddr: 0x0, symBinAddr: 0x8640, symSize: 0x1C }
  - { offset: 0x1CC9C, size: 0x8, addend: 0x0, symName: '__ZN4core3str21_$LT$impl$u20$str$GT$5bytes17hcd77f92090ee6f2dE', symObjAddr: 0x1C, symBinAddr: 0x865C, symSize: 0x20 }
  - { offset: 0x1CD0A, size: 0x8, addend: 0x0, symName: '__ZN4core3str21_$LT$impl$u20$str$GT$5chars17hff77d3e41dfe5a7eE', symObjAddr: 0x3C, symBinAddr: 0x867C, symSize: 0x20 }
  - { offset: 0x1CD78, size: 0x8, addend: 0x0, symName: '__ZN4core3str21_$LT$impl$u20$str$GT$8is_empty17h59ee24ce31c0e59cE', symObjAddr: 0x5C, symBinAddr: 0x869C, symSize: 0x1C }
  - { offset: 0x1CDAA, size: 0x8, addend: 0x0, symName: '__ZN4core3str74_$LT$impl$u20$core..convert..AsRef$LT$$u5b$u8$u5d$$GT$$u20$for$u20$str$GT$6as_ref17h62bfe63e3d8f1d6dE', symObjAddr: 0x78, symBinAddr: 0x86B8, symSize: 0x18 }
  - { offset: 0x1D01A, size: 0x8, addend: 0x0, symName: __ZN4core3ptr9alignment9Alignment13new_unchecked18precondition_check17h5bf059e95bac22aaE, symObjAddr: 0x0, symBinAddr: 0x86D0, symSize: 0x70 }
  - { offset: 0x1D086, size: 0x8, addend: 0x0, symName: __ZN4core3ptr9alignment9Alignment13new_unchecked18precondition_check17h5bf059e95bac22aaE, symObjAddr: 0x0, symBinAddr: 0x86D0, symSize: 0x70 }
  - { offset: 0x1D16C, size: 0x8, addend: 0x0, symName: '__ZN185_$LT$core..ops..control_flow..ControlFlow$LT$B$C$C$GT$$u20$as$u20$core..ops..try_trait..FromResidual$LT$core..ops..control_flow..ControlFlow$LT$B$C$core..convert..Infallible$GT$$GT$$GT$13from_residual17h56d62b31ec3569d2E', symObjAddr: 0x0, symBinAddr: 0x8740, symSize: 0x1C }
  - { offset: 0x1D18D, size: 0x8, addend: 0x0, symName: '__ZN185_$LT$core..ops..control_flow..ControlFlow$LT$B$C$C$GT$$u20$as$u20$core..ops..try_trait..FromResidual$LT$core..ops..control_flow..ControlFlow$LT$B$C$core..convert..Infallible$GT$$GT$$GT$13from_residual17h56d62b31ec3569d2E', symObjAddr: 0x0, symBinAddr: 0x8740, symSize: 0x1C }
  - { offset: 0x1D1CB, size: 0x8, addend: 0x0, symName: '__ZN185_$LT$core..ops..control_flow..ControlFlow$LT$B$C$C$GT$$u20$as$u20$core..ops..try_trait..FromResidual$LT$core..ops..control_flow..ControlFlow$LT$B$C$core..convert..Infallible$GT$$GT$$GT$13from_residual17hcb65c6e7b9f6c63bE', symObjAddr: 0x1C, symBinAddr: 0x875C, symSize: 0x14 }
  - { offset: 0x1D209, size: 0x8, addend: 0x0, symName: '__ZN185_$LT$core..ops..control_flow..ControlFlow$LT$B$C$C$GT$$u20$as$u20$core..ops..try_trait..FromResidual$LT$core..ops..control_flow..ControlFlow$LT$B$C$core..convert..Infallible$GT$$GT$$GT$13from_residual17hdc518aa2ca9f0fb8E', symObjAddr: 0x30, symBinAddr: 0x8770, symSize: 0x14 }
  - { offset: 0x1D252, size: 0x8, addend: 0x0, symName: __ZN4core3ops12control_flow11ControlFlow5Break17h989e8976b682cbf1E, symObjAddr: 0x44, symBinAddr: 0x8784, symSize: 0x1C }
  - { offset: 0x1D293, size: 0x8, addend: 0x0, symName: '__ZN90_$LT$core..ops..control_flow..ControlFlow$LT$B$C$C$GT$$u20$as$u20$core..cmp..PartialEq$GT$2eq17ha22a4d3b12fda79dE', symObjAddr: 0x60, symBinAddr: 0x87A0, symSize: 0xCC }
  - { offset: 0x1D38F, size: 0x8, addend: 0x0, symName: '__ZN95_$LT$core..ops..control_flow..ControlFlow$LT$B$C$C$GT$$u20$as$u20$core..ops..try_trait..Try$GT$11from_output17h0d990b45854bf444E', symObjAddr: 0x12C, symBinAddr: 0x886C, symSize: 0x14 }
  - { offset: 0x1D3CD, size: 0x8, addend: 0x0, symName: '__ZN95_$LT$core..ops..control_flow..ControlFlow$LT$B$C$C$GT$$u20$as$u20$core..ops..try_trait..Try$GT$11from_output17h71ad6aac875700b2E', symObjAddr: 0x140, symBinAddr: 0x8880, symSize: 0x14 }
  - { offset: 0x1D40B, size: 0x8, addend: 0x0, symName: '__ZN95_$LT$core..ops..control_flow..ControlFlow$LT$B$C$C$GT$$u20$as$u20$core..ops..try_trait..Try$GT$11from_output17hfd21d65e394a4734E', symObjAddr: 0x154, symBinAddr: 0x8894, symSize: 0x10 }
  - { offset: 0x1D449, size: 0x8, addend: 0x0, symName: '__ZN95_$LT$core..ops..control_flow..ControlFlow$LT$B$C$C$GT$$u20$as$u20$core..ops..try_trait..Try$GT$6branch17h6e10ce8fedb89dfaE', symObjAddr: 0x164, symBinAddr: 0x88A4, symSize: 0x38 }
  - { offset: 0x1D4C1, size: 0x8, addend: 0x0, symName: '__ZN95_$LT$core..ops..control_flow..ControlFlow$LT$B$C$C$GT$$u20$as$u20$core..ops..try_trait..Try$GT$6branch17he4cfc97c3230b030E', symObjAddr: 0x19C, symBinAddr: 0x88DC, symSize: 0x4C }
  - { offset: 0x1D539, size: 0x8, addend: 0x0, symName: '__ZN95_$LT$core..ops..control_flow..ControlFlow$LT$B$C$C$GT$$u20$as$u20$core..ops..try_trait..Try$GT$6branch17he8028dcce8f089ebE', symObjAddr: 0x1E8, symBinAddr: 0x8928, symSize: 0x64 }
  - { offset: 0x1DACB, size: 0x8, addend: 0x0, symName: '__ZN87_$LT$$BP$mut$u20$pyo3_ffi..object..PyObject$u20$as$u20$pyo3..ffi_ptr_ext..FfiPtrExt$GT$15assume_borrowed17h8c4c42dbdc293679E', symObjAddr: 0x0, symBinAddr: 0x898C, symSize: 0x24 }
  - { offset: 0x1DB00, size: 0x8, addend: 0x0, symName: __ZN8pyo3_ffi6object7Py_None17h24246b1128a533e2E, symObjAddr: 0x48, symBinAddr: 0x89D4, symSize: 0xC }
  - { offset: 0x1DB8A, size: 0x8, addend: 0x0, symName: '__ZN87_$LT$$BP$mut$u20$pyo3_ffi..object..PyObject$u20$as$u20$pyo3..ffi_ptr_ext..FfiPtrExt$GT$15assume_borrowed17h8c4c42dbdc293679E', symObjAddr: 0x0, symBinAddr: 0x898C, symSize: 0x24 }
  - { offset: 0x1DBCF, size: 0x8, addend: 0x0, symName: '__ZN87_$LT$$BP$mut$u20$pyo3_ffi..object..PyObject$u20$as$u20$pyo3..ffi_ptr_ext..FfiPtrExt$GT$25assume_borrowed_unchecked17hac58dcf5b40bb73dE', symObjAddr: 0x24, symBinAddr: 0x89B0, symSize: 0x24 }
  - { offset: 0x1DE89, size: 0x8, addend: 0x0, symName: '__ZN59_$LT$alloc..alloc..Global$u20$as$u20$core..clone..Clone$GT$5clone17h7afdeabf03cb47c5E', symObjAddr: 0x0, symBinAddr: 0x89E0, symSize: 0x10 }
  - { offset: 0x1E7FF, size: 0x8, addend: 0x0, symName: '__ZN59_$LT$alloc..alloc..Global$u20$as$u20$core..clone..Clone$GT$5clone17h7afdeabf03cb47c5E', symObjAddr: 0x0, symBinAddr: 0x89E0, symSize: 0x10 }
  - { offset: 0x1E858, size: 0x8, addend: 0x0, symName: '__ZN63_$LT$alloc..alloc..Global$u20$as$u20$core..alloc..Allocator$GT$10deallocate17h17cc7068ce794a19E', symObjAddr: 0x254, symBinAddr: 0x8C34, symSize: 0x58 }
  - { offset: 0x1E99C, size: 0x8, addend: 0x0, symName: __ZN5alloc5alloc15exchange_malloc17h875cbc6cb1c096f4E, symObjAddr: 0x10, symBinAddr: 0x89F0, symSize: 0xB0 }
  - { offset: 0x1ECF6, size: 0x8, addend: 0x0, symName: __ZN5alloc5alloc6Global18alloc_impl_runtime17h3c6ea9ac7e8fdfbfE, symObjAddr: 0xC0, symBinAddr: 0x8AA0, symSize: 0x194 }
  - { offset: 0x1F10B, size: 0x8, addend: 0x0, symName: '__ZN52_$LT$char$u20$as$u20$core..str..pattern..Pattern$GT$13into_searcher17h389db60b41b9a73eE', symObjAddr: 0x0, symBinAddr: 0x8C8C, symSize: 0x114 }
  - { offset: 0x1F2DC, size: 0x8, addend: 0x0, symName: '__ZN52_$LT$char$u20$as$u20$core..str..pattern..Pattern$GT$13into_searcher17h389db60b41b9a73eE', symObjAddr: 0x0, symBinAddr: 0x8C8C, symSize: 0x114 }
  - { offset: 0x1F3FA, size: 0x8, addend: 0x0, symName: '__ZN55_$LT$$RF$str$u20$as$u20$core..str..pattern..Pattern$GT$13into_searcher17ha3831c75a9e9e8feE', symObjAddr: 0x114, symBinAddr: 0x8DA0, symSize: 0x4C }
  - { offset: 0x1F461, size: 0x8, addend: 0x0, symName: '__ZN55_$LT$$RF$str$u20$as$u20$core..str..pattern..Pattern$GT$15strip_prefix_of17h36f04854a6286cc2E', symObjAddr: 0x160, symBinAddr: 0x8DEC, symSize: 0xE8 }
  - { offset: 0x1F5EB, size: 0x8, addend: 0x0, symName: '__ZN80_$LT$core..str..pattern..StrSearcher$u20$as$u20$core..str..pattern..Searcher$GT$10next_match17h5b95a3d6aa82aeb7E', symObjAddr: 0x248, symBinAddr: 0x8ED4, symSize: 0x148 }
  - { offset: 0x1F677, size: 0x8, addend: 0x0, symName: '__ZN80_$LT$core..str..pattern..StrSearcher$u20$as$u20$core..str..pattern..Searcher$GT$4next17h10f87912815d70fbE', symObjAddr: 0x390, symBinAddr: 0x901C, symSize: 0x434 }
  - { offset: 0x1F9D2, size: 0x8, addend: 0x0, symName: '__ZN81_$LT$core..str..pattern..CharSearcher$u20$as$u20$core..str..pattern..Searcher$GT$10next_match17h23ea000c0607bb18E', symObjAddr: 0x7C4, symBinAddr: 0x9450, symSize: 0x37C }
  - { offset: 0x20E48, size: 0x8, addend: 0x0, symName: __ZN4pyo310conversion15IntoPyObjectExt11into_py_any17h485fc0f5eeff81eaE, symObjAddr: 0x0, symBinAddr: 0x97CC, symSize: 0x4C }
  - { offset: 0x20EE9, size: 0x8, addend: 0x0, symName: __ZN4pyo310conversion15IntoPyObjectExt11into_py_any17h485fc0f5eeff81eaE, symObjAddr: 0x0, symBinAddr: 0x97CC, symSize: 0x4C }
  - { offset: 0x20F59, size: 0x8, addend: 0x0, symName: __ZN4pyo310conversion15IntoPyObjectExt11into_py_any17h4d069336fb7a9844E, symObjAddr: 0x4C, symBinAddr: 0x9818, symSize: 0x50 }
  - { offset: 0x20FC9, size: 0x8, addend: 0x0, symName: __ZN4pyo310conversion15IntoPyObjectExt11into_py_any17he0a5840babae3bbbE, symObjAddr: 0x9C, symBinAddr: 0x9868, symSize: 0x4C }
  - { offset: 0x21039, size: 0x8, addend: 0x0, symName: __ZN4pyo310conversion15IntoPyObjectExt11into_py_any17hfd386e349a74a16fE, symObjAddr: 0xE8, symBinAddr: 0x98B4, symSize: 0x4C }
  - { offset: 0x21ADD, size: 0x8, addend: 0x0, symName: '__ZN4core3cmp5impls69_$LT$impl$u20$core..cmp..PartialEq$LT$$RF$B$GT$$u20$for$u20$$RF$A$GT$2eq17hc5c25bb0cf8c2719E', symObjAddr: 0x0, symBinAddr: 0x9900, symSize: 0x34 }
  - { offset: 0x21AFE, size: 0x8, addend: 0x0, symName: '__ZN4core3cmp5impls69_$LT$impl$u20$core..cmp..PartialEq$LT$$RF$B$GT$$u20$for$u20$$RF$A$GT$2eq17hc5c25bb0cf8c2719E', symObjAddr: 0x0, symBinAddr: 0x9900, symSize: 0x34 }
  - { offset: 0x21B4D, size: 0x8, addend: 0x0, symName: '__ZN4core3cmp5impls69_$LT$impl$u20$core..cmp..PartialEq$LT$$RF$B$GT$$u20$for$u20$$RF$A$GT$2ne17h19d2d279382bb44cE', symObjAddr: 0x34, symBinAddr: 0x9934, symSize: 0x44 }
  - { offset: 0x21C21, size: 0x8, addend: 0x0, symName: '__ZN136_$LT$core..result..Result$LT$V$C$E$GT$$u20$as$u20$core..iter..traits..collect..FromIterator$LT$core..result..Result$LT$A$C$E$GT$$GT$$GT$9from_iter17h14e202825d75652eE', symObjAddr: 0x0, symBinAddr: 0x9978, symSize: 0x34 }
  - { offset: 0x2205F, size: 0x8, addend: 0x0, symName: '__ZN136_$LT$core..result..Result$LT$V$C$E$GT$$u20$as$u20$core..iter..traits..collect..FromIterator$LT$core..result..Result$LT$A$C$E$GT$$GT$$GT$9from_iter17h14e202825d75652eE', symObjAddr: 0x0, symBinAddr: 0x9978, symSize: 0x34 }
  - { offset: 0x220B7, size: 0x8, addend: 0x0, symName: '__ZN136_$LT$core..result..Result$LT$V$C$E$GT$$u20$as$u20$core..iter..traits..collect..FromIterator$LT$core..result..Result$LT$A$C$E$GT$$GT$$GT$9from_iter28_$u7b$$u7b$closure$u7d$$u7d$17h7626a7587e3d2c41E', symObjAddr: 0x34, symBinAddr: 0x99AC, symSize: 0x28 }
  - { offset: 0x22234, size: 0x8, addend: 0x0, symName: '__ZN153_$LT$core..result..Result$LT$T$C$F$GT$$u20$as$u20$core..ops..try_trait..FromResidual$LT$core..result..Result$LT$core..convert..Infallible$C$E$GT$$GT$$GT$13from_residual17h2e1194fda33e32cdE', symObjAddr: 0x5C, symBinAddr: 0x99D4, symSize: 0x30 }
  - { offset: 0x222B9, size: 0x8, addend: 0x0, symName: '__ZN153_$LT$core..result..Result$LT$T$C$F$GT$$u20$as$u20$core..ops..try_trait..FromResidual$LT$core..result..Result$LT$core..convert..Infallible$C$E$GT$$GT$$GT$13from_residual17h49edfd6d7e06fa78E', symObjAddr: 0x8C, symBinAddr: 0x9A04, symSize: 0x24 }
  - { offset: 0x2233E, size: 0x8, addend: 0x0, symName: '__ZN153_$LT$core..result..Result$LT$T$C$F$GT$$u20$as$u20$core..ops..try_trait..FromResidual$LT$core..result..Result$LT$core..convert..Infallible$C$E$GT$$GT$$GT$13from_residual17h57e38a5fb1c33dbeE', symObjAddr: 0xB0, symBinAddr: 0x9A28, symSize: 0x6C }
  - { offset: 0x223C4, size: 0x8, addend: 0x0, symName: '__ZN153_$LT$core..result..Result$LT$T$C$F$GT$$u20$as$u20$core..ops..try_trait..FromResidual$LT$core..result..Result$LT$core..convert..Infallible$C$E$GT$$GT$$GT$13from_residual17h6acdb7d0a4b79158E', symObjAddr: 0x11C, symBinAddr: 0x9A94, symSize: 0x6C }
  - { offset: 0x2244A, size: 0x8, addend: 0x0, symName: '__ZN153_$LT$core..result..Result$LT$T$C$F$GT$$u20$as$u20$core..ops..try_trait..FromResidual$LT$core..result..Result$LT$core..convert..Infallible$C$E$GT$$GT$$GT$13from_residual17h8fd4f4de7d6fa8daE', symObjAddr: 0x188, symBinAddr: 0x9B00, symSize: 0x4C }
  - { offset: 0x224B2, size: 0x8, addend: 0x0, symName: '__ZN153_$LT$core..result..Result$LT$T$C$F$GT$$u20$as$u20$core..ops..try_trait..FromResidual$LT$core..result..Result$LT$core..convert..Infallible$C$E$GT$$GT$$GT$13from_residual17hd5408b6f5fb84c11E', symObjAddr: 0x1D4, symBinAddr: 0x9B4C, symSize: 0x6C }
  - { offset: 0x22FF4, size: 0x8, addend: 0x0, symName: '__ZN79_$LT$core..result..Result$LT$T$C$E$GT$$u20$as$u20$core..ops..try_trait..Try$GT$11from_output17h9f36f14f2397d2e5E', symObjAddr: 0xB08, symBinAddr: 0xA480, symSize: 0x18 }
  - { offset: 0x23034, size: 0x8, addend: 0x0, symName: '__ZN79_$LT$core..result..Result$LT$T$C$E$GT$$u20$as$u20$core..ops..try_trait..Try$GT$6branch17h133aaa091b8a10fcE', symObjAddr: 0xB20, symBinAddr: 0xA498, symSize: 0x90 }
  - { offset: 0x230B1, size: 0x8, addend: 0x0, symName: '__ZN79_$LT$core..result..Result$LT$T$C$E$GT$$u20$as$u20$core..ops..try_trait..Try$GT$6branch17h202a3a5babecdd46E', symObjAddr: 0xBB0, symBinAddr: 0xA528, symSize: 0xB8 }
  - { offset: 0x2312F, size: 0x8, addend: 0x0, symName: '__ZN79_$LT$core..result..Result$LT$T$C$E$GT$$u20$as$u20$core..ops..try_trait..Try$GT$6branch17h22feadc43961001dE', symObjAddr: 0xC68, symBinAddr: 0xA5E0, symSize: 0xAC }
  - { offset: 0x231AC, size: 0x8, addend: 0x0, symName: '__ZN79_$LT$core..result..Result$LT$T$C$E$GT$$u20$as$u20$core..ops..try_trait..Try$GT$6branch17h245c6d150f4732a5E', symObjAddr: 0xD14, symBinAddr: 0xA68C, symSize: 0xC4 }
  - { offset: 0x2322A, size: 0x8, addend: 0x0, symName: '__ZN79_$LT$core..result..Result$LT$T$C$E$GT$$u20$as$u20$core..ops..try_trait..Try$GT$6branch17h593dd37cd835ca1eE', symObjAddr: 0xDD8, symBinAddr: 0xA750, symSize: 0xB4 }
  - { offset: 0x232A8, size: 0x8, addend: 0x0, symName: '__ZN79_$LT$core..result..Result$LT$T$C$E$GT$$u20$as$u20$core..ops..try_trait..Try$GT$6branch17h5f1ba703dbdfaccdE', symObjAddr: 0xE8C, symBinAddr: 0xA804, symSize: 0xB4 }
  - { offset: 0x23326, size: 0x8, addend: 0x0, symName: '__ZN79_$LT$core..result..Result$LT$T$C$E$GT$$u20$as$u20$core..ops..try_trait..Try$GT$6branch17h7dedd1c785284742E', symObjAddr: 0xF40, symBinAddr: 0xA8B8, symSize: 0xA0 }
  - { offset: 0x233A3, size: 0x8, addend: 0x0, symName: '__ZN79_$LT$core..result..Result$LT$T$C$E$GT$$u20$as$u20$core..ops..try_trait..Try$GT$6branch17h9c7be9f75f5dd77dE', symObjAddr: 0xFE0, symBinAddr: 0xA958, symSize: 0x6C }
  - { offset: 0x23420, size: 0x8, addend: 0x0, symName: '__ZN79_$LT$core..result..Result$LT$T$C$E$GT$$u20$as$u20$core..ops..try_trait..Try$GT$6branch17hb498a9a8416b57c6E', symObjAddr: 0x104C, symBinAddr: 0xA9C4, symSize: 0xA0 }
  - { offset: 0x2349D, size: 0x8, addend: 0x0, symName: '__ZN79_$LT$core..result..Result$LT$T$C$E$GT$$u20$as$u20$core..ops..try_trait..Try$GT$6branch17hf6374ad63d5034c0E', symObjAddr: 0x10EC, symBinAddr: 0xAA64, symSize: 0xA0 }
  - { offset: 0x2351A, size: 0x8, addend: 0x0, symName: '__ZN79_$LT$core..result..Result$LT$T$C$E$GT$$u20$as$u20$core..ops..try_trait..Try$GT$6branch17hf9bef43a0c418a4fE', symObjAddr: 0x118C, symBinAddr: 0xAB04, symSize: 0xB4 }
  - { offset: 0x254E4, size: 0x8, addend: 0x0, symName: '__ZN4core6result19Result$LT$T$C$E$GT$3map17h24f8e27064cb55e1E', symObjAddr: 0x240, symBinAddr: 0x9BB8, symSize: 0x90 }
  - { offset: 0x25577, size: 0x8, addend: 0x0, symName: '__ZN4core6result19Result$LT$T$C$E$GT$3map17hd5b1a39d3692a71cE', symObjAddr: 0x2D0, symBinAddr: 0x9C48, symSize: 0x90 }
  - { offset: 0x25687, size: 0x8, addend: 0x0, symName: '__ZN4core6result19Result$LT$T$C$E$GT$5is_ok17hc0bb3ef09a93a642E', symObjAddr: 0x360, symBinAddr: 0x9CD8, symSize: 0x20 }
  - { offset: 0x256EE, size: 0x8, addend: 0x0, symName: '__ZN4core6result19Result$LT$T$C$E$GT$6is_err17h975ef030e0f2ef6cE', symObjAddr: 0x380, symBinAddr: 0x9CF8, symSize: 0x20 }
  - { offset: 0x25CCB, size: 0x8, addend: 0x0, symName: '__ZN4core6result19Result$LT$T$C$E$GT$7map_err17h157b74c5ef22f32bE', symObjAddr: 0x3A0, symBinAddr: 0x9D18, symSize: 0xA8 }
  - { offset: 0x25D5E, size: 0x8, addend: 0x0, symName: '__ZN4core6result19Result$LT$T$C$E$GT$7map_err17h27e4a997f81fdd4aE', symObjAddr: 0x448, symBinAddr: 0x9DC0, symSize: 0xAC }
  - { offset: 0x25E09, size: 0x8, addend: 0x0, symName: '__ZN4core6result19Result$LT$T$C$E$GT$7map_err17h7e29fae3cc2c6744E', symObjAddr: 0x4F4, symBinAddr: 0x9E6C, symSize: 0xB8 }
  - { offset: 0x25E9C, size: 0x8, addend: 0x0, symName: '__ZN4core6result19Result$LT$T$C$E$GT$7map_err17h9bd6c6d26821a58bE', symObjAddr: 0x5AC, symBinAddr: 0x9F24, symSize: 0xA0 }
  - { offset: 0x25F2F, size: 0x8, addend: 0x0, symName: '__ZN4core6result19Result$LT$T$C$E$GT$7map_err17hbcddd80ba60cceebE', symObjAddr: 0x64C, symBinAddr: 0x9FC4, symSize: 0xA0 }
  - { offset: 0x25FC2, size: 0x8, addend: 0x0, symName: '__ZN4core6result19Result$LT$T$C$E$GT$7map_err17hbff24769bb53bd9fE', symObjAddr: 0x6EC, symBinAddr: 0xA064, symSize: 0xB8 }
  - { offset: 0x26056, size: 0x8, addend: 0x0, symName: '__ZN4core6result19Result$LT$T$C$E$GT$7map_err17hd982bc30cc080da5E', symObjAddr: 0x7A4, symBinAddr: 0xA11C, symSize: 0xCC }
  - { offset: 0x260EA, size: 0x8, addend: 0x0, symName: '__ZN4core6result19Result$LT$T$C$E$GT$7map_err17hf3d87c1984ab7b13E', symObjAddr: 0x870, symBinAddr: 0xA1E8, symSize: 0xA8 }
  - { offset: 0x2617D, size: 0x8, addend: 0x0, symName: '__ZN4core6result19Result$LT$T$C$E$GT$7map_err17hffa6abb6fe682441E', symObjAddr: 0x918, symBinAddr: 0xA290, symSize: 0xAC }
  - { offset: 0x2621D, size: 0x8, addend: 0x0, symName: '__ZN4core6result19Result$LT$T$C$E$GT$8and_then17h65c573fd220644bdE', symObjAddr: 0x9C4, symBinAddr: 0xA33C, symSize: 0xB0 }
  - { offset: 0x262B0, size: 0x8, addend: 0x0, symName: '__ZN4core6result19Result$LT$T$C$E$GT$8and_then17hf2add446bc383590E', symObjAddr: 0xA74, symBinAddr: 0xA3EC, symSize: 0x94 }
  - { offset: 0x26535, size: 0x8, addend: 0x0, symName: '__ZN57_$LT$$RF$T$u20$as$u20$serde_json..value..index..Index$GT$10index_into17hb17f915fbca43de8E', symObjAddr: 0x0, symBinAddr: 0xABB8, symSize: 0x3C }
  - { offset: 0x26556, size: 0x8, addend: 0x0, symName: '__ZN57_$LT$$RF$T$u20$as$u20$serde_json..value..index..Index$GT$10index_into17hb17f915fbca43de8E', symObjAddr: 0x0, symBinAddr: 0xABB8, symSize: 0x3C }
  - { offset: 0x26F2D, size: 0x8, addend: 0x0, symName: __ZN4core9ub_checks23maybe_is_nonoverlapping7runtime17hb38a6ee5c794df1eE, symObjAddr: 0x0, symBinAddr: 0xABF4, symSize: 0xD8 }
  - { offset: 0x270B2, size: 0x8, addend: 0x0, symName: __ZN4core9ub_checks23maybe_is_nonoverlapping7runtime17hb38a6ee5c794df1eE, symObjAddr: 0x0, symBinAddr: 0xABF4, symSize: 0xD8 }
  - { offset: 0x272C5, size: 0x8, addend: 0x0, symName: '__ZN4core5array4iter94_$LT$impl$u20$core..iter..traits..collect..IntoIterator$u20$for$u20$$u5b$T$u3b$$u20$N$u5d$$GT$9into_iter17h3446d8ea3ebfc6a6E', symObjAddr: 0x0, symBinAddr: 0xACCC, symSize: 0xA4 }
  - { offset: 0x27339, size: 0x8, addend: 0x0, symName: '__ZN4core5array4iter94_$LT$impl$u20$core..iter..traits..collect..IntoIterator$u20$for$u20$$u5b$T$u3b$$u20$N$u5d$$GT$9into_iter17h3446d8ea3ebfc6a6E', symObjAddr: 0x0, symBinAddr: 0xACCC, symSize: 0xA4 }
  - { offset: 0x273B2, size: 0x8, addend: 0x0, symName: '__ZN99_$LT$core..array..iter..IntoIter$LT$T$C$_$GT$$u20$as$u20$core..iter..traits..iterator..Iterator$GT$4next17h641774315c6a0a50E', symObjAddr: 0xA4, symBinAddr: 0xAD70, symSize: 0x2C }
  - { offset: 0x2764F, size: 0x8, addend: 0x0, symName: '__ZN60_$LT$serde_json..number..N$u20$as$u20$core..clone..Clone$GT$5clone17h1cce43484dadacc5E', symObjAddr: 0x0, symBinAddr: 0xAD9C, symSize: 0x1C }
  - { offset: 0x2766B, size: 0x8, addend: 0x0, symName: '__ZN60_$LT$serde_json..number..N$u20$as$u20$core..clone..Clone$GT$5clone17h1cce43484dadacc5E', symObjAddr: 0x0, symBinAddr: 0xAD9C, symSize: 0x1C }
  - { offset: 0x2769D, size: 0x8, addend: 0x0, symName: '__ZN65_$LT$serde_json..number..Number$u20$as$u20$core..clone..Clone$GT$5clone17h06f2c38b186455e2E', symObjAddr: 0x1C, symBinAddr: 0xADB8, symSize: 0x38 }
  - { offset: 0x276CF, size: 0x8, addend: 0x0, symName: '__ZN67_$LT$serde_json..number..Number$u20$as$u20$core..cmp..PartialEq$GT$2eq17h370ce5a42b57a1faE', symObjAddr: 0x54, symBinAddr: 0xADF0, symSize: 0x2C }
  - { offset: 0x277F4, size: 0x8, addend: 0x0, symName: __ZN4core9core_arch10arm_shared4neon9generated18vreinterpret_s8_u817hc68116a4c8dd56ffE, symObjAddr: 0x0, symBinAddr: 0xAE1C, symSize: 0xC }
  - { offset: 0x2781A, size: 0x8, addend: 0x0, symName: __ZN4core9core_arch10arm_shared4neon9generated18vreinterpret_s8_u817hc68116a4c8dd56ffE, symObjAddr: 0x0, symBinAddr: 0xAE1C, symSize: 0xC }
  - { offset: 0x27848, size: 0x8, addend: 0x0, symName: __ZN4core9core_arch10arm_shared4neon9generated19vreinterpret_u64_u817hd31d580251fcc4aaE, symObjAddr: 0xC, symBinAddr: 0xAE28, symSize: 0xC }
  - { offset: 0x27876, size: 0x8, addend: 0x0, symName: __ZN4core9core_arch10arm_shared4neon9generated7vceq_u817h71bd65c054e5ea41E, symObjAddr: 0x18, symBinAddr: 0xAE34, symSize: 0x14 }
  - { offset: 0x278B3, size: 0x8, addend: 0x0, symName: __ZN4core9core_arch10arm_shared4neon9generated7vorr_u817hd3cc24cdc39967bfE, symObjAddr: 0x2C, symBinAddr: 0xAE48, symSize: 0x14 }
  - { offset: 0x278F0, size: 0x8, addend: 0x0, symName: __ZN4core9core_arch10arm_shared4neon9generated9vdup_n_u817h4fe7692672c75effE, symObjAddr: 0x40, symBinAddr: 0xAE5C, symSize: 0x2C }
  - { offset: 0x27A5E, size: 0x8, addend: 0x0, symName: __ZN4core3ptr19copy_nonoverlapping18precondition_check17hc8769672f83973b7E, symObjAddr: 0x0, symBinAddr: 0xAE88, symSize: 0x168 }
  - { offset: 0x27B46, size: 0x8, addend: 0x0, symName: __ZN4core3ptr19copy_nonoverlapping18precondition_check17hc8769672f83973b7E, symObjAddr: 0x0, symBinAddr: 0xAE88, symSize: 0x168 }
  - { offset: 0x27D6D, size: 0x8, addend: 0x0, symName: __ZN4core3ptr25swap_nonoverlapping_bytes17h56037d15ce67832bE, symObjAddr: 0x2D4, symBinAddr: 0xAFF0, symSize: 0xD8 }
  - { offset: 0x27F16, size: 0x8, addend: 0x0, symName: __ZN4core3ptr25swap_nonoverlapping_bytes25swap_nonoverlapping_short17hde9c6c18df5a6ed8E, symObjAddr: 0x3AC, symBinAddr: 0xB0C8, symSize: 0x11C }
  - { offset: 0x28272, size: 0x8, addend: 0x0, symName: __ZN4core4iter6traits8iterator8Iterator3zip17h920a60e981e593f3E, symObjAddr: 0x0, symBinAddr: 0xB1E4, symSize: 0xB4 }
  - { offset: 0x283C4, size: 0x8, addend: 0x0, symName: __ZN4core4iter6traits8iterator8Iterator3zip17h920a60e981e593f3E, symObjAddr: 0x0, symBinAddr: 0xB1E4, symSize: 0xB4 }
  - { offset: 0x2883F, size: 0x8, addend: 0x0, symName: __ZN4pyo33gil8GILGuard6python17hed225e3fd368b05eE, symObjAddr: 0x0, symBinAddr: 0xB298, symSize: 0x20 }
  - { offset: 0x288EF, size: 0x8, addend: 0x0, symName: __ZN4pyo33gil8GILGuard6python17hed225e3fd368b05eE, symObjAddr: 0x0, symBinAddr: 0xB298, symSize: 0x20 }
  - { offset: 0x2892F, size: 0x8, addend: 0x0, symName: __ZN13ed25519_dalek9verifying12VerifyingKey10from_bytes17he8de846c9818c588E, symObjAddr: 0x0, symBinAddr: 0xB2B8, symSize: 0x138 }
  - { offset: 0x28CCA, size: 0x8, addend: 0x0, symName: __ZN13ed25519_dalek9verifying12VerifyingKey10from_bytes17he8de846c9818c588E, symObjAddr: 0x0, symBinAddr: 0xB2B8, symSize: 0x138 }
  - { offset: 0x28D8A, size: 0x8, addend: 0x0, symName: '__ZN50_$LT$T$u20$as$u20$core..convert..Into$LT$U$GT$$GT$4into17h40d36881cd31d702E', symObjAddr: 0x0, symBinAddr: 0xB3F0, symSize: 0x24 }
  - { offset: 0x28E2B, size: 0x8, addend: 0x0, symName: '__ZN50_$LT$T$u20$as$u20$core..convert..Into$LT$U$GT$$GT$4into17h40d36881cd31d702E', symObjAddr: 0x0, symBinAddr: 0xB3F0, symSize: 0x24 }
  - { offset: 0x29142, size: 0x8, addend: 0x0, symName: '__ZN4core3str6traits66_$LT$impl$u20$core..ops..index..Index$LT$I$GT$$u20$for$u20$str$GT$5index17h110ad35d8e446393E', symObjAddr: 0x0, symBinAddr: 0xB414, symSize: 0x40 }
  - { offset: 0x29163, size: 0x8, addend: 0x0, symName: '__ZN4core3str6traits66_$LT$impl$u20$core..ops..index..Index$LT$I$GT$$u20$for$u20$str$GT$5index17h110ad35d8e446393E', symObjAddr: 0x0, symBinAddr: 0xB414, symSize: 0x40 }
  - { offset: 0x291A7, size: 0x8, addend: 0x0, symName: '__ZN4core3str6traits66_$LT$impl$u20$core..ops..index..Index$LT$I$GT$$u20$for$u20$str$GT$5index17h42b0e2808c584be1E', symObjAddr: 0x40, symBinAddr: 0xB454, symSize: 0x44 }
  - { offset: 0x292A8, size: 0x8, addend: 0x0, symName: '__ZN4core3ptr8non_null16NonNull$LT$T$GT$13new_unchecked18precondition_check17hb439a068dcd73e3aE', symObjAddr: 0x0, symBinAddr: 0xB498, symSize: 0x58 }
  - { offset: 0x292CE, size: 0x8, addend: 0x0, symName: '__ZN4core3ptr8non_null16NonNull$LT$T$GT$13new_unchecked18precondition_check17hb439a068dcd73e3aE', symObjAddr: 0x0, symBinAddr: 0xB498, symSize: 0x58 }
  - { offset: 0x2937F, size: 0x8, addend: 0x0, symName: __ZN4core5slice4sort6shared5pivot11median3_rec17h1c9a6dd3d3d9e87dE, symObjAddr: 0x0, symBinAddr: 0xB4F0, symSize: 0x1B8 }
  - { offset: 0x29574, size: 0x8, addend: 0x0, symName: __ZN4core5slice4sort6shared5pivot11median3_rec17h1c9a6dd3d3d9e87dE, symObjAddr: 0x0, symBinAddr: 0xB4F0, symSize: 0x1B8 }
  - { offset: 0x29778, size: 0x8, addend: 0x0, symName: __ZN4core5slice4sort6shared5pivot12choose_pivot17h4d46f3d73099478fE, symObjAddr: 0x1B8, symBinAddr: 0xB6A8, symSize: 0x238 }
  - { offset: 0x29C0C, size: 0x8, addend: 0x0, symName: __ZN4core9core_arch7aarch644neon9generated7vld1_u817h6afc14d0bd276a74E, symObjAddr: 0x0, symBinAddr: 0xB8E0, symSize: 0x34 }
  - { offset: 0x29C32, size: 0x8, addend: 0x0, symName: __ZN4core9core_arch7aarch644neon9generated7vld1_u817h6afc14d0bd276a74E, symObjAddr: 0x0, symBinAddr: 0xB8E0, symSize: 0x34 }
  - { offset: 0x29C60, size: 0x8, addend: 0x0, symName: __ZN4core9core_arch7aarch644neon9generated7vst1_u817hd553907bccc66e82E, symObjAddr: 0x34, symBinAddr: 0xB914, symSize: 0x40 }
  - { offset: 0x29C9A, size: 0x8, addend: 0x0, symName: __ZN4core9core_arch7aarch644neon9generated8vcgez_s817hb929688c04ade972E, symObjAddr: 0x74, symBinAddr: 0xB954, symSize: 0x68 }
  - { offset: 0x29D3C, size: 0x8, addend: 0x0, symName: __ZN4core9core_arch7aarch644neon9generated8vcltz_s817h9384821b1fd28586E, symObjAddr: 0xDC, symBinAddr: 0xB9BC, symSize: 0x68 }
  - { offset: 0x29F32, size: 0x8, addend: 0x0, symName: __ZN4pyo35impl_5panic9PanicTrap3new17h9609240ea5e6b605E, symObjAddr: 0x0, symBinAddr: 0xBA24, symSize: 0x18 }
  - { offset: 0x29FC1, size: 0x8, addend: 0x0, symName: __ZN4pyo35impl_5panic9PanicTrap3new17h9609240ea5e6b605E, symObjAddr: 0x0, symBinAddr: 0xBA24, symSize: 0x18 }
  - { offset: 0x29FE3, size: 0x8, addend: 0x0, symName: __ZN4pyo35impl_5panic9PanicTrap6disarm17h5d74c331982290cfE, symObjAddr: 0x18, symBinAddr: 0xBA3C, symSize: 0x28 }
  - { offset: 0x2A023, size: 0x8, addend: 0x0, symName: __ZN4core5slice6memchr6memchr17h09dc60e332ebac0fE, symObjAddr: 0x0, symBinAddr: 0xBA64, symSize: 0x114 }
  - { offset: 0x2A074, size: 0x8, addend: 0x0, symName: __ZN4core5slice6memchr6memchr17h09dc60e332ebac0fE, symObjAddr: 0x0, symBinAddr: 0xBA64, symSize: 0x114 }
  - { offset: 0x2A1A2, size: 0x8, addend: 0x0, symName: '__ZN4pyo35impl_4wrap62IntoPyObjectConverter$LT$core..result..Result$LT$T$C$E$GT$$GT$12map_into_ptr17haac6ac6f2ff0f803E', symObjAddr: 0x0, symBinAddr: 0xBB78, symSize: 0x54 }
  - { offset: 0x2A3F7, size: 0x8, addend: 0x0, symName: '__ZN4pyo35impl_4wrap62IntoPyObjectConverter$LT$core..result..Result$LT$T$C$E$GT$$GT$12map_into_ptr28_$u7b$$u7b$closure$u7d$$u7d$17h7b56173cfefac7c3E', symObjAddr: 0xA8, symBinAddr: 0xBC20, symSize: 0x34 }
  - { offset: 0x2A44F, size: 0x8, addend: 0x0, symName: '__ZN4pyo35impl_4wrap62IntoPyObjectConverter$LT$core..result..Result$LT$T$C$E$GT$$GT$12map_into_ptr28_$u7b$$u7b$closure$u7d$$u7d$17h86bfab3e62754829E', symObjAddr: 0xDC, symBinAddr: 0xBC54, symSize: 0x30 }
  - { offset: 0x2A4CE, size: 0x8, addend: 0x0, symName: __ZN4pyo35impl_4wrap9converter17hc5cfa8599acf58a4E, symObjAddr: 0x174, symBinAddr: 0xBCEC, symSize: 0x10 }
  - { offset: 0x2A4FB, size: 0x8, addend: 0x0, symName: __ZN4pyo35impl_4wrap9converter17hfc509b9e6aa20204E, symObjAddr: 0x184, symBinAddr: 0xBCFC, symSize: 0x10 }
  - { offset: 0x2A52D, size: 0x8, addend: 0x0, symName: '__ZN81_$LT$pyo3..impl_..wrap..Converter$LT$T$GT$$u20$as$u20$core..ops..deref..Deref$GT$5deref17h614932786a88a21eE', symObjAddr: 0x194, symBinAddr: 0xBD0C, symSize: 0x14 }
  - { offset: 0x2A562, size: 0x8, addend: 0x0, symName: '__ZN81_$LT$pyo3..impl_..wrap..Converter$LT$T$GT$$u20$as$u20$core..ops..deref..Deref$GT$5deref17hdf6699f370a90d0fE', symObjAddr: 0x1A8, symBinAddr: 0xBD20, symSize: 0x14 }
  - { offset: 0x2A59D, size: 0x8, addend: 0x0, symName: '__ZN91_$LT$pyo3..impl_..wrap..EmptyTupleConverter$LT$T$GT$$u20$as$u20$core..ops..deref..Deref$GT$5deref17h394b0653a59e60dbE', symObjAddr: 0x1BC, symBinAddr: 0xBD34, symSize: 0x14 }
  - { offset: 0x2A5D2, size: 0x8, addend: 0x0, symName: '__ZN91_$LT$pyo3..impl_..wrap..EmptyTupleConverter$LT$T$GT$$u20$as$u20$core..ops..deref..Deref$GT$5deref17h74c81049ca8d4d42E', symObjAddr: 0x1D0, symBinAddr: 0xBD48, symSize: 0x14 }
  - { offset: 0x2B0E8, size: 0x8, addend: 0x0, symName: '__ZN4pyo35impl_4wrap62IntoPyObjectConverter$LT$core..result..Result$LT$T$C$E$GT$$GT$12map_into_ptr17haac6ac6f2ff0f803E', symObjAddr: 0x0, symBinAddr: 0xBB78, symSize: 0x54 }
  - { offset: 0x2B237, size: 0x8, addend: 0x0, symName: '__ZN4pyo35impl_4wrap62IntoPyObjectConverter$LT$core..result..Result$LT$T$C$E$GT$$GT$12map_into_ptr17hcb45260e27baeb31E', symObjAddr: 0x54, symBinAddr: 0xBBCC, symSize: 0x54 }
  - { offset: 0x2B295, size: 0x8, addend: 0x0, symName: '__ZN4pyo35impl_4wrap62IntoPyObjectConverter$LT$core..result..Result$LT$T$C$E$GT$$GT$4wrap17h0a44fcba4f6439c7E', symObjAddr: 0x10C, symBinAddr: 0xBC84, symSize: 0x34 }
  - { offset: 0x2B2D8, size: 0x8, addend: 0x0, symName: '__ZN4pyo35impl_4wrap62IntoPyObjectConverter$LT$core..result..Result$LT$T$C$E$GT$$GT$4wrap17h44af03687544a2e5E', symObjAddr: 0x140, symBinAddr: 0xBCB8, symSize: 0x34 }
  - { offset: 0x2B394, size: 0x8, addend: 0x0, symName: '__ZN4core3ptr9const_ptr33_$LT$impl$u20$$BP$const$u20$T$GT$20offset_from_unsigned18precondition_check17h527e4f6020c8ae5fE', symObjAddr: 0x0, symBinAddr: 0xBD5C, symSize: 0x60 }
  - { offset: 0x2B3BA, size: 0x8, addend: 0x0, symName: '__ZN4core3ptr9const_ptr33_$LT$impl$u20$$BP$const$u20$T$GT$20offset_from_unsigned18precondition_check17h527e4f6020c8ae5fE', symObjAddr: 0x0, symBinAddr: 0xBD5C, symSize: 0x60 }
  - { offset: 0x2B4A3, size: 0x8, addend: 0x0, symName: '__ZN4core3ptr9const_ptr33_$LT$impl$u20$$BP$const$u20$T$GT$6offset18precondition_check17h7118ebe64f5359efE', symObjAddr: 0x60, symBinAddr: 0xBDBC, symSize: 0xC4 }
  - { offset: 0x2B88A, size: 0x8, addend: 0x0, symName: '__ZN71_$LT$core..hash..sip..Hasher$LT$S$GT$$u20$as$u20$core..hash..Hasher$GT$9write_str17h73a507af59bd432fE', symObjAddr: 0x0, symBinAddr: 0xBE80, symSize: 0x5C }
  - { offset: 0x2B988, size: 0x8, addend: 0x0, symName: '__ZN71_$LT$core..hash..sip..Hasher$LT$S$GT$$u20$as$u20$core..hash..Hasher$GT$9write_str17h73a507af59bd432fE', symObjAddr: 0x0, symBinAddr: 0xBE80, symSize: 0x5C }
  - { offset: 0x2BA6B, size: 0x8, addend: 0x0, symName: __ZN3std5panic12catch_unwind17h1d4b09a43c69f518E, symObjAddr: 0x0, symBinAddr: 0xBEDC, symSize: 0x10C }
  - { offset: 0x2C735, size: 0x8, addend: 0x0, symName: __ZN3std5panic12catch_unwind17h1d4b09a43c69f518E, symObjAddr: 0x0, symBinAddr: 0xBEDC, symSize: 0x10C }
  - { offset: 0x2C891, size: 0x8, addend: 0x0, symName: __ZN3std5panic12catch_unwind17hca7150c95ccb25dfE, symObjAddr: 0x10C, symBinAddr: 0xBFE8, symSize: 0xD4 }
  - { offset: 0x2CC15, size: 0x8, addend: 0x0, symName: '__ZN81_$LT$core..str..iter..Chars$u20$as$u20$core..iter..traits..iterator..Iterator$GT$4next17h49d5aca730aecc63E', symObjAddr: 0x0, symBinAddr: 0xC110, symSize: 0x80 }
  - { offset: 0x2CD61, size: 0x8, addend: 0x0, symName: '__ZN81_$LT$core..str..iter..Chars$u20$as$u20$core..iter..traits..iterator..Iterator$GT$4next17h49d5aca730aecc63E', symObjAddr: 0x0, symBinAddr: 0xC110, symSize: 0x80 }
  - { offset: 0x2CF8D, size: 0x8, addend: 0x0, symName: __ZN4core4iter6traits8iterator8Iterator6copied17h5d77b3d9060990b4E, symObjAddr: 0x0, symBinAddr: 0xC190, symSize: 0x1C }
  - { offset: 0x2D038, size: 0x8, addend: 0x0, symName: __ZN4core4iter6traits8iterator8Iterator6copied17h5d77b3d9060990b4E, symObjAddr: 0x0, symBinAddr: 0xC190, symSize: 0x1C }
  - { offset: 0x2D078, size: 0x8, addend: 0x0, symName: __ZN4core4iter6traits8iterator8Iterator6copied17hc775fb9cfeaab6bcE, symObjAddr: 0x1C, symBinAddr: 0xC1AC, symSize: 0x1C }
  - { offset: 0x2D0B8, size: 0x8, addend: 0x0, symName: __ZN4core4iter6traits8iterator8Iterator8try_fold17h3d837bb2344495f6E, symObjAddr: 0x38, symBinAddr: 0xC1C8, symSize: 0x12C }
  - { offset: 0x2D16A, size: 0x8, addend: 0x0, symName: __ZN4core4iter6traits8iterator8Iterator8try_fold17hf7d0c87574168bd8E, symObjAddr: 0x164, symBinAddr: 0xC2F4, symSize: 0x194 }
  - { offset: 0x2D21D, size: 0x8, addend: 0x0, symName: __ZN4core4iter6traits8iterator8Iterator9enumerate17h22850129fd13260fE, symObjAddr: 0x2F8, symBinAddr: 0xC488, symSize: 0x28 }
  - { offset: 0x2D269, size: 0x8, addend: 0x0, symName: __ZN4core4iter6traits8iterator8Iterator9enumerate17h2d256c9eb1f6c26aE, symObjAddr: 0x320, symBinAddr: 0xC4B0, symSize: 0x28 }
  - { offset: 0x2D2B5, size: 0x8, addend: 0x0, symName: __ZN4core4iter6traits8iterator8Iterator9enumerate17h73a88450e4376e3cE, symObjAddr: 0x348, symBinAddr: 0xC4D8, symSize: 0x18 }
  - { offset: 0x2D2E6, size: 0x8, addend: 0x0, symName: __ZN4core4iter6traits8iterator8Iterator9enumerate17h73a88450e4376e3cE, symObjAddr: 0x348, symBinAddr: 0xC4D8, symSize: 0x18 }
  - { offset: 0x2D679, size: 0x8, addend: 0x0, symName: '__ZN91_$LT$core..slice..iter..Iter$LT$T$GT$$u20$as$u20$core..iter..traits..iterator..Iterator$GT$4fold17h8ad2698bb1af4be2E', symObjAddr: 0x400, symBinAddr: 0xC590, symSize: 0x1A0 }
  - { offset: 0x2D879, size: 0x8, addend: 0x0, symName: '__ZN91_$LT$core..slice..iter..Iter$LT$T$GT$$u20$as$u20$core..iter..traits..iterator..Iterator$GT$4next17hbcfada783849badaE', symObjAddr: 0x5A0, symBinAddr: 0xC730, symSize: 0x84 }
  - { offset: 0x2D92F, size: 0x8, addend: 0x0, symName: '__ZN91_$LT$core..slice..iter..Iter$LT$T$GT$$u20$as$u20$core..iter..traits..iterator..Iterator$GT$4next17hf19267d35acd7750E', symObjAddr: 0x624, symBinAddr: 0xC7B4, symSize: 0x84 }
  - { offset: 0x2DA34, size: 0x8, addend: 0x0, symName: '__ZN91_$LT$core..slice..iter..Iter$LT$T$GT$$u20$as$u20$core..iter..traits..iterator..Iterator$GT$8position17h5a6e363da60064cfE', symObjAddr: 0x6A8, symBinAddr: 0xC838, symSize: 0x1D0 }
  - { offset: 0x2DC91, size: 0x8, addend: 0x0, symName: '__ZN91_$LT$core..slice..iter..Iter$LT$T$GT$$u20$as$u20$core..iter..traits..iterator..Iterator$GT$8position17h666eae644198e79cE', symObjAddr: 0x878, symBinAddr: 0xCA08, symSize: 0x1D0 }
  - { offset: 0x2DF11, size: 0x8, addend: 0x0, symName: '__ZN93_$LT$core..slice..iter..Chunks$LT$T$GT$$u20$as$u20$core..iter..traits..iterator..Iterator$GT$4next17h7e2c31742f8b088fE', symObjAddr: 0xA48, symBinAddr: 0xCBD8, symSize: 0xD8 }
  - { offset: 0x2F939, size: 0x8, addend: 0x0, symName: '__ZN4core5slice4iter13Iter$LT$T$GT$3new17hbc737c5925bbb464E', symObjAddr: 0x360, symBinAddr: 0xC4F0, symSize: 0x50 }
  - { offset: 0x2FAE9, size: 0x8, addend: 0x0, symName: '__ZN4core5slice4iter13Iter$LT$T$GT$3new17hd9ad377bfdc09903E', symObjAddr: 0x3B0, symBinAddr: 0xC540, symSize: 0x50 }
  - { offset: 0x300CF, size: 0x8, addend: 0x0, symName: '__ZN121_$LT$hashbrown..map..HashMap$LT$K$C$V$C$S$C$A$GT$$u20$as$u20$core..iter..traits..collect..Extend$LT$$LP$K$C$V$RP$$GT$$GT$6extend17h3e01dc421def3c6fE', symObjAddr: 0x0, symBinAddr: 0xCCB0, symSize: 0x104 }
  - { offset: 0x305F5, size: 0x8, addend: 0x0, symName: '__ZN121_$LT$hashbrown..map..HashMap$LT$K$C$V$C$S$C$A$GT$$u20$as$u20$core..iter..traits..collect..Extend$LT$$LP$K$C$V$RP$$GT$$GT$6extend17h3e01dc421def3c6fE', symObjAddr: 0x0, symBinAddr: 0xCCB0, symSize: 0x104 }
  - { offset: 0x306FE, size: 0x8, addend: 0x0, symName: '__ZN121_$LT$hashbrown..map..HashMap$LT$K$C$V$C$S$C$A$GT$$u20$as$u20$core..iter..traits..collect..Extend$LT$$LP$K$C$V$RP$$GT$$GT$6extend17hcca3be0f4e529759E', symObjAddr: 0x104, symBinAddr: 0xCDB4, symSize: 0x104 }
  - { offset: 0x3080F, size: 0x8, addend: 0x0, symName: '__ZN121_$LT$hashbrown..map..HashMap$LT$K$C$V$C$S$C$A$GT$$u20$as$u20$core..iter..traits..collect..Extend$LT$$LP$K$C$V$RP$$GT$$GT$6extend28_$u7b$$u7b$closure$u7d$$u7d$17h37f81c3e8dd14836E', symObjAddr: 0x208, symBinAddr: 0xCEB8, symSize: 0x40 }
  - { offset: 0x308A1, size: 0x8, addend: 0x0, symName: '__ZN121_$LT$hashbrown..map..HashMap$LT$K$C$V$C$S$C$A$GT$$u20$as$u20$core..iter..traits..collect..Extend$LT$$LP$K$C$V$RP$$GT$$GT$6extend28_$u7b$$u7b$closure$u7d$$u7d$17hd6b70c847f0dd689E', symObjAddr: 0x248, symBinAddr: 0xCEF8, symSize: 0x40 }
  - { offset: 0x3093A, size: 0x8, addend: 0x0, symName: '__ZN92_$LT$hashbrown..map..Iter$LT$K$C$V$GT$$u20$as$u20$core..iter..traits..iterator..Iterator$GT$4next17h2f0156af5193a513E', symObjAddr: 0x288, symBinAddr: 0xCF38, symSize: 0xF0 }
  - { offset: 0x30A94, size: 0x8, addend: 0x0, symName: '__ZN9hashbrown3map11make_hasher28_$u7b$$u7b$closure$u7d$$u7d$17h5d4acc0a3221eb64E', symObjAddr: 0x378, symBinAddr: 0xD028, symSize: 0x3C }
  - { offset: 0x30B16, size: 0x8, addend: 0x0, symName: '__ZN9hashbrown3map14equivalent_key28_$u7b$$u7b$closure$u7d$$u7d$17hae53dd6ee776e4a7E', symObjAddr: 0x3B4, symBinAddr: 0xD064, symSize: 0x30 }
  - { offset: 0x32052, size: 0x8, addend: 0x0, symName: '__ZN9hashbrown3map28HashMap$LT$K$C$V$C$S$C$A$GT$12contains_key17hcd74eadf37faf06eE', symObjAddr: 0x3E4, symBinAddr: 0xD094, symSize: 0x10C }
  - { offset: 0x32383, size: 0x8, addend: 0x0, symName: '__ZN9hashbrown3map28HashMap$LT$K$C$V$C$S$C$A$GT$4iter17h6bdfc531318d8891E', symObjAddr: 0x4F0, symBinAddr: 0xD1A0, symSize: 0xA8 }
  - { offset: 0x3263C, size: 0x8, addend: 0x0, symName: '__ZN9hashbrown3map28HashMap$LT$K$C$V$C$S$C$A$GT$6insert17h8f3dfaa020e371fbE', symObjAddr: 0x598, symBinAddr: 0xD248, symSize: 0x190 }
  - { offset: 0x32AF6, size: 0x8, addend: 0x0, symName: '__ZN10serde_json3map59Map$LT$alloc..string..String$C$serde_json..value..Value$GT$3len17h1c2f979dc368a4ceE', symObjAddr: 0x0, symBinAddr: 0xD3D8, symSize: 0x24 }
  - { offset: 0x32BBE, size: 0x8, addend: 0x0, symName: '__ZN115_$LT$serde_json..map..Map$LT$alloc..string..String$C$serde_json..value..Value$GT$$u20$as$u20$core..clone..Clone$GT$5clone17h10503d23b20875ccE', symObjAddr: 0x118, symBinAddr: 0xD4F0, symSize: 0x40 }
  - { offset: 0x32BF2, size: 0x8, addend: 0x0, symName: '__ZN117_$LT$serde_json..map..Map$LT$alloc..string..String$C$serde_json..value..Value$GT$$u20$as$u20$core..cmp..PartialEq$GT$2eq17h41d46a647e956cabE', symObjAddr: 0x158, symBinAddr: 0xD530, symSize: 0x2C }
  - { offset: 0x32C35, size: 0x8, addend: 0x0, symName: '__ZN142_$LT$$RF$serde_json..map..Map$LT$alloc..string..String$C$serde_json..value..Value$GT$$u20$as$u20$core..iter..traits..collect..IntoIterator$GT$9into_iter17h59dc664caa33b066E', symObjAddr: 0x184, symBinAddr: 0xD55C, symSize: 0x44 }
  - { offset: 0x32C69, size: 0x8, addend: 0x0, symName: '__ZN80_$LT$serde_json..map..Iter$u20$as$u20$core..iter..traits..iterator..Iterator$GT$4next17h02e7854c77740ebcE', symObjAddr: 0x1C8, symBinAddr: 0xD5A0, symSize: 0x24 }
  - { offset: 0x32C9D, size: 0x8, addend: 0x0, symName: '__ZN80_$LT$serde_json..map..Keys$u20$as$u20$core..iter..traits..iterator..Iterator$GT$4next17h6c07bb3dac4104eeE', symObjAddr: 0x1EC, symBinAddr: 0xD5C4, symSize: 0x24 }
  - { offset: 0x32CCB, size: 0x8, addend: 0x0, symName: '__ZN80_$LT$serde_json..map..Keys$u20$as$u20$core..iter..traits..iterator..Iterator$GT$9size_hint17h0d6d52d67565fec1E', symObjAddr: 0x210, symBinAddr: 0xD5E8, symSize: 0x24 }
  - { offset: 0x33A2D, size: 0x8, addend: 0x0, symName: '__ZN10serde_json3map59Map$LT$alloc..string..String$C$serde_json..value..Value$GT$3len17h1c2f979dc368a4ceE', symObjAddr: 0x0, symBinAddr: 0xD3D8, symSize: 0x24 }
  - { offset: 0x33A50, size: 0x8, addend: 0x0, symName: '__ZN10serde_json3map59Map$LT$alloc..string..String$C$serde_json..value..Value$GT$3new17haf9aaca4a0bcaadcE', symObjAddr: 0x24, symBinAddr: 0xD3FC, symSize: 0x38 }
  - { offset: 0x33AAC, size: 0x8, addend: 0x0, symName: '__ZN10serde_json3map59Map$LT$alloc..string..String$C$serde_json..value..Value$GT$4keys17ha31851702b3c9d18E', symObjAddr: 0x5C, symBinAddr: 0xD434, symSize: 0x44 }
  - { offset: 0x33ADC, size: 0x8, addend: 0x0, symName: '__ZN10serde_json3map59Map$LT$alloc..string..String$C$serde_json..value..Value$GT$6insert17h2262c8a812d6bcc1E', symObjAddr: 0xA0, symBinAddr: 0xD478, symSize: 0x54 }
  - { offset: 0x33B1C, size: 0x8, addend: 0x0, symName: '__ZN10serde_json3map59Map$LT$alloc..string..String$C$serde_json..value..Value$GT$8is_empty17h833b16d9bb5abaccE', symObjAddr: 0xF4, symBinAddr: 0xD4CC, symSize: 0x24 }
  - { offset: 0x33BDA, size: 0x8, addend: 0x0, symName: __ZN4pyo33err5PyErr3new17h2b602ff180ba47acE, symObjAddr: 0x0, symBinAddr: 0xD60C, symSize: 0xA0 }
  - { offset: 0x33C1C, size: 0x8, addend: 0x0, symName: '__ZN4pyo33err5PyErr3new28_$u7b$$u7b$closure$u7d$$u7d$17h80dac8c4f4fa3f7fE', symObjAddr: 0xA0, symBinAddr: 0xD6AC, symSize: 0xD4 }
  - { offset: 0x345E8, size: 0x8, addend: 0x0, symName: __ZN4pyo33err5PyErr3new17h2b602ff180ba47acE, symObjAddr: 0x0, symBinAddr: 0xD60C, symSize: 0xA0 }
  - { offset: 0x34690, size: 0x8, addend: 0x0, symName: '__ZN102_$LT$core..iter..adapters..zip..Zip$LT$A$C$B$GT$$u20$as$u20$core..iter..traits..iterator..Iterator$GT$4next17h8235b1e240ba3f3bE', symObjAddr: 0x0, symBinAddr: 0xD780, symSize: 0x24 }
  - { offset: 0x3473B, size: 0x8, addend: 0x0, symName: '__ZN102_$LT$core..iter..adapters..zip..Zip$LT$A$C$B$GT$$u20$as$u20$core..iter..traits..iterator..Iterator$GT$4next17h8235b1e240ba3f3bE', symObjAddr: 0x0, symBinAddr: 0xD780, symSize: 0x24 }
  - { offset: 0x34779, size: 0x8, addend: 0x0, symName: '__ZN102_$LT$core..iter..adapters..zip..Zip$LT$A$C$B$GT$$u20$as$u20$core..iter..traits..iterator..Iterator$GT$4next17hf2f4872bfd2b0618E', symObjAddr: 0x24, symBinAddr: 0xD7A4, symSize: 0x24 }
  - { offset: 0x347BD, size: 0x8, addend: 0x0, symName: '__ZN111_$LT$core..iter..adapters..zip..Zip$LT$A$C$B$GT$$u20$as$u20$core..iter..adapters..zip..ZipImpl$LT$A$C$B$GT$$GT$3new17h4e0f58cbe34a6fd6E', symObjAddr: 0x48, symBinAddr: 0xD7C8, symSize: 0x64 }
  - { offset: 0x3480B, size: 0x8, addend: 0x0, symName: '__ZN111_$LT$core..iter..adapters..zip..Zip$LT$A$C$B$GT$$u20$as$u20$core..iter..adapters..zip..ZipImpl$LT$A$C$B$GT$$GT$3new17he8a2b8d5a41d1159E', symObjAddr: 0xAC, symBinAddr: 0xD82C, symSize: 0x3C }
  - { offset: 0x34857, size: 0x8, addend: 0x0, symName: '__ZN111_$LT$core..iter..adapters..zip..Zip$LT$A$C$B$GT$$u20$as$u20$core..iter..adapters..zip..ZipImpl$LT$A$C$B$GT$$GT$4next17h22f27397fff3517bE', symObjAddr: 0xE8, symBinAddr: 0xD868, symSize: 0x14C }
  - { offset: 0x349BE, size: 0x8, addend: 0x0, symName: '__ZN111_$LT$core..iter..adapters..zip..Zip$LT$A$C$B$GT$$u20$as$u20$core..iter..adapters..zip..ZipImpl$LT$A$C$B$GT$$GT$4next17hf32929b90b5145eeE', symObjAddr: 0x234, symBinAddr: 0xD9B4, symSize: 0xE0 }
  - { offset: 0x34C36, size: 0x8, addend: 0x0, symName: __ZN4core4iter6traits8iterator8Iterator8try_fold17hb9688ab35b66bf9dE, symObjAddr: 0x314, symBinAddr: 0xDA94, symSize: 0x150 }
  - { offset: 0x34D14, size: 0x8, addend: 0x0, symName: '__ZN63_$LT$I$u20$as$u20$core..iter..traits..collect..IntoIterator$GT$9into_iter17h0c0ed86cbfc7ff0cE', symObjAddr: 0x464, symBinAddr: 0xDBE4, symSize: 0x30 }
  - { offset: 0x34D4C, size: 0x8, addend: 0x0, symName: '__ZN63_$LT$I$u20$as$u20$core..iter..traits..collect..IntoIterator$GT$9into_iter17h7ca8d2dd5a9c60e9E', symObjAddr: 0x494, symBinAddr: 0xDC14, symSize: 0x30 }
  - { offset: 0x363AD, size: 0x8, addend: 0x0, symName: __ZN4pyo33err5PyErr10from_state17h24f09803c1b03de8E, symObjAddr: 0x0, symBinAddr: 0xDC44, symSize: 0x30 }
  - { offset: 0x36A4F, size: 0x8, addend: 0x0, symName: __ZN4pyo33err5PyErr10from_state17h24f09803c1b03de8E, symObjAddr: 0x0, symBinAddr: 0xDC44, symSize: 0x30 }
  - { offset: 0x36A91, size: 0x8, addend: 0x0, symName: '__ZN4pyo311conversions3std6string86_$LT$impl$u20$pyo3..conversion..IntoPyObject$u20$for$u20$$RF$alloc..string..String$GT$13into_pyobject17h0008f29910c860f1E', symObjAddr: 0x0, symBinAddr: 0xDC74, symSize: 0x28 }
  - { offset: 0x371F0, size: 0x8, addend: 0x0, symName: '__ZN4pyo311conversions3std6string86_$LT$impl$u20$pyo3..conversion..IntoPyObject$u20$for$u20$$RF$alloc..string..String$GT$13into_pyobject17h0008f29910c860f1E', symObjAddr: 0x0, symBinAddr: 0xDC74, symSize: 0x28 }
  - { offset: 0x374D0, size: 0x8, addend: 0x0, symName: '__ZN51_$LT$str$u20$as$u20$alloc..string..SpecToString$GT$14spec_to_string17hae0724574764bf1eE', symObjAddr: 0x28, symBinAddr: 0xDC9C, symSize: 0x50 }
  - { offset: 0x375F9, size: 0x8, addend: 0x0, symName: '__ZN58_$LT$alloc..string..String$u20$as$u20$core..fmt..Write$GT$10write_char17hcd52ff06e9fae664E', symObjAddr: 0x78, symBinAddr: 0xDCEC, symSize: 0x30 }
  - { offset: 0x37636, size: 0x8, addend: 0x0, symName: '__ZN58_$LT$alloc..string..String$u20$as$u20$core..fmt..Write$GT$9write_str17h36db4bbcea4c91acE', symObjAddr: 0xA8, symBinAddr: 0xDD1C, symSize: 0x38 }
  - { offset: 0x37679, size: 0x8, addend: 0x0, symName: '__ZN62_$LT$alloc..string..String$u20$as$u20$core..cmp..PartialEq$GT$2eq17h3db40749591960a6E', symObjAddr: 0x370, symBinAddr: 0xDFE4, symSize: 0x2C }
  - { offset: 0x376BC, size: 0x8, addend: 0x0, symName: '__ZN63_$LT$alloc..string..String$u20$as$u20$core..cmp..PartialOrd$GT$11partial_cmp17hb5533c6f85b4588aE', symObjAddr: 0x39C, symBinAddr: 0xE010, symSize: 0x2C }
  - { offset: 0x376FF, size: 0x8, addend: 0x0, symName: '__ZN65_$LT$alloc..string..String$u20$as$u20$core..ops..deref..Deref$GT$5deref17hbb841650a711f7f9E', symObjAddr: 0x3C8, symBinAddr: 0xE03C, symSize: 0x20 }
  - { offset: 0x37B75, size: 0x8, addend: 0x0, symName: __ZN5alloc6string6String19from_utf8_unchecked17hb70dc09797ddeb02E, symObjAddr: 0xE0, symBinAddr: 0xDD54, symSize: 0x18 }
  - { offset: 0x37BCB, size: 0x8, addend: 0x0, symName: __ZN5alloc6string6String3len17h108a671acebd6710E, symObjAddr: 0xF8, symBinAddr: 0xDD6C, symSize: 0x18 }
  - { offset: 0x37C13, size: 0x8, addend: 0x0, symName: __ZN5alloc6string6String3new17h26f9312fa5590e92E, symObjAddr: 0x110, symBinAddr: 0xDD84, symSize: 0x30 }
  - { offset: 0x37DF3, size: 0x8, addend: 0x0, symName: __ZN5alloc6string6String4push17h9fc197d78aedab8cE, symObjAddr: 0x140, symBinAddr: 0xDDB4, symSize: 0x114 }
  - { offset: 0x3808C, size: 0x8, addend: 0x0, symName: __ZN5alloc6string6String6as_str17hed10777f6c68d31aE, symObjAddr: 0x254, symBinAddr: 0xDEC8, symSize: 0x20 }
  - { offset: 0x3814F, size: 0x8, addend: 0x0, symName: __ZN5alloc6string6String8is_empty17h2485c15329503570E, symObjAddr: 0x274, symBinAddr: 0xDEE8, symSize: 0x20 }
  - { offset: 0x3832B, size: 0x8, addend: 0x0, symName: __ZN5alloc6string6String8push_str17heb8f0c1113a35b9bE, symObjAddr: 0x294, symBinAddr: 0xDF08, symSize: 0xDC }
  - { offset: 0x38781, size: 0x8, addend: 0x0, symName: '__ZN106_$LT$core..ops..range..Range$LT$usize$GT$$u20$as$u20$core..slice..index..SliceIndex$LT$$u5b$T$u5d$$GT$$GT$17get_unchecked_mut18precondition_check17h0f5bf28840e64db9E', symObjAddr: 0x0, symBinAddr: 0xE05C, symSize: 0x80 }
  - { offset: 0x387A7, size: 0x8, addend: 0x0, symName: '__ZN106_$LT$core..ops..range..Range$LT$usize$GT$$u20$as$u20$core..slice..index..SliceIndex$LT$$u5b$T$u5d$$GT$$GT$17get_unchecked_mut18precondition_check17h0f5bf28840e64db9E', symObjAddr: 0x0, symBinAddr: 0xE05C, symSize: 0x80 }
  - { offset: 0x38814, size: 0x8, addend: 0x0, symName: '__ZN75_$LT$usize$u20$as$u20$core..slice..index..SliceIndex$LT$$u5b$T$u5d$$GT$$GT$13get_unchecked18precondition_check17h99b686ba00f3b5f7E', symObjAddr: 0x80, symBinAddr: 0xE0DC, symSize: 0x60 }
  - { offset: 0x3886D, size: 0x8, addend: 0x0, symName: '__ZN75_$LT$usize$u20$as$u20$core..slice..index..SliceIndex$LT$$u5b$T$u5d$$GT$$GT$17get_unchecked_mut18precondition_check17h1c633fa3caa40666E', symObjAddr: 0xE0, symBinAddr: 0xE13C, symSize: 0x60 }
  - { offset: 0x38918, size: 0x8, addend: 0x0, symName: '__ZN4core5slice4sort6stable5merge19MergeState$LT$T$GT$10merge_down17h00970b33ff2c3e32E', symObjAddr: 0x0, symBinAddr: 0xE19C, symSize: 0x1BC }
  - { offset: 0x38C75, size: 0x8, addend: 0x0, symName: __ZN4core5slice4sort6stable5merge5merge17h05690fb2b51e17cfE, symObjAddr: 0x328, symBinAddr: 0xE4C4, symSize: 0x230 }
  - { offset: 0x39162, size: 0x8, addend: 0x0, symName: '__ZN4core5slice4sort6stable5merge19MergeState$LT$T$GT$10merge_down17h00970b33ff2c3e32E', symObjAddr: 0x0, symBinAddr: 0xE19C, symSize: 0x1BC }
  - { offset: 0x392F8, size: 0x8, addend: 0x0, symName: '__ZN4core5slice4sort6stable5merge19MergeState$LT$T$GT$8merge_up17h747e1ec2cbb99642E', symObjAddr: 0x1BC, symBinAddr: 0xE358, symSize: 0x16C }
  - { offset: 0x394C7, size: 0x8, addend: 0x0, symName: '__ZN4pyo35types5float64_$LT$impl$u20$pyo3..conversion..IntoPyObject$u20$for$u20$f64$GT$13into_pyobject17h216436e8faadfb32E', symObjAddr: 0x0, symBinAddr: 0xE6F4, symSize: 0x20 }
  - { offset: 0x3956D, size: 0x8, addend: 0x0, symName: '__ZN4pyo35types5float64_$LT$impl$u20$pyo3..conversion..IntoPyObject$u20$for$u20$f64$GT$13into_pyobject17h216436e8faadfb32E', symObjAddr: 0x0, symBinAddr: 0xE6F4, symSize: 0x20 }
  - { offset: 0x398DD, size: 0x8, addend: 0x0, symName: __ZN9hashbrown3raw13RawTableInner13drop_elements17h0a69e455408960f8E, symObjAddr: 0x0, symBinAddr: 0xE714, symSize: 0x30 }
  - { offset: 0x3990C, size: 0x8, addend: 0x0, symName: '__ZN9hashbrown3raw21RawTable$LT$T$C$A$GT$14reserve_rehash28_$u7b$$u7b$closure$u7d$$u7d$17h87a04ccf6ecb95e8E', symObjAddr: 0xAD0, symBinAddr: 0xEA40, symSize: 0xC0 }
  - { offset: 0x39AF0, size: 0x8, addend: 0x0, symName: '__ZN9hashbrown3raw21RawTable$LT$T$C$A$GT$25find_or_find_insert_index28_$u7b$$u7b$closure$u7d$$u7d$17h96ac1d30dab80f85E', symObjAddr: 0xDE8, symBinAddr: 0xED58, symSize: 0xC4 }
  - { offset: 0x39CE3, size: 0x8, addend: 0x0, symName: '__ZN9hashbrown3raw21RawTable$LT$T$C$A$GT$4find28_$u7b$$u7b$closure$u7d$$u7d$17h758812a8da3a7cd6E', symObjAddr: 0x11C0, symBinAddr: 0xF130, symSize: 0xC4 }
  - { offset: 0x3BF51, size: 0x8, addend: 0x0, symName: __ZN9hashbrown3raw13RawTableInner13drop_elements17h0a69e455408960f8E, symObjAddr: 0x0, symBinAddr: 0xE714, symSize: 0x30 }
  - { offset: 0x3C219, size: 0x8, addend: 0x0, symName: __ZN9hashbrown3raw13RawTableInner16drop_inner_table17he01b22709b2d68b5E, symObjAddr: 0x30, symBinAddr: 0xE744, symSize: 0xB0 }
  - { offset: 0x3C40F, size: 0x8, addend: 0x0, symName: '__ZN9hashbrown3raw21RawIterRange$LT$T$GT$3new17h50ddd4961872a862E', symObjAddr: 0xE0, symBinAddr: 0xE7F4, symSize: 0x98 }
  - { offset: 0x3C6A3, size: 0x8, addend: 0x0, symName: '__ZN9hashbrown3raw21RawIterRange$LT$T$GT$9next_impl17h7a8bcb52358e79eaE', symObjAddr: 0x178, symBinAddr: 0xE88C, symSize: 0x1B4 }
  - { offset: 0x3CE88, size: 0x8, addend: 0x0, symName: '__ZN9hashbrown3raw21RawTable$LT$T$C$A$GT$14reserve_rehash17h9b8efe70b90e38f1E', symObjAddr: 0x32C, symBinAddr: 0x9E210, symSize: 0x7A4 }
  - { offset: 0x3DA52, size: 0x8, addend: 0x0, symName: '__ZN9hashbrown3raw21RawTable$LT$T$C$A$GT$22insert_tagged_at_index17h7fb7a61bc894ce27E', symObjAddr: 0xB90, symBinAddr: 0xEB00, symSize: 0x124 }
  - { offset: 0x3DED0, size: 0x8, addend: 0x0, symName: '__ZN9hashbrown3raw21RawTable$LT$T$C$A$GT$25find_or_find_insert_index17hbfbf2c3d66ef6bf9E', symObjAddr: 0xCB4, symBinAddr: 0xEC24, symSize: 0x134 }
  - { offset: 0x3E4D8, size: 0x8, addend: 0x0, symName: '__ZN9hashbrown3raw21RawTable$LT$T$C$A$GT$4find17ha6508287c80040a7E', symObjAddr: 0xEAC, symBinAddr: 0xEE1C, symSize: 0x314 }
  - { offset: 0x3EAFB, size: 0x8, addend: 0x0, symName: '__ZN9hashbrown3raw21RawTable$LT$T$C$A$GT$7reserve17hd5178ccbc31478c6E', symObjAddr: 0x1284, symBinAddr: 0xF1F4, symSize: 0xB0 }
  - { offset: 0x3EBD3, size: 0x8, addend: 0x0, symName: '__ZN45_$LT$T$u20$as$u20$alloc..string..ToString$GT$9to_string17h72148a2f8d85c825E', symObjAddr: 0x0, symBinAddr: 0xF2A4, symSize: 0x24 }
  - { offset: 0x3EC2F, size: 0x8, addend: 0x0, symName: '__ZN45_$LT$T$u20$as$u20$alloc..string..ToString$GT$9to_string17h72148a2f8d85c825E', symObjAddr: 0x0, symBinAddr: 0xF2A4, symSize: 0x24 }
  - { offset: 0x3EC6C, size: 0x8, addend: 0x0, symName: '__ZN49_$LT$T$u20$as$u20$alloc..string..SpecToString$GT$14spec_to_string17ha842c5ca2d083741E', symObjAddr: 0x24, symBinAddr: 0xF2C8, symSize: 0xF4 }
  - { offset: 0x3F5EC, size: 0x8, addend: 0x0, symName: __ZN4core5slice3raw14from_raw_parts18precondition_check17hcd084c1dcdc3fb2eE, symObjAddr: 0x0, symBinAddr: 0xF3BC, symSize: 0x10C }
  - { offset: 0x3F78B, size: 0x8, addend: 0x0, symName: __ZN4core5slice3raw14from_raw_parts18precondition_check17hcd084c1dcdc3fb2eE, symObjAddr: 0x0, symBinAddr: 0xF3BC, symSize: 0x10C }
  - { offset: 0x3F8A7, size: 0x8, addend: 0x0, symName: __ZN4core5slice3raw18from_raw_parts_mut18precondition_check17hfc79801e0148138aE, symObjAddr: 0x10C, symBinAddr: 0xF4C8, symSize: 0x10C }
  - { offset: 0x3FA3C, size: 0x8, addend: 0x0, symName: __ZN4pyo36marker6Python8get_type17h0d7b844ef7d53d68E, symObjAddr: 0x0, symBinAddr: 0xF5D4, symSize: 0x1C }
  - { offset: 0x3FDCD, size: 0x8, addend: 0x0, symName: __ZN4pyo36marker6Python8get_type17h0d7b844ef7d53d68E, symObjAddr: 0x0, symBinAddr: 0xF5D4, symSize: 0x1C }
  - { offset: 0x3FE05, size: 0x8, addend: 0x0, symName: __ZN4pyo36marker6Python8get_type17h6efc2df77fb131bbE, symObjAddr: 0x1C, symBinAddr: 0xF5F0, symSize: 0x1C }
  - { offset: 0x3FE5B, size: 0x8, addend: 0x0, symName: '__ZN52_$LT$Q$u20$as$u20$hashbrown..Equivalent$LT$K$GT$$GT$10equivalent17h267510b546a85c06E', symObjAddr: 0x0, symBinAddr: 0xF60C, symSize: 0x40 }
  - { offset: 0x3FF1C, size: 0x8, addend: 0x0, symName: '__ZN52_$LT$Q$u20$as$u20$hashbrown..Equivalent$LT$K$GT$$GT$10equivalent17h267510b546a85c06E', symObjAddr: 0x0, symBinAddr: 0xF60C, symSize: 0x40 }
  - { offset: 0x3FF9C, size: 0x8, addend: 0x0, symName: __ZN4pyo311type_object10PyTypeInfo11type_object17h727da313371992e1E, symObjAddr: 0x0, symBinAddr: 0xF64C, symSize: 0x30 }
  - { offset: 0x403DA, size: 0x8, addend: 0x0, symName: __ZN4pyo311type_object10PyTypeInfo11type_object17h727da313371992e1E, symObjAddr: 0x0, symBinAddr: 0xF64C, symSize: 0x30 }
  - { offset: 0x40650, size: 0x8, addend: 0x0, symName: '__ZN7_native13expect_object28_$u7b$$u7b$closure$u7d$$u7d$17h5e5f6a95c373b9afE', symObjAddr: 0x30, symBinAddr: 0xF67C, symSize: 0x28 }
  - { offset: 0x40686, size: 0x8, addend: 0x0, symName: '__ZN7_native13expect_string28_$u7b$$u7b$closure$u7d$$u7d$17h570a8f9b0fbc86d8E', symObjAddr: 0x58, symBinAddr: 0xF6A4, symSize: 0x28 }
  - { offset: 0x406BC, size: 0x8, addend: 0x0, symName: '__ZN7_native13is_hex_of_len28_$u7b$$u7b$closure$u7d$$u7d$17h45fe6e653cc5322bE', symObjAddr: 0x80, symBinAddr: 0xF6CC, symSize: 0x2C }
  - { offset: 0x40702, size: 0x8, addend: 0x0, symName: '__ZN7_native13is_identifier28_$u7b$$u7b$closure$u7d$$u7d$17h23e3e0891328bb70E', symObjAddr: 0xAC, symBinAddr: 0xF6F8, symSize: 0x5C }
  - { offset: 0x40748, size: 0x8, addend: 0x0, symName: '__ZN7_native17ensure_exact_keys28_$u7b$$u7b$closure$u7d$$u7d$17h3a31c12caf74cafaE', symObjAddr: 0x108, symBinAddr: 0xF754, symSize: 0x30 }
  - { offset: 0x4078E, size: 0x8, addend: 0x0, symName: '__ZN7_native20write_canonical_json28_$u7b$$u7b$closure$u7d$$u7d$17h0985d210800ff372E', symObjAddr: 0x138, symBinAddr: 0xF784, symSize: 0x74 }
  - { offset: 0x407C7, size: 0x8, addend: 0x0, symName: '__ZN7_native20write_canonical_json28_$u7b$$u7b$closure$u7d$$u7d$17h43c48267717c69efE', symObjAddr: 0x1AC, symBinAddr: 0xF7F8, symSize: 0x74 }
  - { offset: 0x40814, size: 0x8, addend: 0x0, symName: '__ZN7_native27extract_payload_string_impl28_$u7b$$u7b$closure$u7d$$u7d$17h90ad3676a03cc15bE', symObjAddr: 0x220, symBinAddr: 0xF86C, symSize: 0x4C }
  - { offset: 0x40850, size: 0x8, addend: 0x0, symName: '__ZN7_native27extract_payload_string_impl28_$u7b$$u7b$closure$u7d$$u7d$17hbdf01d5c8aacc279E', symObjAddr: 0x26C, symBinAddr: 0xF8B8, symSize: 0x2C }
  - { offset: 0x40878, size: 0x8, addend: 0x0, symName: '__ZN7_native27extract_payload_string_impl28_$u7b$$u7b$closure$u7d$$u7d$17he809fa2c5e9c2c45E', symObjAddr: 0x298, symBinAddr: 0xF8E4, symSize: 0x2C }
  - { offset: 0x408B9, size: 0x8, addend: 0x0, symName: '__ZN7_native29NativeFastpathValidationError15type_object_raw28_$u7b$$u7b$closure$u7d$$u7d$17hfda2a898ae4eb69eE', symObjAddr: 0x2C4, symBinAddr: 0xF910, symSize: 0xC4 }
  - { offset: 0x4093F, size: 0x8, addend: 0x0, symName: '__ZN7_native29decode_transaction_bytes_impl28_$u7b$$u7b$closure$u7d$$u7d$17h09cf040ffeffc754E', symObjAddr: 0x3BC, symBinAddr: 0xFA08, symSize: 0x34 }
  - { offset: 0x40976, size: 0x8, addend: 0x0, symName: '__ZN7_native29decode_transaction_bytes_impl28_$u7b$$u7b$closure$u7d$$u7d$17h26c05b465e48fb6fE', symObjAddr: 0x3F0, symBinAddr: 0xFA3C, symSize: 0x74 }
  - { offset: 0x409AC, size: 0x8, addend: 0x0, symName: '__ZN7_native29decode_transaction_bytes_impl28_$u7b$$u7b$closure$u7d$$u7d$17h73ca18dc93748be0E', symObjAddr: 0x464, symBinAddr: 0xFAB0, symSize: 0x2C }
  - { offset: 0x409D4, size: 0x8, addend: 0x0, symName: '__ZN7_native29decode_transaction_bytes_impl28_$u7b$$u7b$closure$u7d$$u7d$17hac371192ce4fbc9cE', symObjAddr: 0x490, symBinAddr: 0xFADC, symSize: 0x34 }
  - { offset: 0x40A0B, size: 0x8, addend: 0x0, symName: '__ZN7_native29decode_transaction_bytes_impl28_$u7b$$u7b$closure$u7d$$u7d$17hc37e26a343d086d0E', symObjAddr: 0x4C4, symBinAddr: 0xFB10, symSize: 0x74 }
  - { offset: 0x40A41, size: 0x8, addend: 0x0, symName: '__ZN7_native29decode_transaction_bytes_impl28_$u7b$$u7b$closure$u7d$$u7d$17hf12db407629e3e2fE', symObjAddr: 0x538, symBinAddr: 0xFB84, symSize: 0x34 }
  - { offset: 0x40AA8, size: 0x8, addend: 0x0, symName: '__ZN7_native32validate_transaction_static_impl28_$u7b$$u7b$closure$u7d$$u7d$17h0358b2f2a76405f6E', symObjAddr: 0x56C, symBinAddr: 0xFBB8, symSize: 0x34 }
  - { offset: 0x40ADE, size: 0x8, addend: 0x0, symName: '__ZN7_native32validate_transaction_static_impl28_$u7b$$u7b$closure$u7d$$u7d$17h12bbfdd066698128E', symObjAddr: 0x5A0, symBinAddr: 0xFBEC, symSize: 0x2C }
  - { offset: 0x40B06, size: 0x8, addend: 0x0, symName: '__ZN7_native32validate_transaction_static_impl28_$u7b$$u7b$closure$u7d$$u7d$17h9593f1aeeef04185E', symObjAddr: 0x5CC, symBinAddr: 0xFC18, symSize: 0x2C }
  - { offset: 0x40B2E, size: 0x8, addend: 0x0, symName: '__ZN7_native32validate_transaction_static_impl28_$u7b$$u7b$closure$u7d$$u7d$17hd64bf74e7d533edfE', symObjAddr: 0x5F8, symBinAddr: 0xFC44, symSize: 0x2C }
  - { offset: 0x411B3, size: 0x8, addend: 0x0, symName: __ZN7_native29NativeFastpathValidationError7new_err17h8e995c604f40103eE, symObjAddr: 0x388, symBinAddr: 0xF9D4, symSize: 0x34 }
  - { offset: 0x4167A, size: 0x8, addend: 0x0, symName: __ZN4core3fmt9Arguments17from_str_nonconst17hda46d6e8f602f0b9E, symObjAddr: 0x0, symBinAddr: 0xFC70, symSize: 0x28 }
  - { offset: 0x419C6, size: 0x8, addend: 0x0, symName: __ZN4core3fmt9Arguments17from_str_nonconst17hda46d6e8f602f0b9E, symObjAddr: 0x0, symBinAddr: 0xFC70, symSize: 0x28 }
  - { offset: 0x419E9, size: 0x8, addend: 0x0, symName: __ZN4core3fmt9Arguments8from_str17h811dff734a813919E, symObjAddr: 0x28, symBinAddr: 0xFC98, symSize: 0x20 }
  - { offset: 0x41A2A, size: 0x8, addend: 0x0, symName: __ZN4core5slice4sort6stable14driftsort_main17hb1e21f56a5fe71c1E, symObjAddr: 0x0, symBinAddr: 0xFCB8, symSize: 0x1EC }
  - { offset: 0x41B26, size: 0x8, addend: 0x0, symName: __ZN4core5slice4sort6stable14driftsort_main17hb1e21f56a5fe71c1E, symObjAddr: 0x0, symBinAddr: 0xFCB8, symSize: 0x1EC }
  - { offset: 0x4212D, size: 0x8, addend: 0x0, symName: '__ZN4core5slice4sort6stable27AlignedStorage$LT$T$C$_$GT$19as_uninit_slice_mut17h9ebdbb48082e82bbE', symObjAddr: 0x1EC, symBinAddr: 0xFEA4, symSize: 0x80 }
  - { offset: 0x42257, size: 0x8, addend: 0x0, symName: __ZN4pyo36marker6Python19assume_gil_acquired17h9815bfd8cc376e5bE, symObjAddr: 0x0, symBinAddr: 0xFF24, symSize: 0x4 }
  - { offset: 0x424BA, size: 0x8, addend: 0x0, symName: __ZN4pyo36marker6Python19assume_gil_acquired17h9815bfd8cc376e5bE, symObjAddr: 0x0, symBinAddr: 0xFF24, symSize: 0x4 }
  - { offset: 0x42516, size: 0x8, addend: 0x0, symName: __ZN4pyo36marker6Python4None17hc09202cf941909e6E, symObjAddr: 0x4, symBinAddr: 0xFF28, symSize: 0x28 }
  - { offset: 0x42563, size: 0x8, addend: 0x0, symName: '__ZN4core4hash5impls50_$LT$impl$u20$core..hash..Hash$u20$for$u20$str$GT$4hash17h271c3f09510854dfE', symObjAddr: 0x0, symBinAddr: 0xFF50, symSize: 0x48 }
  - { offset: 0x42584, size: 0x8, addend: 0x0, symName: '__ZN4core4hash5impls50_$LT$impl$u20$core..hash..Hash$u20$for$u20$str$GT$4hash17h271c3f09510854dfE', symObjAddr: 0x0, symBinAddr: 0xFF50, symSize: 0x48 }
  - { offset: 0x425CC, size: 0x8, addend: 0x0, symName: '__ZN4core4hash5impls52_$LT$impl$u20$core..hash..Hash$u20$for$u20$$RF$T$GT$4hash17hdef588abc3e20670E', symObjAddr: 0x48, symBinAddr: 0xFF98, symSize: 0x30 }
  - { offset: 0x42617, size: 0x8, addend: 0x0, symName: '__ZN4core4hash5impls52_$LT$impl$u20$core..hash..Hash$u20$for$u20$$RF$T$GT$4hash17hdf4ddb53a1e59caaE', symObjAddr: 0x78, symBinAddr: 0xFFC8, symSize: 0x3C }
  - { offset: 0x427E8, size: 0x8, addend: 0x0, symName: '__ZN4core3str21_$LT$impl$u20$str$GT$12strip_prefix17h0b777ba153374fd0E', symObjAddr: 0x0, symBinAddr: 0x10004, symSize: 0x4C }
  - { offset: 0x42804, size: 0x8, addend: 0x0, symName: '__ZN4core3str21_$LT$impl$u20$str$GT$12strip_prefix17h0b777ba153374fd0E', symObjAddr: 0x0, symBinAddr: 0x10004, symSize: 0x4C }
  - { offset: 0x4285E, size: 0x8, addend: 0x0, symName: '__ZN4core3str21_$LT$impl$u20$str$GT$4find17h8e40a830175a5d99E', symObjAddr: 0x4C, symBinAddr: 0x10050, symSize: 0xC8 }
  - { offset: 0x428EA, size: 0x8, addend: 0x0, symName: '__ZN4core3str21_$LT$impl$u20$str$GT$4find17hd494d696b1a0abbcE', symObjAddr: 0x114, symBinAddr: 0x10118, symSize: 0xD8 }
  - { offset: 0x42C25, size: 0x8, addend: 0x0, symName: '__ZN108_$LT$alloc..collections..btree..map..Keys$LT$K$C$V$GT$$u20$as$u20$core..iter..traits..iterator..Iterator$GT$4next17h933313b47ad299f4E', symObjAddr: 0x0, symBinAddr: 0x101F0, symSize: 0x64 }
  - { offset: 0x4361C, size: 0x8, addend: 0x0, symName: __ZN4core4iter6traits8iterator8Iterator3zip17h5fb06bd37cbe6b89E, symObjAddr: 0x1AC, symBinAddr: 0x1039C, symSize: 0x98 }
  - { offset: 0x43C64, size: 0x8, addend: 0x0, symName: '__ZN108_$LT$alloc..collections..btree..map..Keys$LT$K$C$V$GT$$u20$as$u20$core..iter..traits..iterator..Iterator$GT$4next17h933313b47ad299f4E', symObjAddr: 0x0, symBinAddr: 0x101F0, symSize: 0x64 }
  - { offset: 0x43CEA, size: 0x8, addend: 0x0, symName: '__ZN108_$LT$alloc..collections..btree..map..Keys$LT$K$C$V$GT$$u20$as$u20$core..iter..traits..iterator..Iterator$GT$9size_hint17h10a7ad470d3a41e6E', symObjAddr: 0x64, symBinAddr: 0x10254, symSize: 0x2C }
  - { offset: 0x43DA2, size: 0x8, addend: 0x0, symName: '__ZN123_$LT$$RF$alloc..collections..btree..map..BTreeMap$LT$K$C$V$C$A$GT$$u20$as$u20$core..iter..traits..collect..IntoIterator$GT$9into_iter17he21430b3e4c0d0d2E', symObjAddr: 0x90, symBinAddr: 0x10280, symSize: 0x11C }
  - { offset: 0x43F28, size: 0x8, addend: 0x0, symName: '__ZN96_$LT$alloc..collections..btree..map..BTreeMap$LT$K$C$V$C$A$GT$$u20$as$u20$core..clone..Clone$GT$5clone13clone_subtree17h4e96b79ce47dd3ecE', symObjAddr: 0x390, symBinAddr: 0x10580, symSize: 0x930 }
  - { offset: 0x4479F, size: 0x8, addend: 0x0, symName: '__ZN96_$LT$alloc..collections..btree..map..BTreeMap$LT$K$C$V$C$A$GT$$u20$as$u20$core..clone..Clone$GT$5clone17hee371721a4dcd912E', symObjAddr: 0xCC0, symBinAddr: 0x10EB0, symSize: 0xDC }
  - { offset: 0x44928, size: 0x8, addend: 0x0, symName: '__ZN98_$LT$alloc..collections..btree..map..BTreeMap$LT$K$C$V$C$A$GT$$u20$as$u20$core..cmp..PartialEq$GT$2eq28_$u7b$$u7b$closure$u7d$$u7d$17h542ce054dbafd16eE', symObjAddr: 0xF34, symBinAddr: 0x11124, symSize: 0x78 }
  - { offset: 0x449E7, size: 0x8, addend: 0x0, symName: '__ZN98_$LT$alloc..collections..btree..map..BTreeMap$LT$K$C$V$C$A$GT$$u20$as$u20$core..cmp..PartialEq$GT$2eq17h567ee39c800a725fE', symObjAddr: 0xD9C, symBinAddr: 0x10F8C, symSize: 0x198 }
  - { offset: 0x45C7C, size: 0x8, addend: 0x0, symName: '__ZN5alloc11collections5btree3map25BTreeMap$LT$K$C$V$C$A$GT$4keys17hc6af4a29cd5dd5b2E', symObjAddr: 0x244, symBinAddr: 0x10434, symSize: 0x12C }
  - { offset: 0x45DA2, size: 0x8, addend: 0x0, symName: '__ZN5alloc11collections5btree3map25BTreeMap$LT$K$C$V$C$A$GT$8is_empty17he37cc3912a6ef3c7E', symObjAddr: 0x370, symBinAddr: 0x10560, symSize: 0x20 }
  - { offset: 0x4684E, size: 0x8, addend: 0x0, symName: __ZN4core3str8converts19from_utf8_unchecked17ha14447fc5f1eb501E, symObjAddr: 0x0, symBinAddr: 0x1119C, symSize: 0x18 }
  - { offset: 0x4686A, size: 0x8, addend: 0x0, symName: __ZN4core3str8converts19from_utf8_unchecked17ha14447fc5f1eb501E, symObjAddr: 0x0, symBinAddr: 0x1119C, symSize: 0x18 }
  - { offset: 0x4690A, size: 0x8, addend: 0x0, symName: '__ZN4pyo35types10boolobject65_$LT$impl$u20$pyo3..conversion..IntoPyObject$u20$for$u20$bool$GT$13into_pyobject17h151875715fdbd53cE', symObjAddr: 0x0, symBinAddr: 0x111B4, symSize: 0x20 }
  - { offset: 0x469B0, size: 0x8, addend: 0x0, symName: '__ZN4pyo35types10boolobject65_$LT$impl$u20$pyo3..conversion..IntoPyObject$u20$for$u20$bool$GT$13into_pyobject17h151875715fdbd53cE', symObjAddr: 0x0, symBinAddr: 0x111B4, symSize: 0x20 }
  - { offset: 0x469FB, size: 0x8, addend: 0x0, symName: '__ZN4pyo35types10boolobject69_$LT$impl$u20$pyo3..conversion..IntoPyObject$u20$for$u20$$RF$bool$GT$13into_pyobject17h21f08e35f0fff5f0E', symObjAddr: 0x20, symBinAddr: 0x111D4, symSize: 0x2C }
  - { offset: 0x46D44, size: 0x8, addend: 0x0, symName: __ZN4pyo35types10boolobject6PyBool3new17h193944da14cf1a23E, symObjAddr: 0x4C, symBinAddr: 0x11200, symSize: 0x50 }
  - { offset: 0x46DAA, size: 0x8, addend: 0x0, symName: '__ZN100_$LT$$RF$mut$u20$serde_json..ser..Serializer$LT$W$C$F$GT$$u20$as$u20$serde_core..ser..Serializer$GT$13serialize_str17hab6286de3ccd91aeE', symObjAddr: 0x0, symBinAddr: 0x11250, symSize: 0x48 }
  - { offset: 0x4702B, size: 0x8, addend: 0x0, symName: '__ZN100_$LT$$RF$mut$u20$serde_json..ser..Serializer$LT$W$C$F$GT$$u20$as$u20$serde_core..ser..Serializer$GT$13serialize_str17hab6286de3ccd91aeE', symObjAddr: 0x0, symBinAddr: 0x11250, symSize: 0x48 }
  - { offset: 0x47078, size: 0x8, addend: 0x0, symName: __ZN10serde_json3ser18format_escaped_str17h5d15b294ce41c701E, symObjAddr: 0x48, symBinAddr: 0x11298, symSize: 0xC8 }
  - { offset: 0x47197, size: 0x8, addend: 0x0, symName: __ZN10serde_json3ser27format_escaped_str_contents17h68aa43f9e00e7d20E, symObjAddr: 0x148, symBinAddr: 0x11398, symSize: 0x390 }
  - { offset: 0x4733C, size: 0x8, addend: 0x0, symName: __ZN10serde_json3ser6to_vec17h3d721462d03ec8b8E, symObjAddr: 0x4D8, symBinAddr: 0x11728, symSize: 0xDC }
  - { offset: 0x473A7, size: 0x8, addend: 0x0, symName: __ZN10serde_json3ser6to_vec17h90d0e7584a6b7988E, symObjAddr: 0x5B4, symBinAddr: 0x11804, symSize: 0xDC }
  - { offset: 0x47417, size: 0x8, addend: 0x0, symName: __ZN10serde_json3ser9Formatter10end_string17h0d7586df05bc4f29E, symObjAddr: 0x690, symBinAddr: 0x118E0, symSize: 0x40 }
  - { offset: 0x47466, size: 0x8, addend: 0x0, symName: __ZN10serde_json3ser9Formatter12begin_string17h5ac0fa6a52d32efbE, symObjAddr: 0x6D0, symBinAddr: 0x11920, symSize: 0x40 }
  - { offset: 0x474B5, size: 0x8, addend: 0x0, symName: __ZN10serde_json3ser9Formatter17write_char_escape17he7ab790d3d74ab3fE, symObjAddr: 0x710, symBinAddr: 0x11960, symSize: 0x254 }
  - { offset: 0x47565, size: 0x8, addend: 0x0, symName: __ZN10serde_json3ser9Formatter21write_string_fragment17h9f68ccdd403ea05dE, symObjAddr: 0x964, symBinAddr: 0x11BB4, symSize: 0x50 }
  - { offset: 0x475C4, size: 0x8, addend: 0x0, symName: __ZN10serde_json3ser9to_string17h388b7b0d9e587985E, symObjAddr: 0x9B4, symBinAddr: 0x11C04, symSize: 0x108 }
  - { offset: 0x4766D, size: 0x8, addend: 0x0, symName: __ZN10serde_json3ser9to_string17hca9929509c8a4dceE, symObjAddr: 0xABC, symBinAddr: 0x11D0C, symSize: 0x108 }
  - { offset: 0x47716, size: 0x8, addend: 0x0, symName: __ZN10serde_json3ser9to_writer17h1feb5462fda4a1dcE, symObjAddr: 0xBC4, symBinAddr: 0x11E14, symSize: 0x64 }
  - { offset: 0x47783, size: 0x8, addend: 0x0, symName: __ZN10serde_json3ser9to_writer17hd3b9c6e84407e602E, symObjAddr: 0xC28, symBinAddr: 0x11E78, symSize: 0x64 }
  - { offset: 0x4804A, size: 0x8, addend: 0x0, symName: '__ZN10serde_json3ser19Serializer$LT$W$GT$3new17hf1dfece56503220bE', symObjAddr: 0x110, symBinAddr: 0x11360, symSize: 0x24 }
  - { offset: 0x48075, size: 0x8, addend: 0x0, symName: '__ZN10serde_json3ser23Serializer$LT$W$C$F$GT$14with_formatter17hacfb62f64945c666E', symObjAddr: 0x134, symBinAddr: 0x11384, symSize: 0x14 }
  - { offset: 0x482B3, size: 0x8, addend: 0x0, symName: '__ZN110_$LT$core..iter..adapters..enumerate..Enumerate$LT$I$GT$$u20$as$u20$core..iter..traits..iterator..Iterator$GT$4next17h7a83438e720f6c33E', symObjAddr: 0x0, symBinAddr: 0x11EDC, symSize: 0xE0 }
  - { offset: 0x48A69, size: 0x8, addend: 0x0, symName: '__ZN110_$LT$core..iter..adapters..enumerate..Enumerate$LT$I$GT$$u20$as$u20$core..iter..traits..iterator..Iterator$GT$4next17h7a83438e720f6c33E', symObjAddr: 0x0, symBinAddr: 0x11EDC, symSize: 0xE0 }
  - { offset: 0x48B4F, size: 0x8, addend: 0x0, symName: '__ZN110_$LT$core..iter..adapters..enumerate..Enumerate$LT$I$GT$$u20$as$u20$core..iter..traits..iterator..Iterator$GT$4next17h80464524b1284b5aE', symObjAddr: 0xE0, symBinAddr: 0x11FBC, symSize: 0xE0 }
  - { offset: 0x48CA8, size: 0x8, addend: 0x0, symName: '__ZN110_$LT$core..iter..adapters..enumerate..Enumerate$LT$I$GT$$u20$as$u20$core..iter..traits..iterator..Iterator$GT$8try_fold9enumerate28_$u7b$$u7b$closure$u7d$$u7d$17h6d00e4519020f2fdE', symObjAddr: 0x20C, symBinAddr: 0x120E8, symSize: 0xD4 }
  - { offset: 0x48D3F, size: 0x8, addend: 0x0, symName: '__ZN110_$LT$core..iter..adapters..enumerate..Enumerate$LT$I$GT$$u20$as$u20$core..iter..traits..iterator..Iterator$GT$8try_fold17hf4d68ee9e8d73dadE', symObjAddr: 0x1C0, symBinAddr: 0x1209C, symSize: 0x4C }
  - { offset: 0x48DD2, size: 0x8, addend: 0x0, symName: '__ZN110_$LT$core..iter..adapters..enumerate..Enumerate$LT$I$GT$$u20$as$u20$core..iter..traits..iterator..Iterator$GT$9size_hint17h86268e8288c2cb0bE', symObjAddr: 0x2E0, symBinAddr: 0x121BC, symSize: 0x24 }
  - { offset: 0x48F69, size: 0x8, addend: 0x0, symName: __ZN4core4iter6traits8iterator8Iterator3map17haf17c5bf6329b2a5E, symObjAddr: 0x304, symBinAddr: 0x121E0, symSize: 0x1C }
  - { offset: 0x48FE2, size: 0x8, addend: 0x0, symName: '__ZN63_$LT$I$u20$as$u20$core..iter..traits..collect..IntoIterator$GT$9into_iter17h1a62c8fb44daacb5E', symObjAddr: 0x320, symBinAddr: 0x121FC, symSize: 0x18 }
  - { offset: 0x49019, size: 0x8, addend: 0x0, symName: '__ZN63_$LT$I$u20$as$u20$core..iter..traits..collect..IntoIterator$GT$9into_iter17h3501fcf2b624ac1fE', symObjAddr: 0x338, symBinAddr: 0x12214, symSize: 0x18 }
  - { offset: 0x49B0F, size: 0x8, addend: 0x0, symName: '__ZN45_$LT$T$u20$as$u20$alloc..string..ToString$GT$9to_string17h34b8a2961b846f10E', symObjAddr: 0x0, symBinAddr: 0x1222C, symSize: 0x24 }
  - { offset: 0x49B5E, size: 0x8, addend: 0x0, symName: '__ZN45_$LT$T$u20$as$u20$alloc..string..ToString$GT$9to_string17h34b8a2961b846f10E', symObjAddr: 0x0, symBinAddr: 0x1222C, symSize: 0x24 }
  - { offset: 0x49B9B, size: 0x8, addend: 0x0, symName: '__ZN49_$LT$T$u20$as$u20$alloc..string..SpecToString$GT$14spec_to_string17he0209ca068d64952E', symObjAddr: 0x24, symBinAddr: 0x12250, symSize: 0xF4 }
  - { offset: 0x49FB2, size: 0x8, addend: 0x0, symName: __ZN9hashbrown7control5group4neon5Group10match_full17hd57ffeba678aa84fE, symObjAddr: 0x0, symBinAddr: 0x12344, symSize: 0x68 }
  - { offset: 0x4A0CA, size: 0x8, addend: 0x0, symName: __ZN9hashbrown7control5group4neon5Group10match_full17hd57ffeba678aa84fE, symObjAddr: 0x0, symBinAddr: 0x12344, symSize: 0x68 }
  - { offset: 0x4A102, size: 0x8, addend: 0x0, symName: __ZN9hashbrown7control5group4neon5Group22match_empty_or_deleted17h2d076f75cd88c0eeE, symObjAddr: 0x68, symBinAddr: 0x123AC, symSize: 0x68 }
  - { offset: 0x4A13A, size: 0x8, addend: 0x0, symName: __ZN9hashbrown7control5group4neon5Group44convert_special_to_empty_and_full_to_deleted17h868b349fd2aafd6bE, symObjAddr: 0xD0, symBinAddr: 0x12414, symSize: 0x88 }
  - { offset: 0x4A172, size: 0x8, addend: 0x0, symName: __ZN9hashbrown7control5group4neon5Group9match_tag17he9ffaab6d8a82ca3E, symObjAddr: 0x158, symBinAddr: 0x1249C, symSize: 0x7C }
  - { offset: 0x4A1DE, size: 0x8, addend: 0x0, symName: __ZN4core4iter6traits8iterator8Iterator3all17hf71418c2b76aa279E, symObjAddr: 0x0, symBinAddr: 0x12518, symSize: 0x3C }
  - { offset: 0x4A204, size: 0x8, addend: 0x0, symName: __ZN4core4iter6traits8iterator8Iterator3all17hf71418c2b76aa279E, symObjAddr: 0x0, symBinAddr: 0x12518, symSize: 0x3C }
  - { offset: 0x4A253, size: 0x8, addend: 0x0, symName: __ZN4core4iter6traits8iterator8Iterator8try_fold17h01762a426b17ab8aE, symObjAddr: 0x3C, symBinAddr: 0x12554, symSize: 0x12C }
  - { offset: 0x4A361, size: 0x8, addend: 0x0, symName: '__ZN81_$LT$core..str..iter..Bytes$u20$as$u20$core..iter..traits..iterator..Iterator$GT$3all17h1e491e2bd64ce93cE', symObjAddr: 0x168, symBinAddr: 0x12680, symSize: 0x24 }
  - { offset: 0x4A5F6, size: 0x8, addend: 0x0, symName: '__ZN105_$LT$hashbrown..set..HashSet$LT$T$C$S$C$A$GT$$u20$as$u20$core..iter..traits..collect..Extend$LT$T$GT$$GT$6extend17h93a204f116a7aafeE', symObjAddr: 0x0, symBinAddr: 0x126A4, symSize: 0x50 }
  - { offset: 0x4A612, size: 0x8, addend: 0x0, symName: '__ZN105_$LT$hashbrown..set..HashSet$LT$T$C$S$C$A$GT$$u20$as$u20$core..iter..traits..collect..Extend$LT$T$GT$$GT$6extend17h93a204f116a7aafeE', symObjAddr: 0x0, symBinAddr: 0x126A4, symSize: 0x50 }
  - { offset: 0x4A670, size: 0x8, addend: 0x0, symName: '__ZN105_$LT$hashbrown..set..HashSet$LT$T$C$S$C$A$GT$$u20$as$u20$core..iter..traits..collect..Extend$LT$T$GT$$GT$6extend17hc0eab50bfba5e947E', symObjAddr: 0x50, symBinAddr: 0x126F4, symSize: 0x5C }
  - { offset: 0x4A6D2, size: 0x8, addend: 0x0, symName: '__ZN105_$LT$hashbrown..set..HashSet$LT$T$C$S$C$A$GT$$u20$as$u20$core..iter..traits..collect..Extend$LT$T$GT$$GT$6extend28_$u7b$$u7b$closure$u7d$$u7d$17h2de21d11da366dc0E', symObjAddr: 0xAC, symBinAddr: 0x12750, symSize: 0x28 }
  - { offset: 0x4A72F, size: 0x8, addend: 0x0, symName: '__ZN105_$LT$hashbrown..set..HashSet$LT$T$C$S$C$A$GT$$u20$as$u20$core..iter..traits..collect..Extend$LT$T$GT$$GT$6extend28_$u7b$$u7b$closure$u7d$$u7d$17haba17575628233dcE', symObjAddr: 0xD4, symBinAddr: 0x12778, symSize: 0x28 }
  - { offset: 0x4B689, size: 0x8, addend: 0x0, symName: __ZN4core4char7methods15encode_utf8_raw17h3e593b38b5d963aaE, symObjAddr: 0x0, symBinAddr: 0x127A0, symSize: 0x100 }
  - { offset: 0x4B6FB, size: 0x8, addend: 0x0, symName: __ZN4core4char7methods15encode_utf8_raw8do_panic7runtime17hccbfec8b223e5edcE, symObjAddr: 0x100, symBinAddr: 0x128A0, symSize: 0xC4 }
  - { offset: 0x4B7F8, size: 0x8, addend: 0x0, symName: __ZN4core4char7methods15encode_utf8_raw17h3e593b38b5d963aaE, symObjAddr: 0x0, symBinAddr: 0x127A0, symSize: 0x100 }
  - { offset: 0x4B919, size: 0x8, addend: 0x0, symName: '__ZN4core4char7methods22_$LT$impl$u20$char$GT$19is_ascii_alphabetic17he100bc6ba352e412E', symObjAddr: 0x1C4, symBinAddr: 0x12964, symSize: 0x9C }
  - { offset: 0x4B947, size: 0x8, addend: 0x0, symName: '__ZN4core4char7methods22_$LT$impl$u20$char$GT$21is_ascii_alphanumeric17h0bf4d8bdfaaa02c8E', symObjAddr: 0x260, symBinAddr: 0x12A00, symSize: 0x10C }
  - { offset: 0x4B994, size: 0x8, addend: 0x0, symName: __ZN4core4char7methods25encode_utf8_raw_unchecked17hdc0eb6ab832f230fE, symObjAddr: 0x36C, symBinAddr: 0x12B0C, symSize: 0x188 }
  - { offset: 0x4C0DB, size: 0x8, addend: 0x0, symName: __ZN7_native10is_escaped17h087f511f7604b292E, symObjAddr: 0x0, symBinAddr: 0x12C94, symSize: 0x158 }
  - { offset: 0x4C104, size: 0x8, addend: 0x0, symName: __ZN7_native29NativeFastpathValidationError15type_object_raw11TYPE_OBJECT17h0f1dcd7ed5bb0d5dE, symObjAddr: 0x5690, symBinAddr: 0xF83F8, symSize: 0x0 }
  - { offset: 0x4C113, size: 0x8, addend: 0x0, symName: __ZN7_native10is_escaped17h087f511f7604b292E, symObjAddr: 0x0, symBinAddr: 0x12C94, symSize: 0x158 }
  - { offset: 0x4C177, size: 0x8, addend: 0x0, symName: __ZN7_native13ensure_truthy17hb239d738da7653f7E, symObjAddr: 0x158, symBinAddr: 0x12DEC, symSize: 0x1DC }
  - { offset: 0x4C29E, size: 0x8, addend: 0x0, symName: __ZN7_native13expect_object17h937ea1ca8ae78112E, symObjAddr: 0x334, symBinAddr: 0x12FC8, symSize: 0x48 }
  - { offset: 0x4C2DB, size: 0x8, addend: 0x0, symName: __ZN7_native13expect_string17h628523a7238ad9a8E, symObjAddr: 0x37C, symBinAddr: 0x13010, symSize: 0x48 }
  - { offset: 0x4C318, size: 0x8, addend: 0x0, symName: __ZN7_native13is_hex_of_len17hc7f373af7f1391cdE, symObjAddr: 0x3C4, symBinAddr: 0x13058, symSize: 0x80 }
  - { offset: 0x4C355, size: 0x8, addend: 0x0, symName: __ZN7_native13is_identifier17hb6069775592b5db9E, symObjAddr: 0x444, symBinAddr: 0x130D8, symSize: 0x94 }
  - { offset: 0x4C3B7, size: 0x8, addend: 0x0, symName: __ZN7_native14canonical_json17h1402bf4641f3f9d8E, symObjAddr: 0x4D8, symBinAddr: 0x1316C, symSize: 0x114 }
  - { offset: 0x4C41B, size: 0x8, addend: 0x0, symName: __ZN7_native16validation_error17h8a0812199e656a2fE, symObjAddr: 0x5EC, symBinAddr: 0x13280, symSize: 0x40 }
  - { offset: 0x4C449, size: 0x8, addend: 0x0, symName: __ZN7_native16verify_signature17hfa92ac3c825efb51E, symObjAddr: 0x62C, symBinAddr: 0x132C0, symSize: 0x3B8 }
  - { offset: 0x4C5CC, size: 0x8, addend: 0x0, symName: __ZN7_native17ensure_exact_keys17h26a3f03a59bc1a2dE, symObjAddr: 0x9E4, symBinAddr: 0x13678, symSize: 0x160 }
  - { offset: 0x4C636, size: 0x8, addend: 0x0, symName: __ZN7_native17value_to_pyobject17h51177b2707893bd9E, symObjAddr: 0xB44, symBinAddr: 0x137D8, symSize: 0x87C }
  - { offset: 0x4C8DC, size: 0x8, addend: 0x0, symName: __ZN7_native20write_canonical_json17he9ad71bbf576a1dfE, symObjAddr: 0x13C0, symBinAddr: 0x14054, symSize: 0x740 }
  - { offset: 0x4CAD5, size: 0x8, addend: 0x0, symName: __ZN7_native21build_signing_payload17hdddeefde59bb6ea4E, symObjAddr: 0x1B00, symBinAddr: 0x14794, symSize: 0x274 }
  - { offset: 0x4CB57, size: 0x8, addend: 0x0, symName: __ZN7_native22extract_payload_string17h114b2f4561631413E, symObjAddr: 0x1D74, symBinAddr: 0x14A08, symSize: 0x28 }
  - { offset: 0x4CB83, size: 0x8, addend: 0x0, symName: __ZN7_native23ensure_non_empty_string17hd433821e4a732c4eE, symObjAddr: 0x1D9C, symBinAddr: 0x14A30, symSize: 0xC8 }
  - { offset: 0x4CBEE, size: 0x8, addend: 0x0, symName: __ZN7_native23is_non_negative_integer17h2c250ea5db41009eE, symObjAddr: 0x1E64, symBinAddr: 0x14AF8, symSize: 0x9C }
  - { offset: 0x4CC1C, size: 0x8, addend: 0x0, symName: __ZN7_native24is_valid_submission_name17h3db16fd0ca07ca35E, symObjAddr: 0x1F00, symBinAddr: 0x14B94, symSize: 0x94 }
  - { offset: 0x4CC68, size: 0x8, addend: 0x0, symName: __ZN7_native26contract_name_is_formatted17h8087a39e06012853E, symObjAddr: 0x1F94, symBinAddr: 0x14C28, symSize: 0x3C }
  - { offset: 0x4CC96, size: 0x8, addend: 0x0, symName: __ZN7_native27extract_payload_string_impl17hd7240da4d18d73e5E, symObjAddr: 0x1FD0, symBinAddr: 0x14C64, symSize: 0x388 }
  - { offset: 0x4CDF7, size: 0x8, addend: 0x0, symName: __ZN7_native29decode_transaction_bytes_impl17h95504cde84aaf54fE, symObjAddr: 0x2384, symBinAddr: 0x15018, symSize: 0x6B0 }
  - { offset: 0x4CFE0, size: 0x8, addend: 0x0, symName: __ZN7_native32validate_transaction_static_impl17h885a118875e7a7daE, symObjAddr: 0x2A34, symBinAddr: 0x156C8, symSize: 0xFE4 }
  - { offset: 0x4D418, size: 0x8, addend: 0x0, symName: __ZN7_native35__pyfunction_extract_payload_string17h2cf3bbeb5c63b664E, symObjAddr: 0x3A18, symBinAddr: 0x166AC, symSize: 0x314 }
  - { offset: 0x4D591, size: 0x8, addend: 0x0, symName: __ZN7_native38decode_and_validate_transaction_static17hf622a857e1dd7fddE, symObjAddr: 0x3D2C, symBinAddr: 0x169C0, symSize: 0x1D4 }
  - { offset: 0x4D66A, size: 0x8, addend: 0x0, symName: '__ZN7_native43_$LT$impl$u20$_native.._native..MakeDef$GT$8make_def15__pyo3_pymodule17h61e9860a0f4443a5E', symObjAddr: 0x3F00, symBinAddr: 0x16B94, symSize: 0x44 }
  - { offset: 0x4D698, size: 0x8, addend: 0x0, symName: __ZN7_native51__pyfunction_decode_and_validate_transaction_static17hae6354a1e8412b7cE, symObjAddr: 0x3F44, symBinAddr: 0x16BD8, symSize: 0x414 }
  - { offset: 0x4D84F, size: 0x8, addend: 0x0, symName: '__ZN7_native58_$LT$impl$u20$_native..extract_payload_string..MakeDef$GT$9_PYO3_DEF10trampoline17h2540d01521835fceE', symObjAddr: 0x4358, symBinAddr: 0x16FEC, symSize: 0x50 }
  - { offset: 0x4D8B1, size: 0x8, addend: 0x0, symName: '__ZN7_native74_$LT$impl$u20$_native..decode_and_validate_transaction_static..MakeDef$GT$9_PYO3_DEF10trampoline17h5b9f5a38d2db0b3eE', symObjAddr: 0x43A8, symBinAddr: 0x1703C, symSize: 0x50 }
  - { offset: 0x4D909, size: 0x8, addend: 0x0, symName: __ZN7_native7_native17hf66473f8bdddbab3E, symObjAddr: 0x43F8, symBinAddr: 0x1708C, symSize: 0x2B8 }
  - { offset: 0x4D9EC, size: 0x8, addend: 0x0, symName: '__ZN88_$LT$_native..NativeFastpathValidationError$u20$as$u20$pyo3..type_object..PyTypeInfo$GT$15type_object_raw17h849239ffd4c18b4eE', symObjAddr: 0x46B0, symBinAddr: 0x17344, symSize: 0x1C }
  - { offset: 0x4F1CB, size: 0x8, addend: 0x0, symName: __ZN7_native29NativeFastpathValidationError15type_object_raw17h0710d0d57d2ae780E, symObjAddr: 0x2358, symBinAddr: 0x14FEC, symSize: 0x2C }
  - { offset: 0x4FE7A, size: 0x8, addend: 0x0, symName: '__ZN4core3cmp5impls69_$LT$impl$u20$core..cmp..PartialEq$LT$$RF$B$GT$$u20$for$u20$$RF$A$GT$2eq17h69779f34644c26c6E', symObjAddr: 0x0, symBinAddr: 0x17360, symSize: 0x34 }
  - { offset: 0x4FE9B, size: 0x8, addend: 0x0, symName: '__ZN4core3cmp5impls69_$LT$impl$u20$core..cmp..PartialEq$LT$$RF$B$GT$$u20$for$u20$$RF$A$GT$2eq17h69779f34644c26c6E', symObjAddr: 0x0, symBinAddr: 0x17360, symSize: 0x34 }
  - { offset: 0x4FF01, size: 0x8, addend: 0x0, symName: __ZN4core4iter6traits8iterator8Iterator3all17h1e04ec2e3bdb13aeE, symObjAddr: 0x34, symBinAddr: 0x17394, symSize: 0x3C }
  - { offset: 0x4FF50, size: 0x8, addend: 0x0, symName: __ZN4core4iter6traits8iterator8Iterator3map17he1d0029cd53889dfE, symObjAddr: 0x70, symBinAddr: 0x173D0, symSize: 0x30 }
  - { offset: 0x4FFBE, size: 0x8, addend: 0x0, symName: __ZN4core4iter6traits8iterator8Iterator4fold17hf824b38f8102ed05E, symObjAddr: 0xA0, symBinAddr: 0x17400, symSize: 0xAC }
  - { offset: 0x5004E, size: 0x8, addend: 0x0, symName: __ZN4core4iter6traits8iterator8Iterator7collect17h42de7a2bf7b65eddE, symObjAddr: 0x14C, symBinAddr: 0x174AC, symSize: 0x14 }
  - { offset: 0x5008F, size: 0x8, addend: 0x0, symName: __ZN4core4iter6traits8iterator8Iterator8try_fold17h5f9ce487b1f03ff1E, symObjAddr: 0x160, symBinAddr: 0x174C0, symSize: 0x12C }
  - { offset: 0x5018B, size: 0x8, addend: 0x0, symName: '__ZN63_$LT$I$u20$as$u20$core..iter..traits..collect..IntoIterator$GT$9into_iter17h1d31c8bb217dee9dE', symObjAddr: 0x28C, symBinAddr: 0x175EC, symSize: 0x30 }
  - { offset: 0x5123A, size: 0x8, addend: 0x0, symName: __ZN4pyo35impl_10trampoline11module_init17hc2ea140ed493b927E, symObjAddr: 0x0, symBinAddr: 0x1761C, symSize: 0x28 }
  - { offset: 0x512DB, size: 0x8, addend: 0x0, symName: __ZN4pyo35impl_10trampoline11module_init17hc2ea140ed493b927E, symObjAddr: 0x0, symBinAddr: 0x1761C, symSize: 0x28 }
  - { offset: 0x51307, size: 0x8, addend: 0x0, symName: __ZN4pyo35impl_10trampoline22fastcall_with_keywords17h2ebaff7e303c3958E, symObjAddr: 0x28, symBinAddr: 0x17644, symSize: 0x5C }
  - { offset: 0x51C3F, size: 0x8, addend: 0x0, symName: '__ZN51_$LT$T$u20$as$u20$core..borrow..Borrow$LT$T$GT$$GT$6borrow17h95730d6f756429faE', symObjAddr: 0x0, symBinAddr: 0x176A0, symSize: 0x14 }
  - { offset: 0x51C5B, size: 0x8, addend: 0x0, symName: '__ZN51_$LT$T$u20$as$u20$core..borrow..Borrow$LT$T$GT$$GT$6borrow17h95730d6f756429faE', symObjAddr: 0x0, symBinAddr: 0x176A0, symSize: 0x14 }
  - { offset: 0x51CF3, size: 0x8, addend: 0x0, symName: '__ZN106_$LT$core..ops..range..Range$LT$usize$GT$$u20$as$u20$core..slice..index..SliceIndex$LT$$u5b$T$u5d$$GT$$GT$9index_mut17h1070c415fafe932aE', symObjAddr: 0x0, symBinAddr: 0x176B4, symSize: 0xBC }
  - { offset: 0x51ED3, size: 0x8, addend: 0x0, symName: '__ZN106_$LT$core..ops..range..Range$LT$usize$GT$$u20$as$u20$core..slice..index..SliceIndex$LT$$u5b$T$u5d$$GT$$GT$9index_mut17h1070c415fafe932aE', symObjAddr: 0x0, symBinAddr: 0x176B4, symSize: 0xBC }
  - { offset: 0x51F84, size: 0x8, addend: 0x0, symName: '__ZN108_$LT$core..ops..range..RangeTo$LT$usize$GT$$u20$as$u20$core..slice..index..SliceIndex$LT$$u5b$T$u5d$$GT$$GT$9index_mut17h3852fe654ca7941cE', symObjAddr: 0xBC, symBinAddr: 0x17770, symSize: 0x54 }
  - { offset: 0x5200B, size: 0x8, addend: 0x0, symName: '__ZN110_$LT$core..ops..range..RangeFrom$LT$usize$GT$$u20$as$u20$core..slice..index..SliceIndex$LT$$u5b$T$u5d$$GT$$GT$5index17hca19904b5910f912E', symObjAddr: 0x110, symBinAddr: 0x177C4, symSize: 0x70 }
  - { offset: 0x5242C, size: 0x8, addend: 0x0, symName: '__ZN4core3ops5range25RangeInclusive$LT$Idx$GT$3new17h7a3cf36cb2b6f578E', symObjAddr: 0x180, symBinAddr: 0x17834, symSize: 0x20 }
  - { offset: 0x524A3, size: 0x8, addend: 0x0, symName: '__ZN4core3cmp5impls55_$LT$impl$u20$core..cmp..PartialEq$u20$for$u20$bool$GT$2eq17h1dd3977867cda57dE', symObjAddr: 0x0, symBinAddr: 0x17854, symSize: 0x34 }
  - { offset: 0x524C4, size: 0x8, addend: 0x0, symName: '__ZN4core3cmp5impls55_$LT$impl$u20$core..cmp..PartialEq$u20$for$u20$bool$GT$2eq17h1dd3977867cda57dE', symObjAddr: 0x0, symBinAddr: 0x17854, symSize: 0x34 }
  - { offset: 0x52507, size: 0x8, addend: 0x0, symName: '__ZN4core3cmp5impls59_$LT$impl$u20$core..cmp..PartialEq$u20$for$u20$$LP$$RP$$GT$2eq17h27f28a99e6596b08E', symObjAddr: 0x34, symBinAddr: 0x17888, symSize: 0x1C }
  - { offset: 0x5258E, size: 0x8, addend: 0x0, symName: '__ZN101_$LT$std..collections..hash..set..Iter$LT$K$GT$$u20$as$u20$core..iter..traits..iterator..Iterator$GT$4next17h87dd121f1227329fE', symObjAddr: 0x0, symBinAddr: 0x178A4, symSize: 0x58 }
  - { offset: 0x52DDB, size: 0x8, addend: 0x0, symName: __ZN4core4iter6traits8iterator8Iterator8try_fold17hd1d66f57dd5e5bb1E, symObjAddr: 0x30C, symBinAddr: 0x17BB0, symSize: 0x130 }
  - { offset: 0x53139, size: 0x8, addend: 0x0, symName: __ZN4core3cmp9PartialEq2ne17h8b9e70cfaaafa629E, symObjAddr: 0x2DC, symBinAddr: 0x17B80, symSize: 0x30 }
  - { offset: 0x53344, size: 0x8, addend: 0x0, symName: '__ZN101_$LT$std..collections..hash..set..Iter$LT$K$GT$$u20$as$u20$core..iter..traits..iterator..Iterator$GT$4next17h87dd121f1227329fE', symObjAddr: 0x0, symBinAddr: 0x178A4, symSize: 0x58 }
  - { offset: 0x5356B, size: 0x8, addend: 0x0, symName: '__ZN120_$LT$std..collections..hash..set..HashSet$LT$T$C$S$GT$$u20$as$u20$core..iter..traits..collect..FromIterator$LT$T$GT$$GT$9from_iter17h7f1198f7709d42efE', symObjAddr: 0x58, symBinAddr: 0x178FC, symSize: 0x138 }
  - { offset: 0x53651, size: 0x8, addend: 0x0, symName: '__ZN120_$LT$std..collections..hash..set..HashSet$LT$T$C$S$GT$$u20$as$u20$core..iter..traits..collect..FromIterator$LT$T$GT$$GT$9from_iter17hab604c386d83befeE', symObjAddr: 0x190, symBinAddr: 0x17A34, symSize: 0x14C }
  - { offset: 0x53773, size: 0x8, addend: 0x0, symName: '__ZN94_$LT$std..collections..hash..set..HashSet$LT$T$C$S$C$A$GT$$u20$as$u20$core..cmp..PartialEq$GT$2eq28_$u7b$$u7b$closure$u7d$$u7d$17h872cc44a2e620d80E', symObjAddr: 0x540, symBinAddr: 0x17DE4, symSize: 0x34 }
  - { offset: 0x5381A, size: 0x8, addend: 0x0, symName: '__ZN94_$LT$std..collections..hash..set..HashSet$LT$T$C$S$C$A$GT$$u20$as$u20$core..cmp..PartialEq$GT$2eq17ha6630b73d416aa63E', symObjAddr: 0x43C, symBinAddr: 0x17CE0, symSize: 0x104 }
  - { offset: 0x54484, size: 0x8, addend: 0x0, symName: __ZN3hex6decode17h71a6209c1a64404aE, symObjAddr: 0x0, symBinAddr: 0x17E18, symSize: 0x28 }
  - { offset: 0x54496, size: 0x8, addend: 0x0, symName: __ZN3hex6decode17h71a6209c1a64404aE, symObjAddr: 0x0, symBinAddr: 0x17E18, symSize: 0x28 }
  - { offset: 0x544D7, size: 0x8, addend: 0x0, symName: '__ZN58_$LT$alloc..vec..Vec$LT$u8$GT$$u20$as$u20$hex..FromHex$GT$8from_hex28_$u7b$$u7b$closure$u7d$$u7d$17h0fe7b0519a4caf9bE', symObjAddr: 0x28, symBinAddr: 0x17E40, symSize: 0x218 }
  - { offset: 0x549A0, size: 0x8, addend: 0x0, symName: '__ZN55_$LT$$RF$T$u20$as$u20$core..convert..AsRef$LT$U$GT$$GT$6as_ref17h05b392e5e29507d5E', symObjAddr: 0x0, symBinAddr: 0x18058, symSize: 0x30 }
  - { offset: 0x549BC, size: 0x8, addend: 0x0, symName: '__ZN55_$LT$$RF$T$u20$as$u20$core..convert..AsRef$LT$U$GT$$GT$6as_ref17h05b392e5e29507d5E', symObjAddr: 0x0, symBinAddr: 0x18058, symSize: 0x30 }
  - { offset: 0x54A7D, size: 0x8, addend: 0x0, symName: '__ZN4pyo38instance39Borrowed$LT$pyo3..types..any..PyAny$GT$15from_ptr_or_opt17hcee537ba60b2b62aE', symObjAddr: 0x0, symBinAddr: 0x18088, symSize: 0x2C }
  - { offset: 0x54EA2, size: 0x8, addend: 0x0, symName: '__ZN4pyo38instance39Borrowed$LT$pyo3..types..any..PyAny$GT$15from_ptr_or_opt17hcee537ba60b2b62aE', symObjAddr: 0x0, symBinAddr: 0x18088, symSize: 0x2C }
  - { offset: 0x54EE0, size: 0x8, addend: 0x0, symName: '__ZN4pyo38instance39Borrowed$LT$pyo3..types..any..PyAny$GT$18from_ptr_unchecked17h65b2159caf7d6131E', symObjAddr: 0x2C, symBinAddr: 0x180B4, symSize: 0x2C }
  - { offset: 0x54F77, size: 0x8, addend: 0x0, symName: '__ZN4pyo38instance39Borrowed$LT$pyo3..types..any..PyAny$GT$8from_ptr17h8898194997c9a28aE', symObjAddr: 0x58, symBinAddr: 0x180E0, symSize: 0x34 }
  - { offset: 0x54FD3, size: 0x8, addend: 0x0, symName: '__ZN5alloc11collections5btree4node127NodeRef$LT$alloc..collections..btree..node..marker..Owned$C$K$C$V$C$alloc..collections..btree..node..marker..LeafOrInternal$GT$3new17h707b9d2c05a0ea9fE', symObjAddr: 0x0, symBinAddr: 0x18114, symSize: 0x2C }
  - { offset: 0x560D5, size: 0x8, addend: 0x0, symName: '__ZN5alloc11collections5btree4node127NodeRef$LT$alloc..collections..btree..node..marker..Owned$C$K$C$V$C$alloc..collections..btree..node..marker..LeafOrInternal$GT$3new17h707b9d2c05a0ea9fE', symObjAddr: 0x0, symBinAddr: 0x18114, symSize: 0x2C }
  - { offset: 0x56265, size: 0x8, addend: 0x0, symName: '__ZN5alloc11collections5btree4node171Handle$LT$alloc..collections..btree..node..NodeRef$LT$alloc..collections..btree..node..marker..Mut$C$K$C$V$C$NodeType$GT$$C$alloc..collections..btree..node..marker..KV$GT$12into_val_mut17h6275f2572add308dE', symObjAddr: 0x2C, symBinAddr: 0x18140, symSize: 0x80 }
  - { offset: 0x56554, size: 0x8, addend: 0x0, symName: '__ZN5alloc11collections5btree4node173Handle$LT$alloc..collections..btree..node..NodeRef$LT$alloc..collections..btree..node..marker..Immut$C$K$C$V$C$NodeType$GT$$C$alloc..collections..btree..node..marker..KV$GT$7into_kv17h834500ed048d0ef7E', symObjAddr: 0xAC, symBinAddr: 0x181C0, symSize: 0xD8 }
  - { offset: 0x56832, size: 0x8, addend: 0x0, symName: '__ZN5alloc11collections5btree4node173Handle$LT$alloc..collections..btree..node..NodeRef$LT$alloc..collections..btree..node..marker..Immut$C$K$C$V$C$NodeType$GT$$C$alloc..collections..btree..node..marker..KV$GT$7into_kv17hcd3102fe78cda20cE', symObjAddr: 0x184, symBinAddr: 0x18298, symSize: 0xD8 }
  - { offset: 0x56A1D, size: 0x8, addend: 0x0, symName: __ZN3std9panicking12catch_unwind7do_call17h9cb675fe222bd654E, symObjAddr: 0x0, symBinAddr: 0x18370, symSize: 0x88 }
  - { offset: 0x5748D, size: 0x8, addend: 0x0, symName: __ZN3std9panicking12catch_unwind7do_call17h9cb675fe222bd654E, symObjAddr: 0x0, symBinAddr: 0x18370, symSize: 0x88 }
  - { offset: 0x57588, size: 0x8, addend: 0x0, symName: __ZN3std9panicking12catch_unwind7do_call17he9a7ef3d6ad69ea5E, symObjAddr: 0x88, symBinAddr: 0x183F8, symSize: 0x94 }
  - { offset: 0x57683, size: 0x8, addend: 0x0, symName: __ZN3std9panicking12catch_unwind8do_catch17h2bb200df61778645E, symObjAddr: 0x11C, symBinAddr: 0x1848C, symSize: 0x70 }
  - { offset: 0x57718, size: 0x8, addend: 0x0, symName: __ZN3std9panicking12catch_unwind8do_catch17h5ce6026135b7eb73E, symObjAddr: 0x18C, symBinAddr: 0x184FC, symSize: 0x70 }
  - { offset: 0x57AC0, size: 0x8, addend: 0x0, symName: '__ZN102_$LT$core..iter..adapters..map..Map$LT$I$C$F$GT$$u20$as$u20$core..iter..traits..iterator..Iterator$GT$4fold17h2c92e906d0472badE', symObjAddr: 0x0, symBinAddr: 0x1856C, symSize: 0x34 }
  - { offset: 0x57AE6, size: 0x8, addend: 0x0, symName: '__ZN102_$LT$core..iter..adapters..map..Map$LT$I$C$F$GT$$u20$as$u20$core..iter..traits..iterator..Iterator$GT$4fold17h2c92e906d0472badE', symObjAddr: 0x0, symBinAddr: 0x1856C, symSize: 0x34 }
  - { offset: 0x57B57, size: 0x8, addend: 0x0, symName: '__ZN102_$LT$core..iter..adapters..map..Map$LT$I$C$F$GT$$u20$as$u20$core..iter..traits..iterator..Iterator$GT$4fold17h3834cbb625dad6dcE', symObjAddr: 0x34, symBinAddr: 0x185A0, symSize: 0x4C }
  - { offset: 0x57BC9, size: 0x8, addend: 0x0, symName: '__ZN102_$LT$core..iter..adapters..map..Map$LT$I$C$F$GT$$u20$as$u20$core..iter..traits..iterator..Iterator$GT$4fold17h8fa6f468c1e5353fE', symObjAddr: 0x80, symBinAddr: 0x185EC, symSize: 0x4C }
  - { offset: 0x57C3B, size: 0x8, addend: 0x0, symName: '__ZN102_$LT$core..iter..adapters..map..Map$LT$I$C$F$GT$$u20$as$u20$core..iter..traits..iterator..Iterator$GT$8try_fold17h809133c4a0ab64f7E', symObjAddr: 0xCC, symBinAddr: 0x18638, symSize: 0x54 }
  - { offset: 0x57CDE, size: 0x8, addend: 0x0, symName: '__ZN102_$LT$core..iter..adapters..map..Map$LT$I$C$F$GT$$u20$as$u20$core..iter..traits..iterator..Iterator$GT$9size_hint17h153737e056f8a8c4E', symObjAddr: 0x120, symBinAddr: 0x1868C, symSize: 0x24 }
  - { offset: 0x57D25, size: 0x8, addend: 0x0, symName: '__ZN102_$LT$core..iter..adapters..map..Map$LT$I$C$F$GT$$u20$as$u20$core..iter..traits..iterator..Iterator$GT$9size_hint17h3211f8ee2a88a6e9E', symObjAddr: 0x144, symBinAddr: 0x186B0, symSize: 0x24 }
  - { offset: 0x57D6C, size: 0x8, addend: 0x0, symName: '__ZN102_$LT$core..iter..adapters..map..Map$LT$I$C$F$GT$$u20$as$u20$core..iter..traits..iterator..Iterator$GT$9size_hint17h681f58eb3d4670b6E', symObjAddr: 0x168, symBinAddr: 0x186D4, symSize: 0x24 }
  - { offset: 0x57DB3, size: 0x8, addend: 0x0, symName: '__ZN102_$LT$core..iter..adapters..map..Map$LT$I$C$F$GT$$u20$as$u20$core..iter..traits..iterator..Iterator$GT$9size_hint17hae06295be8bbd1f7E', symObjAddr: 0x18C, symBinAddr: 0x186F8, symSize: 0x24 }
  - { offset: 0x57E7B, size: 0x8, addend: 0x0, symName: '__ZN4core4iter8adapters3map12map_try_fold28_$u7b$$u7b$closure$u7d$$u7d$17hb543dc6a1b1db999E', symObjAddr: 0x260, symBinAddr: 0x187CC, symSize: 0xA8 }
  - { offset: 0x57FA6, size: 0x8, addend: 0x0, symName: '__ZN4core4iter8adapters3map8map_fold28_$u7b$$u7b$closure$u7d$$u7d$17h27c52dd8868d84d7E', symObjAddr: 0x308, symBinAddr: 0x18874, symSize: 0x84 }
  - { offset: 0x5802B, size: 0x8, addend: 0x0, symName: '__ZN4core4iter8adapters3map8map_fold28_$u7b$$u7b$closure$u7d$$u7d$17h34dacc662c3258a9E', symObjAddr: 0x38C, symBinAddr: 0x188F8, symSize: 0x88 }
  - { offset: 0x580B0, size: 0x8, addend: 0x0, symName: '__ZN4core4iter8adapters3map8map_fold28_$u7b$$u7b$closure$u7d$$u7d$17hc4b187d7a5a660d3E', symObjAddr: 0x414, symBinAddr: 0x18980, symSize: 0x88 }
  - { offset: 0x58268, size: 0x8, addend: 0x0, symName: __ZN4core4iter6traits8iterator8Iterator3map17h4a820f2dd078e994E, symObjAddr: 0x1B0, symBinAddr: 0x1871C, symSize: 0x30 }
  - { offset: 0x582D6, size: 0x8, addend: 0x0, symName: __ZN4core4iter6traits8iterator8Iterator7collect17hcc5e9778f1298b8dE, symObjAddr: 0x1E0, symBinAddr: 0x1874C, symSize: 0x14 }
  - { offset: 0x58317, size: 0x8, addend: 0x0, symName: __ZN4core4iter6traits8iterator8Iterator7collect17hefe6067f5851e047E, symObjAddr: 0x1F4, symBinAddr: 0x18760, symSize: 0x14 }
  - { offset: 0x58358, size: 0x8, addend: 0x0, symName: __ZN4core4iter6traits8iterator8Iterator8for_each17h31f999a1abf9e191E, symObjAddr: 0x208, symBinAddr: 0x18774, symSize: 0x34 }
  - { offset: 0x583A3, size: 0x8, addend: 0x0, symName: __ZN4core4iter6traits8iterator8Iterator8for_each17haf3e04143d6198a6E, symObjAddr: 0x23C, symBinAddr: 0x187A8, symSize: 0x24 }
  - { offset: 0x5842D, size: 0x8, addend: 0x0, symName: '__ZN63_$LT$I$u20$as$u20$core..iter..traits..collect..IntoIterator$GT$9into_iter17h750fee15f5fb6246E', symObjAddr: 0x49C, symBinAddr: 0x18A08, symSize: 0x1C }
  - { offset: 0x58464, size: 0x8, addend: 0x0, symName: '__ZN63_$LT$I$u20$as$u20$core..iter..traits..collect..IntoIterator$GT$9into_iter17h80fa0e4bb9adc6b0E', symObjAddr: 0x4B8, symBinAddr: 0x18A24, symSize: 0x30 }
  - { offset: 0x5849C, size: 0x8, addend: 0x0, symName: '__ZN63_$LT$I$u20$as$u20$core..iter..traits..collect..IntoIterator$GT$9into_iter17hca6a161a0096013bE', symObjAddr: 0x4E8, symBinAddr: 0x18A54, symSize: 0x14 }
  - { offset: 0x584D3, size: 0x8, addend: 0x0, symName: '__ZN63_$LT$I$u20$as$u20$core..iter..traits..collect..IntoIterator$GT$9into_iter17hcbc22699ad448b63E', symObjAddr: 0x4FC, symBinAddr: 0x18A68, symSize: 0x30 }
  - { offset: 0x59930, size: 0x8, addend: 0x0, symName: '__ZN63_$LT$serde_json..value..Value$u20$as$u20$core..clone..Clone$GT$5clone17h691f22d68f79b6a7E', symObjAddr: 0x0, symBinAddr: 0x18A98, symSize: 0x188 }
  - { offset: 0x5994C, size: 0x8, addend: 0x0, symName: '__ZN63_$LT$serde_json..value..Value$u20$as$u20$core..clone..Clone$GT$5clone17h691f22d68f79b6a7E', symObjAddr: 0x0, symBinAddr: 0x18A98, symSize: 0x188 }
  - { offset: 0x59A0F, size: 0x8, addend: 0x0, symName: '__ZN65_$LT$serde_json..value..Value$u20$as$u20$core..cmp..PartialEq$GT$2eq17h183f5454ada42c14E', symObjAddr: 0x188, symBinAddr: 0x18C20, symSize: 0x200 }
  - { offset: 0x5A497, size: 0x8, addend: 0x0, symName: __ZN4pyo35impl_10trampoline10trampoline17h05df61dba681e11cE, symObjAddr: 0x0, symBinAddr: 0x18E20, symSize: 0x14C }
  - { offset: 0x5A538, size: 0x8, addend: 0x0, symName: __ZN4pyo35impl_10trampoline10trampoline17h05df61dba681e11cE, symObjAddr: 0x0, symBinAddr: 0x18E20, symSize: 0x14C }
  - { offset: 0x5A5DA, size: 0x8, addend: 0x0, symName: __ZN4pyo35impl_10trampoline10trampoline17ha102f56c9f31b9c9E, symObjAddr: 0x14C, symBinAddr: 0x18F6C, symSize: 0x160 }
  - { offset: 0x5A683, size: 0x8, addend: 0x0, symName: '__ZN4pyo35impl_10trampoline10trampoline28_$u7b$$u7b$closure$u7d$$u7d$17hae092afad8655145E', symObjAddr: 0x2AC, symBinAddr: 0x190CC, symSize: 0x24 }
  - { offset: 0x5A6D1, size: 0x8, addend: 0x0, symName: '__ZN4pyo35impl_10trampoline10trampoline28_$u7b$$u7b$closure$u7d$$u7d$17hc2322ce51336534fE', symObjAddr: 0x2D0, symBinAddr: 0x190F0, symSize: 0x40 }
  - { offset: 0x5A726, size: 0x8, addend: 0x0, symName: '__ZN4pyo35impl_10trampoline11module_init28_$u7b$$u7b$closure$u7d$$u7d$17h57778eb175c9d738E', symObjAddr: 0x310, symBinAddr: 0x19130, symSize: 0x40 }
  - { offset: 0x5A772, size: 0x8, addend: 0x0, symName: '__ZN4pyo35impl_10trampoline11module_init28_$u7b$$u7b$closure$u7d$$u7d$28_$u7b$$u7b$closure$u7d$$u7d$17h2de67bffb58ebd6eE', symObjAddr: 0x350, symBinAddr: 0x19170, symSize: 0x24 }
  - { offset: 0x5A7C9, size: 0x8, addend: 0x0, symName: '__ZN4pyo35impl_10trampoline22fastcall_with_keywords28_$u7b$$u7b$closure$u7d$$u7d$17h6fb4fb7c061a9357E', symObjAddr: 0x374, symBinAddr: 0x19194, symSize: 0x48 }
  - { offset: 0x5B1E7, size: 0x8, addend: 0x0, symName: '__ZN4core3str6traits108_$LT$impl$u20$core..slice..index..SliceIndex$LT$str$GT$$u20$for$u20$core..ops..range..Range$LT$usize$GT$$GT$3get17hcb72dfc05c94d79fE', symObjAddr: 0x0, symBinAddr: 0x191DC, symSize: 0x208 }
  - { offset: 0x5B2C2, size: 0x8, addend: 0x0, symName: '__ZN4core3str6traits108_$LT$impl$u20$core..slice..index..SliceIndex$LT$str$GT$$u20$for$u20$core..ops..range..Range$LT$usize$GT$$GT$3get17hcb72dfc05c94d79fE', symObjAddr: 0x0, symBinAddr: 0x191DC, symSize: 0x208 }
  - { offset: 0x5B4DC, size: 0x8, addend: 0x0, symName: '__ZN4core3str6traits112_$LT$impl$u20$core..slice..index..SliceIndex$LT$str$GT$$u20$for$u20$core..ops..range..RangeFrom$LT$usize$GT$$GT$3get17hd5fa6fd5d8916023E', symObjAddr: 0x208, symBinAddr: 0x193E4, symSize: 0x150 }
  - { offset: 0x5B657, size: 0x8, addend: 0x0, symName: '__ZN4core3str6traits112_$LT$impl$u20$core..slice..index..SliceIndex$LT$str$GT$$u20$for$u20$core..ops..range..RangeFrom$LT$usize$GT$$GT$5index17h12387aa1062b24c3E', symObjAddr: 0x358, symBinAddr: 0x19534, symSize: 0x88 }
  - { offset: 0x5B6DE, size: 0x8, addend: 0x0, symName: '__ZN4core3str6traits117_$LT$impl$u20$core..slice..index..SliceIndex$LT$str$GT$$u20$for$u20$core..ops..range..RangeInclusive$LT$usize$GT$$GT$5index17hc2fd101303f4f3a7E', symObjAddr: 0x3E0, symBinAddr: 0x195BC, symSize: 0xFC }
  - { offset: 0x5BAF1, size: 0x8, addend: 0x0, symName: '__ZN108_$LT$alloc..vec..Vec$LT$T$C$A1$GT$$u20$as$u20$core..cmp..PartialOrd$LT$alloc..vec..Vec$LT$T$C$A2$GT$$GT$$GT$11partial_cmp17h33ca36a98d6ec131E', symObjAddr: 0x0, symBinAddr: 0x196B8, symSize: 0x54 }
  - { offset: 0x5BB98, size: 0x8, addend: 0x0, symName: '__ZN4core3cmp5impls69_$LT$impl$u20$core..cmp..PartialEq$LT$$RF$B$GT$$u20$for$u20$$RF$A$GT$2eq17h542c50b6cd3ac559E', symObjAddr: 0x50C, symBinAddr: 0x19BC4, symSize: 0x34 }
  - { offset: 0x5C706, size: 0x8, addend: 0x0, symName: '__ZN53_$LT$T$u20$as$u20$core..convert..TryInto$LT$U$GT$$GT$8try_into17h5551d413103e67a7E', symObjAddr: 0x540, symBinAddr: 0x19BF8, symSize: 0x14 }
  - { offset: 0x5C747, size: 0x8, addend: 0x0, symName: '__ZN53_$LT$T$u20$as$u20$core..convert..TryInto$LT$U$GT$$GT$8try_into17he5ab7d8cb4af348cE', symObjAddr: 0x554, symBinAddr: 0x19C0C, symSize: 0x14 }
  - { offset: 0x5CFC8, size: 0x8, addend: 0x0, symName: '__ZN3std2io5impls58_$LT$impl$u20$std..io..Write$u20$for$u20$$RF$mut$u20$W$GT$9write_all17h1e57277f945d85a3E', symObjAddr: 0x4A4, symBinAddr: 0x19B5C, symSize: 0x34 }
  - { offset: 0x5D011, size: 0x8, addend: 0x0, symName: '__ZN3std2io5impls74_$LT$impl$u20$std..io..Write$u20$for$u20$alloc..vec..Vec$LT$u8$C$A$GT$$GT$9write_all17h7134ff68e8200b84E', symObjAddr: 0x4D8, symBinAddr: 0x19B90, symSize: 0x34 }
  - { offset: 0x5D7A4, size: 0x8, addend: 0x0, symName: '__ZN72_$LT$alloc..vec..Vec$LT$T$C$A$GT$$u20$as$u20$core..ops..deref..Deref$GT$5deref17hd6222e56da70c720E', symObjAddr: 0xF70, symBinAddr: 0x1A628, symSize: 0x20 }
  - { offset: 0x5D867, size: 0x8, addend: 0x0, symName: '__ZN108_$LT$alloc..vec..Vec$LT$T$C$A1$GT$$u20$as$u20$core..cmp..PartialOrd$LT$alloc..vec..Vec$LT$T$C$A2$GT$$GT$$GT$11partial_cmp17h33ca36a98d6ec131E', symObjAddr: 0x0, symBinAddr: 0x196B8, symSize: 0x54 }
  - { offset: 0x5DC60, size: 0x8, addend: 0x0, symName: '__ZN111_$LT$alloc..vec..Vec$LT$T$GT$$u20$as$u20$alloc..vec..spec_from_iter_nested..SpecFromIterNested$LT$T$C$I$GT$$GT$9from_iter17h6816579232cd862cE', symObjAddr: 0x54, symBinAddr: 0x1970C, symSize: 0x224 }
  - { offset: 0x5DEBF, size: 0x8, addend: 0x0, symName: '__ZN111_$LT$alloc..vec..Vec$LT$T$GT$$u20$as$u20$alloc..vec..spec_from_iter_nested..SpecFromIterNested$LT$T$C$I$GT$$GT$9from_iter17hc0a2b761b62e0168E', symObjAddr: 0x278, symBinAddr: 0x19930, symSize: 0x22C }
  - { offset: 0x5E1BC, size: 0x8, addend: 0x0, symName: '__ZN5alloc3vec10partial_eq117_$LT$impl$u20$core..cmp..PartialEq$LT$alloc..vec..Vec$LT$U$C$A2$GT$$GT$$u20$for$u20$alloc..vec..Vec$LT$T$C$A1$GT$$GT$2eq17h9f30153255effa1eE', symObjAddr: 0x668, symBinAddr: 0x19D20, symSize: 0x54 }
  - { offset: 0x5E3C5, size: 0x8, addend: 0x0, symName: '__ZN5alloc3vec10partial_eq117_$LT$impl$u20$core..cmp..PartialEq$LT$alloc..vec..Vec$LT$U$C$A2$GT$$GT$$u20$for$u20$alloc..vec..Vec$LT$T$C$A1$GT$$GT$2eq17hbbea869949efed54E', symObjAddr: 0x6BC, symBinAddr: 0x19D74, symSize: 0x54 }
  - { offset: 0x5E6D0, size: 0x8, addend: 0x0, symName: '__ZN5alloc3vec111_$LT$impl$u20$core..convert..TryFrom$LT$alloc..vec..Vec$LT$T$C$A$GT$$GT$$u20$for$u20$$u5b$T$u3b$$u20$N$u5d$$GT$8try_from17h1a46b7cdca232088E', symObjAddr: 0x710, symBinAddr: 0x19DC8, symSize: 0xF4 }
  - { offset: 0x5E843, size: 0x8, addend: 0x0, symName: '__ZN5alloc3vec111_$LT$impl$u20$core..convert..TryFrom$LT$alloc..vec..Vec$LT$T$C$A$GT$$GT$$u20$for$u20$$u5b$T$u3b$$u20$N$u5d$$GT$8try_from17h98580fe14ae78769E', symObjAddr: 0x804, symBinAddr: 0x19EBC, symSize: 0xE8 }
  - { offset: 0x5EA87, size: 0x8, addend: 0x0, symName: '__ZN67_$LT$alloc..vec..Vec$LT$T$C$A$GT$$u20$as$u20$core..clone..Clone$GT$5clone17h0d61ee2fda0feb7fE', symObjAddr: 0xF24, symBinAddr: 0x1A5DC, symSize: 0x4C }
  - { offset: 0x5EBF5, size: 0x8, addend: 0x0, symName: '__ZN75_$LT$alloc..vec..Vec$LT$T$C$A$GT$$u20$as$u20$core..ops..deref..DerefMut$GT$9deref_mut17hef0e6a145c02b2caE', symObjAddr: 0xF90, symBinAddr: 0x1A648, symSize: 0x20 }
  - { offset: 0x5ECB8, size: 0x8, addend: 0x0, symName: '__ZN95_$LT$alloc..vec..Vec$LT$T$GT$$u20$as$u20$core..iter..traits..collect..FromIterator$LT$T$GT$$GT$9from_iter17hbeeed6ee54302673E', symObjAddr: 0xFB0, symBinAddr: 0x1A668, symSize: 0x34 }
  - { offset: 0x5ECF9, size: 0x8, addend: 0x0, symName: '__ZN95_$LT$alloc..vec..Vec$LT$T$GT$$u20$as$u20$core..iter..traits..collect..FromIterator$LT$T$GT$$GT$9from_iter17hce3bcd775cdf69b2E', symObjAddr: 0xFE4, symBinAddr: 0x1A69C, symSize: 0x34 }
  - { offset: 0x5ED45, size: 0x8, addend: 0x0, symName: '__ZN97_$LT$alloc..vec..Vec$LT$T$C$A$GT$$u20$as$u20$alloc..vec..spec_extend..SpecExtend$LT$T$C$I$GT$$GT$11spec_extend17hb845c37e1c1023b4E', symObjAddr: 0x1018, symBinAddr: 0x1A6D0, symSize: 0x24 }
  - { offset: 0x5ED97, size: 0x8, addend: 0x0, symName: '__ZN97_$LT$alloc..vec..Vec$LT$T$C$A$GT$$u20$as$u20$alloc..vec..spec_extend..SpecExtend$LT$T$C$I$GT$$GT$11spec_extend17hd5895d117fc3b08aE', symObjAddr: 0x103C, symBinAddr: 0x1A6F4, symSize: 0x24 }
  - { offset: 0x5EDF5, size: 0x8, addend: 0x0, symName: '__ZN98_$LT$alloc..vec..Vec$LT$T$GT$$u20$as$u20$alloc..vec..spec_from_iter..SpecFromIter$LT$T$C$I$GT$$GT$9from_iter17h8da115ec2435d9a6E', symObjAddr: 0x1060, symBinAddr: 0x1A718, symSize: 0x14 }
  - { offset: 0x5EE34, size: 0x8, addend: 0x0, symName: '__ZN98_$LT$alloc..vec..Vec$LT$T$GT$$u20$as$u20$alloc..vec..spec_from_iter..SpecFromIter$LT$T$C$I$GT$$GT$9from_iter17hea9a5ec3228fdeaeE', symObjAddr: 0x1074, symBinAddr: 0x1A72C, symSize: 0x14 }
  - { offset: 0x5F23A, size: 0x8, addend: 0x0, symName: '__ZN5alloc5slice99_$LT$impl$u20$core..slice..sort..stable..BufGuard$LT$T$GT$$u20$for$u20$alloc..vec..Vec$LT$T$GT$$GT$13with_capacity17hbb2d34d50701769aE', symObjAddr: 0xE24, symBinAddr: 0x1A4DC, symSize: 0x40 }
  - { offset: 0x5F2DB, size: 0x8, addend: 0x0, symName: '__ZN5alloc5slice99_$LT$impl$u20$core..slice..sort..stable..BufGuard$LT$T$GT$$u20$for$u20$alloc..vec..Vec$LT$T$GT$$GT$19as_uninit_slice_mut17h4084422d5b433253E', symObjAddr: 0xE64, symBinAddr: 0x1A51C, symSize: 0xC0 }
  - { offset: 0x5F988, size: 0x8, addend: 0x0, symName: '__ZN58_$LT$alloc..vec..Vec$LT$u8$GT$$u20$as$u20$hex..FromHex$GT$8from_hex17h747ec7842476d616E', symObjAddr: 0x568, symBinAddr: 0x19C20, symSize: 0x100 }
  - { offset: 0x6015C, size: 0x8, addend: 0x0, symName: '__ZN5alloc3vec12Vec$LT$T$GT$3new17h2501fe7bd3dc85beE', symObjAddr: 0x8EC, symBinAddr: 0x19FA4, symSize: 0x14 }
  - { offset: 0x602EF, size: 0x8, addend: 0x0, symName: '__ZN5alloc3vec16Vec$LT$T$C$A$GT$16extend_desugared17hb16c446ea10f6d58E', symObjAddr: 0x900, symBinAddr: 0x19FB8, symSize: 0x1B8 }
  - { offset: 0x60708, size: 0x8, addend: 0x0, symName: '__ZN5alloc3vec16Vec$LT$T$C$A$GT$16extend_desugared17hd5079cdd8c5c7d6cE', symObjAddr: 0xAB8, symBinAddr: 0x1A170, symSize: 0x19C }
  - { offset: 0x60987, size: 0x8, addend: 0x0, symName: '__ZN5alloc3vec16Vec$LT$T$C$A$GT$4push17h8a06b3d9f0beb61aE', symObjAddr: 0xC54, symBinAddr: 0x1A30C, symSize: 0x30 }
  - { offset: 0x60AFB, size: 0x8, addend: 0x0, symName: '__ZN5alloc3vec16Vec$LT$T$C$A$GT$7reserve17hcb5cdc1910dcc7b7E', symObjAddr: 0xC84, symBinAddr: 0x1A33C, symSize: 0xA0 }
  - { offset: 0x60C6E, size: 0x8, addend: 0x0, symName: '__ZN5alloc3vec16Vec$LT$T$C$A$GT$8is_empty17h41e26d372f6d734cE', symObjAddr: 0xD24, symBinAddr: 0x1A3DC, symSize: 0x20 }
  - { offset: 0x60DD5, size: 0x8, addend: 0x0, symName: '__ZN5alloc3vec16Vec$LT$T$C$A$GT$8push_mut17h49e72400b816c914E', symObjAddr: 0xD44, symBinAddr: 0x1A3FC, symSize: 0xE0 }
  - { offset: 0x6141C, size: 0x8, addend: 0x0, symName: __ZN4core5alloc6layout6Layout25from_size_align_unchecked18precondition_check17hf31543c3ce1d9f05E, symObjAddr: 0x0, symBinAddr: 0x1A740, symSize: 0xBC }
  - { offset: 0x61844, size: 0x8, addend: 0x0, symName: __ZN4core5alloc6layout6Layout25from_size_align_unchecked18precondition_check17hf31543c3ce1d9f05E, symObjAddr: 0x0, symBinAddr: 0x1A740, symSize: 0xBC }
  - { offset: 0x61AA7, size: 0x8, addend: 0x0, symName: __ZN4core4hint16assert_unchecked18precondition_check17h218806e5a13d99adE, symObjAddr: 0x0, symBinAddr: 0x1A7FC, symSize: 0x58 }
  - { offset: 0x61AC3, size: 0x8, addend: 0x0, symName: __ZN4core4hint16assert_unchecked18precondition_check17h218806e5a13d99adE, symObjAddr: 0x0, symBinAddr: 0x1A7FC, symSize: 0x58 }
  - { offset: 0x61B09, size: 0x8, addend: 0x0, symName: __ZN4core4hint21unreachable_unchecked17hb724a5c05c689565E, symObjAddr: 0x58, symBinAddr: 0x1A854, symSize: 0x10 }
  - { offset: 0x61B27, size: 0x8, addend: 0x0, symName: __ZN4core4hint21unreachable_unchecked18precondition_check17h2e493756727b634dE, symObjAddr: 0x68, symBinAddr: 0x1A864, symSize: 0x3C }
  - { offset: 0x61BBB, size: 0x8, addend: 0x0, symName: __ZN5alloc5slice11stable_sort17h4b6779499a7356ebE, symObjAddr: 0x0, symBinAddr: 0x1A8A0, symSize: 0xC4 }
  - { offset: 0x61E43, size: 0x8, addend: 0x0, symName: __ZN5alloc5slice11stable_sort17h4b6779499a7356ebE, symObjAddr: 0x0, symBinAddr: 0x1A8A0, symSize: 0xC4 }
  - { offset: 0x61F98, size: 0x8, addend: 0x0, symName: '__ZN4core3num20_$LT$impl$u20$u8$GT$17is_ascii_hexdigit17h5467f0fa6f0c9e24E', symObjAddr: 0x0, symBinAddr: 0x1A964, symSize: 0x10C }
  - { offset: 0x61FB4, size: 0x8, addend: 0x0, symName: '__ZN4core3num20_$LT$impl$u20$u8$GT$17is_ascii_hexdigit17h5467f0fa6f0c9e24E', symObjAddr: 0x0, symBinAddr: 0x1A964, symSize: 0x10C }
  - { offset: 0x62017, size: 0x8, addend: 0x0, symName: '__ZN4core3num23_$LT$impl$u20$usize$GT$13unchecked_add18precondition_check17hc3a9ab04952f3814E', symObjAddr: 0x10C, symBinAddr: 0x1AA70, symSize: 0x64 }
  - { offset: 0x62119, size: 0x8, addend: 0x0, symName: '__ZN4core5array4iter10iter_inner78PolymorphicIter$LT$$u5b$core..mem..maybe_uninit..MaybeUninit$LT$T$GT$$u5d$$GT$4next17h0ac6f2a0bda9573bE', symObjAddr: 0x0, symBinAddr: 0x1AAD4, symSize: 0x17C }
  - { offset: 0x62B1A, size: 0x8, addend: 0x0, symName: '__ZN4core5array4iter10iter_inner78PolymorphicIter$LT$$u5b$core..mem..maybe_uninit..MaybeUninit$LT$T$GT$$u5d$$GT$4next17h0ac6f2a0bda9573bE', symObjAddr: 0x0, symBinAddr: 0x1AAD4, symSize: 0x17C }
  - { offset: 0x62E78, size: 0x8, addend: 0x0, symName: '__ZN4core5array4iter10iter_inner78PolymorphicIter$LT$$u5b$core..mem..maybe_uninit..MaybeUninit$LT$T$GT$$u5d$$GT$4next17h5b3e1d2ce5455bbbE', symObjAddr: 0x17C, symBinAddr: 0x1AC50, symSize: 0x180 }
  - { offset: 0x630CB, size: 0x8, addend: 0x0, symName: __ZN9hashbrown3raw11TableLayout20calculate_layout_for17hbf12f6ebb70c6e40E, symObjAddr: 0x0, symBinAddr: 0x1ADD0, symSize: 0x220 }
  - { offset: 0x647F3, size: 0x8, addend: 0x0, symName: __ZN9hashbrown3raw11TableLayout20calculate_layout_for17hbf12f6ebb70c6e40E, symObjAddr: 0x0, symBinAddr: 0x1ADD0, symSize: 0x220 }
  - { offset: 0x64D32, size: 0x8, addend: 0x0, symName: __ZN9hashbrown3raw13RawTableInner15rehash_in_place17h26362b5d7693e476E, symObjAddr: 0x220, symBinAddr: 0x1AFF0, symSize: 0x41C }
  - { offset: 0x65693, size: 0x8, addend: 0x0, symName: __ZN9hashbrown3raw13RawTableInner16fix_insert_index17hb7ff5add87be1e23E, symObjAddr: 0x63C, symBinAddr: 0x1B40C, symSize: 0x100 }
  - { offset: 0x65905, size: 0x8, addend: 0x0, symName: __ZN9hashbrown3raw13RawTableInner17find_insert_index17hffc280e6932439c1E, symObjAddr: 0x73C, symBinAddr: 0x1B50C, symSize: 0xFC }
  - { offset: 0x65C02, size: 0x8, addend: 0x0, symName: __ZN9hashbrown3raw13RawTableInner23prepare_rehash_in_place17h006c9a6c9f218668E, symObjAddr: 0x838, symBinAddr: 0x1B608, symSize: 0x204 }
  - { offset: 0x661F8, size: 0x8, addend: 0x0, symName: __ZN9hashbrown3raw13RawTableInner26find_insert_index_in_group17h514e70aadf214ad2E, symObjAddr: 0xA3C, symBinAddr: 0x1B80C, symSize: 0x120 }
  - { offset: 0x664B5, size: 0x8, addend: 0x0, symName: __ZN9hashbrown3raw13RawTableInner31find_or_find_insert_index_inner17h1f0c425d44c888d5E, symObjAddr: 0xB5C, symBinAddr: 0x1B92C, symSize: 0x2A0 }
  - { offset: 0x66873, size: 0x8, addend: 0x0, symName: __ZN3hex3val17h09db91082c1b6366E, symObjAddr: 0x50, symBinAddr: 0x1BBE0, symSize: 0x1D8 }
  - { offset: 0x668B7, size: 0x8, addend: 0x0, symName: '__ZN63_$LT$hex..error..FromHexError$u20$as$u20$core..fmt..Display$GT$3fmt17hc6b6c3608421b117E', symObjAddr: 0x810, symBinAddr: 0x1C188, symSize: 0x140 }
  - { offset: 0x66A12, size: 0x8, addend: 0x0, symName: __ZN4core5slice3raw14from_raw_parts18precondition_check17h4da061d55852b49bE, symObjAddr: 0x58C, symBinAddr: 0x1C07C, symSize: 0x10C }
  - { offset: 0x66C68, size: 0x8, addend: 0x0, symName: '__ZN4core3ptr9const_ptr33_$LT$impl$u20$$BP$const$u20$T$GT$13is_aligned_to17h6e2ed59675d5f3f0E', symObjAddr: 0x47C, symBinAddr: 0x1BFF4, symSize: 0x88 }
  - { offset: 0x67241, size: 0x8, addend: 0x0, symName: __ZN4core3fmt2rt8Argument11new_display17haf24dc4c06a85facE, symObjAddr: 0x240, symBinAddr: 0x1BDB8, symSize: 0x2C }
  - { offset: 0x67279, size: 0x8, addend: 0x0, symName: __ZN4core3fmt2rt8Argument9new_debug17h330b489919927648E, symObjAddr: 0x26C, symBinAddr: 0x1BDE4, symSize: 0x2C }
  - { offset: 0x6731C, size: 0x8, addend: 0x0, symName: __ZN4core3fmt9Arguments23as_statically_known_str17h63d78c0e1f7efb4aE, symObjAddr: 0x298, symBinAddr: 0x1BE10, symSize: 0x104 }
  - { offset: 0x6742A, size: 0x8, addend: 0x0, symName: __ZN4core3fmt9Arguments3new17h720932940c791d3eE, symObjAddr: 0x39C, symBinAddr: 0x1BF14, symSize: 0x1C }
  - { offset: 0x6745C, size: 0x8, addend: 0x0, symName: __ZN4core3fmt9Arguments8from_str17habb31fabad89ddd3E, symObjAddr: 0x3B8, symBinAddr: 0x1BF30, symSize: 0x20 }
  - { offset: 0x6747F, size: 0x8, addend: 0x0, symName: __ZN4core3fmt9Formatter9write_fmt17h945978e49b910beaE, symObjAddr: 0x3D8, symBinAddr: 0x1BF50, symSize: 0xA4 }
  - { offset: 0x67565, size: 0x8, addend: 0x0, symName: __ZN10serde_json2de5POW1017h9820f5432841eebbE, symObjAddr: 0x8B90, symBinAddr: 0xADD98, symSize: 0x0 }
  - { offset: 0x67572, size: 0x8, addend: 0x0, symName: __ZN10serde_json2de10from_trait17h42c184524159c889E, symObjAddr: 0x580, symBinAddr: 0x1C564, symSize: 0x18C }
  - { offset: 0x67B5A, size: 0x8, addend: 0x0, symName: '__ZN10serde_json2de21Deserializer$LT$R$GT$12fix_position28_$u7b$$u7b$closure$u7d$$u7d$17h6bddf65e2bf6b5ffE', symObjAddr: 0xC40, symBinAddr: 0x1C8D4, symSize: 0x3C }
  - { offset: 0x67BA4, size: 0x8, addend: 0x0, symName: __ZN10serde_json2de8from_str17hdc5cff49887ccc87E, symObjAddr: 0x2F58, symBinAddr: 0x1DEE0, symSize: 0x40 }
  - { offset: 0x67BE5, size: 0x8, addend: 0x0, symName: '__ZN80_$LT$serde_json..de..MapAccess$LT$R$GT$$u20$as$u20$serde_core..de..MapAccess$GT$13next_key_seed12has_next_key17h294babb3b865ef57E', symObjAddr: 0x6234, symBinAddr: 0x1F69C, symSize: 0x2A4 }
  - { offset: 0x67C6F, size: 0x8, addend: 0x0, symName: '__ZN80_$LT$serde_json..de..MapAccess$LT$R$GT$$u20$as$u20$serde_core..de..MapAccess$GT$13next_key_seed17h0768b4c76c9912afE', symObjAddr: 0x64D8, symBinAddr: 0x1F940, symSize: 0x170 }
  - { offset: 0x67CFA, size: 0x8, addend: 0x0, symName: '__ZN80_$LT$serde_json..de..MapAccess$LT$R$GT$$u20$as$u20$serde_core..de..MapAccess$GT$13next_key_seed17h8f86c99d642f5850E', symObjAddr: 0x6648, symBinAddr: 0x1FAB0, symSize: 0x170 }
  - { offset: 0x67D85, size: 0x8, addend: 0x0, symName: '__ZN80_$LT$serde_json..de..MapAccess$LT$R$GT$$u20$as$u20$serde_core..de..MapAccess$GT$15next_value_seed17hd1f9ff6a2a9aa5aaE', symObjAddr: 0x67B8, symBinAddr: 0x1FC20, symSize: 0xC0 }
  - { offset: 0x67DF8, size: 0x8, addend: 0x0, symName: '__ZN80_$LT$serde_json..de..MapKey$LT$R$GT$$u20$as$u20$serde_core..de..Deserializer$GT$15deserialize_any17h03d3a7308c72b2e4E', symObjAddr: 0x6878, symBinAddr: 0x1FCE0, symSize: 0x11C }
  - { offset: 0x67E9A, size: 0x8, addend: 0x0, symName: '__ZN80_$LT$serde_json..de..MapKey$LT$R$GT$$u20$as$u20$serde_core..de..Deserializer$GT$15deserialize_any17hce531264f0880ba3E', symObjAddr: 0x6994, symBinAddr: 0x1FDFC, symSize: 0x11C }
  - { offset: 0x67F3C, size: 0x8, addend: 0x0, symName: '__ZN80_$LT$serde_json..de..MapKey$LT$R$GT$$u20$as$u20$serde_core..de..Deserializer$GT$15deserialize_str17h93dbbce19282e50cE', symObjAddr: 0x6AB0, symBinAddr: 0x1FF18, symSize: 0x24 }
  - { offset: 0x67F88, size: 0x8, addend: 0x0, symName: '__ZN80_$LT$serde_json..de..MapKey$LT$R$GT$$u20$as$u20$serde_core..de..Deserializer$GT$18deserialize_string17h370f1e83482d273fE', symObjAddr: 0x6AD4, symBinAddr: 0x1FF3C, symSize: 0x24 }
  - { offset: 0x67FDF, size: 0x8, addend: 0x0, symName: '__ZN80_$LT$serde_json..de..SeqAccess$LT$R$GT$$u20$as$u20$serde_core..de..SeqAccess$GT$17next_element_seed16has_next_element17hf90ee599479a53e0E', symObjAddr: 0x6AF8, symBinAddr: 0x1FF60, symSize: 0x220 }
  - { offset: 0x68069, size: 0x8, addend: 0x0, symName: '__ZN80_$LT$serde_json..de..SeqAccess$LT$R$GT$$u20$as$u20$serde_core..de..SeqAccess$GT$17next_element_seed17h6eea5579d19209d5E', symObjAddr: 0x6D18, symBinAddr: 0x20180, symSize: 0x16C }
  - { offset: 0x680FA, size: 0x8, addend: 0x0, symName: '__ZN98_$LT$$RF$mut$u20$serde_json..de..Deserializer$LT$R$GT$$u20$as$u20$serde_core..de..Deserializer$GT$15deserialize_any17h1453dea5af99d7d2E', symObjAddr: 0x703C, symBinAddr: 0x2034C, symSize: 0xBA8 }
  - { offset: 0x68394, size: 0x8, addend: 0x0, symName: '__ZN55_$LT$str$u20$as$u20$serde_json..value..index..Index$GT$10index_into17h59ecff378a1c5aafE', symObjAddr: 0x3FFC, symBinAddr: 0x1E46C, symSize: 0x74 }
  - { offset: 0x68A91, size: 0x8, addend: 0x0, symName: '__ZN56_$LT$alloc..string..String$u20$as$u20$core..cmp..Ord$GT$3cmp17h02d49fb666385ed5E', symObjAddr: 0x4254, symBinAddr: 0x1E4E0, symSize: 0x2C }
  - { offset: 0x68AD4, size: 0x8, addend: 0x0, symName: '__ZN65_$LT$alloc..string..String$u20$as$u20$core..ops..deref..Deref$GT$5deref17h8c54c3bcaf59f36fE', symObjAddr: 0x5D04, symBinAddr: 0x1F4C8, symSize: 0x20 }
  - { offset: 0x68B93, size: 0x8, addend: 0x0, symName: '__ZN58_$LT$alloc..string..String$u20$as$u20$core..fmt..Write$GT$10write_char17h10ebab70c0d58a6bE', symObjAddr: 0x44F8, symBinAddr: 0x1E50C, symSize: 0x30 }
  - { offset: 0x68BD0, size: 0x8, addend: 0x0, symName: '__ZN58_$LT$alloc..string..String$u20$as$u20$core..fmt..Write$GT$9write_str17h107cfe86eb482066E', symObjAddr: 0x4528, symBinAddr: 0x1E53C, symSize: 0x38 }
  - { offset: 0x68C40, size: 0x8, addend: 0x0, symName: '__ZN76_$LT$alloc..string..String$u20$as$u20$core..convert..From$LT$$RF$str$GT$$GT$4from17h1de0b7adc967005aE', symObjAddr: 0x6194, symBinAddr: 0x1F64C, symSize: 0x50 }
  - { offset: 0x69297, size: 0x8, addend: 0x0, symName: '__ZN132_$LT$alloc..vec..Vec$LT$T$C$A$GT$$u20$as$u20$alloc..vec..spec_extend..SpecExtend$LT$$RF$T$C$core..slice..iter..Iter$LT$T$GT$$GT$$GT$11spec_extend17h4741fc484aa9683fE', symObjAddr: 0x323C, symBinAddr: 0x1DF20, symSize: 0xB0 }
  - { offset: 0x694C6, size: 0x8, addend: 0x0, symName: '__ZN5alloc3vec16Vec$LT$T$C$A$GT$7set_len18precondition_check17h0820e56013bdb7a5E', symObjAddr: 0x55E4, symBinAddr: 0x1F050, symSize: 0x60 }
  - { offset: 0x69550, size: 0x8, addend: 0x0, symName: '__ZN72_$LT$alloc..vec..Vec$LT$T$C$A$GT$$u20$as$u20$core..ops..deref..Deref$GT$5deref17h5ecb1b619f312171E', symObjAddr: 0x5F34, symBinAddr: 0x1F574, symSize: 0x20 }
  - { offset: 0x6960D, size: 0x8, addend: 0x0, symName: '__ZN72_$LT$alloc..vec..Vec$LT$T$C$A$GT$$u20$as$u20$core..ops..deref..Deref$GT$5deref17h87959fcd913b2b31E', symObjAddr: 0x5F54, symBinAddr: 0x1F594, symSize: 0x20 }
  - { offset: 0x69700, size: 0x8, addend: 0x0, symName: '__ZN63_$LT$alloc..vec..Vec$LT$T$C$A$GT$$u20$as$u20$core..cmp..Ord$GT$3cmp17h6ca4db762e909d1dE', symObjAddr: 0x5CB0, symBinAddr: 0x1F474, symSize: 0x54 }
  - { offset: 0x698B6, size: 0x8, addend: 0x0, symName: '__ZN70_$LT$alloc..vec..Vec$LT$T$C$A$GT$$u20$as$u20$core..ops..drop..Drop$GT$4drop17hca5afc6efe3b7123E', symObjAddr: 0x5EFC, symBinAddr: 0x1F53C, symSize: 0x38 }
  - { offset: 0x6996C, size: 0x8, addend: 0x0, symName: '__ZN94_$LT$$RF$alloc..vec..Vec$LT$T$C$A$GT$$u20$as$u20$core..iter..traits..collect..IntoIterator$GT$9into_iter17h7da768c011f223d6E', symObjAddr: 0x6F4C, symBinAddr: 0x202EC, symSize: 0x60 }
  - { offset: 0x6A7B3, size: 0x8, addend: 0x0, symName: '__ZN5alloc11collections5btree8navigate263_$LT$impl$u20$alloc..collections..btree..node..Handle$LT$alloc..collections..btree..node..NodeRef$LT$alloc..collections..btree..node..marker..Dying$C$K$C$V$C$alloc..collections..btree..node..marker..Leaf$GT$$C$alloc..collections..btree..node..marker..Edge$GT$$GT$27deallocating_next_unchecked28_$u7b$$u7b$closure$u7d$$u7d$17h31c0075835eac63bE', symObjAddr: 0x4560, symBinAddr: 0x1E574, symSize: 0x58 }
  - { offset: 0x6A82F, size: 0x8, addend: 0x0, symName: '__ZN5alloc11collections5btree8navigate263_$LT$impl$u20$alloc..collections..btree..node..Handle$LT$alloc..collections..btree..node..NodeRef$LT$alloc..collections..btree..node..marker..Immut$C$K$C$V$C$alloc..collections..btree..node..marker..Leaf$GT$$C$alloc..collections..btree..node..marker..Edge$GT$$GT$14next_unchecked28_$u7b$$u7b$closure$u7d$$u7d$17h67b7678429cea018E', symObjAddr: 0x45B8, symBinAddr: 0x1E5CC, symSize: 0xC4 }
  - { offset: 0x6ABA1, size: 0x8, addend: 0x0, symName: '__ZN5alloc3str83_$LT$impl$u20$core..borrow..Borrow$LT$str$GT$$u20$for$u20$alloc..string..String$GT$6borrow17h500deb064102f035E', symObjAddr: 0x4DA0, symBinAddr: 0x1EDB4, symSize: 0x20 }
  - { offset: 0x6B9D5, size: 0x8, addend: 0x0, symName: '__ZN4core3num7nonzero16NonZero$LT$T$GT$13new_unchecked18precondition_check17hedcfdfccd5669e97E', symObjAddr: 0x3374, symBinAddr: 0x1E004, symSize: 0x3C }
  - { offset: 0x6C544, size: 0x8, addend: 0x0, symName: __ZN4core3fmt5Write9write_fmt17h712225e344a410feE, symObjAddr: 0x3340, symBinAddr: 0x1DFD0, symSize: 0x34 }
  - { offset: 0x6C591, size: 0x8, addend: 0x0, symName: '__ZN75_$LT$$RF$mut$u20$W$u20$as$u20$core..fmt..Write..write_fmt..SpecWriteFmt$GT$14spec_write_fmt17h16056da4ccec8834E', symObjAddr: 0x60DC, symBinAddr: 0x1F5B4, symSize: 0x98 }
  - { offset: 0x6D67C, size: 0x8, addend: 0x0, symName: '__ZN4core5slice29_$LT$impl$u20$$u5b$T$u5d$$GT$11split_first17hd3384a946eec683dE', symObjAddr: 0x37E4, symBinAddr: 0x1E0C4, symSize: 0x80 }
  - { offset: 0x6D6D7, size: 0x8, addend: 0x0, symName: '__ZN4core5slice29_$LT$impl$u20$$u5b$T$u5d$$GT$12chunks_exact17h140d2e8b24bca9d8E', symObjAddr: 0x3864, symBinAddr: 0x1E144, symSize: 0xF0 }
  - { offset: 0x6D795, size: 0x8, addend: 0x0, symName: '__ZN4core5slice29_$LT$impl$u20$$u5b$T$u5d$$GT$3get17hb9c8b4e59c72c71aE', symObjAddr: 0x3954, symBinAddr: 0x1E234, symSize: 0x44 }
  - { offset: 0x6DA87, size: 0x8, addend: 0x0, symName: '__ZN4core5array98_$LT$impl$u20$core..convert..TryFrom$LT$$RF$$u5b$T$u5d$$GT$$u20$for$u20$$u5b$T$u3b$$u20$N$u5d$$GT$8try_from17hcce54fa6179aa3b9E', symObjAddr: 0x3760, symBinAddr: 0x1E040, symSize: 0x84 }
  - { offset: 0x6DC07, size: 0x8, addend: 0x0, symName: '__ZN67_$LT$core..array..TryFromSliceError$u20$as$u20$core..fmt..Debug$GT$3fmt17hcf70196895ccbdb1E', symObjAddr: 0x5D60, symBinAddr: 0x1F4E8, symSize: 0x54 }
  - { offset: 0x6DCEA, size: 0x8, addend: 0x0, symName: '__ZN51_$LT$T$u20$as$u20$core..borrow..Borrow$LT$T$GT$$GT$6borrow17hc9155a83205dfcd6E', symObjAddr: 0x3FE8, symBinAddr: 0x1E458, symSize: 0x14 }
  - { offset: 0x6E182, size: 0x8, addend: 0x0, symName: '__ZN10serde_core2de5impls79_$LT$impl$u20$serde_core..de..Deserialize$u20$for$u20$alloc..string..String$GT$11deserialize17h7895a4d5e8bd3a75E', symObjAddr: 0x154, symBinAddr: 0x1C2C8, symSize: 0x24 }
  - { offset: 0x6E1C8, size: 0x8, addend: 0x0, symName: __ZN10serde_core2de9MapAccess10next_entry17hd8a2d81d78afdbbbE, symObjAddr: 0x178, symBinAddr: 0x1C2EC, symSize: 0x24 }
  - { offset: 0x6E211, size: 0x8, addend: 0x0, symName: __ZN10serde_core2de9MapAccess10next_value17hd021a62e297e9d6dE, symObjAddr: 0x19C, symBinAddr: 0x1C310, symSize: 0x24 }
  - { offset: 0x6E251, size: 0x8, addend: 0x0, symName: __ZN10serde_core2de9MapAccess15next_entry_seed17h5a7ffe0b78cb287eE, symObjAddr: 0x1C0, symBinAddr: 0x1C334, symSize: 0x20C }
  - { offset: 0x6E32E, size: 0x8, addend: 0x0, symName: __ZN10serde_core2de9SeqAccess12next_element17h667899a5c78f7f93E, symObjAddr: 0x3CC, symBinAddr: 0x1C540, symSize: 0x24 }
  - { offset: 0x6E474, size: 0x8, addend: 0x0, symName: __ZN10serde_json2de12ParserNumber5visit17hfeb20c497516b036E, symObjAddr: 0x974, symBinAddr: 0x1C6F0, symSize: 0x8C }
  - { offset: 0x6E530, size: 0x8, addend: 0x0, symName: '__ZN10serde_json2de18MapAccess$LT$R$GT$3new17h7e687cddbc16f0b6E', symObjAddr: 0xA00, symBinAddr: 0x1C77C, symSize: 0x1C }
  - { offset: 0x6E55C, size: 0x8, addend: 0x0, symName: '__ZN10serde_json2de18SeqAccess$LT$R$GT$3new17h75958ab642e5a82fE', symObjAddr: 0xA1C, symBinAddr: 0x1C798, symSize: 0x1C }
  - { offset: 0x6E595, size: 0x8, addend: 0x0, symName: '__ZN10serde_json2de21Deserializer$LT$R$GT$10peek_error17h837c1d303ae1020fE', symObjAddr: 0xA38, symBinAddr: 0x9E9B4, symSize: 0xB0 }
  - { offset: 0x6E5EC, size: 0x8, addend: 0x0, symName: '__ZN10serde_json2de21Deserializer$LT$R$GT$11parse_ident17h0db9086a638472bcE', symObjAddr: 0xAE8, symBinAddr: 0x1C7B4, symSize: 0x120 }
  - { offset: 0x6E687, size: 0x8, addend: 0x0, symName: '__ZN10serde_json2de21Deserializer$LT$R$GT$12fix_position17h0ddccd7a4bf45fd7E', symObjAddr: 0xC08, symBinAddr: 0x9EA64, symSize: 0x38 }
  - { offset: 0x6E6C2, size: 0x8, addend: 0x0, symName: '__ZN10serde_json2de21Deserializer$LT$R$GT$12parse_number17h02a7c08300a9a837E', symObjAddr: 0xC7C, symBinAddr: 0x1C910, symSize: 0x1C4 }
  - { offset: 0x6E7B2, size: 0x8, addend: 0x0, symName: '__ZN10serde_json2de21Deserializer$LT$R$GT$12peek_or_null17hc590f8b678928057E', symObjAddr: 0xE40, symBinAddr: 0x1CAD4, symSize: 0x88 }
  - { offset: 0x6E7FB, size: 0x8, addend: 0x0, symName: '__ZN10serde_json2de21Deserializer$LT$R$GT$13parse_decimal17h7c52169c28304abeE', symObjAddr: 0xEC8, symBinAddr: 0x1CB5C, symSize: 0x3B0 }
  - { offset: 0x6E941, size: 0x8, addend: 0x0, symName: '__ZN10serde_json2de21Deserializer$LT$R$GT$13parse_integer17h7016c15e76b3855bE', symObjAddr: 0x1278, symBinAddr: 0x1CF0C, symSize: 0x3D8 }
  - { offset: 0x6EA86, size: 0x8, addend: 0x0, symName: '__ZN10serde_json2de21Deserializer$LT$R$GT$14f64_from_parts17h97935ca404952d95E', symObjAddr: 0x1650, symBinAddr: 0x1D2E4, symSize: 0x1C8 }
  - { offset: 0x6EB0B, size: 0x8, addend: 0x0, symName: '__ZN10serde_json2de21Deserializer$LT$R$GT$14parse_exponent17hbd24bd81718425f1E', symObjAddr: 0x1818, symBinAddr: 0x1D4AC, symSize: 0x444 }
  - { offset: 0x6ECEC, size: 0x8, addend: 0x0, symName: '__ZN10serde_json2de21Deserializer$LT$R$GT$16parse_any_number17h69bb414eddef3d4aE', symObjAddr: 0x1C5C, symBinAddr: 0x1D8F0, symSize: 0x28 }
  - { offset: 0x6ED27, size: 0x8, addend: 0x0, symName: '__ZN10serde_json2de21Deserializer$LT$R$GT$16parse_whitespace17h19391598987f2401E', symObjAddr: 0x1C84, symBinAddr: 0x1D918, symSize: 0xEC }
  - { offset: 0x6ED8E, size: 0x8, addend: 0x0, symName: '__ZN10serde_json2de21Deserializer$LT$R$GT$18parse_long_integer17h3cf48bf78836e06cE', symObjAddr: 0x2188, symBinAddr: 0x9EA9C, symSize: 0x178 }
  - { offset: 0x6EE0C, size: 0x8, addend: 0x0, symName: '__ZN10serde_json2de21Deserializer$LT$R$GT$18parse_object_colon17hfb9d73bfa2bb8d9eE', symObjAddr: 0x2300, symBinAddr: 0x1DA04, symSize: 0xC8 }
  - { offset: 0x6EE56, size: 0x8, addend: 0x0, symName: '__ZN10serde_json2de21Deserializer$LT$R$GT$22parse_decimal_overflow17hf318293ecc4beca8E', symObjAddr: 0x23C8, symBinAddr: 0x9EC14, symSize: 0x140 }
  - { offset: 0x6EEEB, size: 0x8, addend: 0x0, symName: '__ZN10serde_json2de21Deserializer$LT$R$GT$23parse_exponent_overflow17h2db82e0512683cf5E', symObjAddr: 0x2838, symBinAddr: 0x9ED54, symSize: 0x120 }
  - { offset: 0x6EF62, size: 0x8, addend: 0x0, symName: '__ZN10serde_json2de21Deserializer$LT$R$GT$3end17he8154c63d755a186E', symObjAddr: 0x2958, symBinAddr: 0x1DACC, symSize: 0x98 }
  - { offset: 0x6EFAB, size: 0x8, addend: 0x0, symName: '__ZN10serde_json2de21Deserializer$LT$R$GT$3new17h47ff22a7447c9ccfE', symObjAddr: 0x29F0, symBinAddr: 0x1DB64, symSize: 0x7C }
  - { offset: 0x6EFD7, size: 0x8, addend: 0x0, symName: '__ZN10serde_json2de21Deserializer$LT$R$GT$4peek17h2238ccd2ee3c2f0fE', symObjAddr: 0x2AE8, symBinAddr: 0x1DBE0, symSize: 0x24 }
  - { offset: 0x6F002, size: 0x8, addend: 0x0, symName: '__ZN10serde_json2de21Deserializer$LT$R$GT$5error17h3235898e079640bdE', symObjAddr: 0x2B0C, symBinAddr: 0x9EE74, symSize: 0xB0 }
  - { offset: 0x6F059, size: 0x8, addend: 0x0, symName: '__ZN10serde_json2de21Deserializer$LT$R$GT$7end_map17hfe3c8f4e8236edccE', symObjAddr: 0x2BBC, symBinAddr: 0x1DC04, symSize: 0xF8 }
  - { offset: 0x6F0A3, size: 0x8, addend: 0x0, symName: '__ZN10serde_json2de21Deserializer$LT$R$GT$7end_seq17h42c43153ad163575E', symObjAddr: 0x2CB4, symBinAddr: 0x1DCFC, symSize: 0x19C }
  - { offset: 0x6F0ED, size: 0x8, addend: 0x0, symName: '__ZN10serde_json2de21Deserializer$LT$R$GT$8eat_char17hf8e10ce2d4241e08E', symObjAddr: 0x2E50, symBinAddr: 0x1DE98, symSize: 0x24 }
  - { offset: 0x6F118, size: 0x8, addend: 0x0, symName: '__ZN10serde_json2de21Deserializer$LT$R$GT$9next_char17haa34a2ca4371773bE', symObjAddr: 0x2E74, symBinAddr: 0x1DEBC, symSize: 0x24 }
  - { offset: 0x6F34F, size: 0x8, addend: 0x0, symName: '__ZN4core6result19Result$LT$T$C$E$GT$3map17h5ddae86b394b09c1E', symObjAddr: 0x3AE8, symBinAddr: 0x1E278, symSize: 0x8C }
  - { offset: 0x6F3E2, size: 0x8, addend: 0x0, symName: '__ZN4core6result19Result$LT$T$C$E$GT$3map17hb05af9f967dac223E', symObjAddr: 0x3C00, symBinAddr: 0x1E304, symSize: 0x8C }
  - { offset: 0x6F4A0, size: 0x8, addend: 0x0, symName: '__ZN4core6result19Result$LT$T$C$E$GT$6expect17h525ce6be7195c38bE', symObjAddr: 0x3D18, symBinAddr: 0x1E390, symSize: 0x78 }
  - { offset: 0x6F532, size: 0x8, addend: 0x0, symName: '__ZN4core6result19Result$LT$T$C$E$GT$7map_err17haeeba210d91b251cE', symObjAddr: 0x3E28, symBinAddr: 0x1E408, symSize: 0x50 }
  - { offset: 0x6F965, size: 0x8, addend: 0x0, symName: '__ZN5alloc11collections5btree8navigate39LazyLeafRange$LT$BorrowType$C$K$C$V$GT$10init_front17h2f55f1971620eaa4E', symObjAddr: 0x467C, symBinAddr: 0x1E690, symSize: 0x1F8 }
  - { offset: 0x6FDD4, size: 0x8, addend: 0x0, symName: '__ZN5alloc11collections5btree8navigate39LazyLeafRange$LT$BorrowType$C$K$C$V$GT$10init_front17h9727d8189a92d821E', symObjAddr: 0x4874, symBinAddr: 0x1E888, symSize: 0x1F8 }
  - { offset: 0x7021A, size: 0x8, addend: 0x0, symName: '__ZN5alloc11collections5btree8navigate75LazyLeafRange$LT$alloc..collections..btree..node..marker..Dying$C$K$C$V$GT$10take_front17h45c0172c228a75b1E', symObjAddr: 0x4A6C, symBinAddr: 0x1EA80, symSize: 0x1F4 }
  - { offset: 0x70507, size: 0x8, addend: 0x0, symName: '__ZN5alloc11collections5btree8navigate75LazyLeafRange$LT$alloc..collections..btree..node..marker..Dying$C$K$C$V$GT$16deallocating_end17h1c71dc73feff03faE', symObjAddr: 0x4C60, symBinAddr: 0x1EC74, symSize: 0x98 }
  - { offset: 0x705CC, size: 0x8, addend: 0x0, symName: '__ZN5alloc11collections5btree8navigate75LazyLeafRange$LT$alloc..collections..btree..node..marker..Dying$C$K$C$V$GT$27deallocating_next_unchecked17he35b5c0114d342e1E', symObjAddr: 0x4CF8, symBinAddr: 0x1ED0C, symSize: 0xA8 }
  - { offset: 0x706FE, size: 0x8, addend: 0x0, symName: '__ZN5alloc3vec12Vec$LT$T$GT$3new17h75d1081ac0ee62f0E', symObjAddr: 0x4E04, symBinAddr: 0x1EDD4, symSize: 0x14 }
  - { offset: 0x7071B, size: 0x8, addend: 0x0, symName: '__ZN5alloc3vec12Vec$LT$T$GT$3new17he7bc63436875162eE', symObjAddr: 0x4E18, symBinAddr: 0x1EDE8, symSize: 0x14 }
  - { offset: 0x70790, size: 0x8, addend: 0x0, symName: '__ZN5alloc3vec16Vec$LT$T$C$A$GT$10as_mut_ptr17h63ae1119eea8565aE', symObjAddr: 0x4E2C, symBinAddr: 0x1EDFC, symSize: 0x18 }
  - { offset: 0x708D2, size: 0x8, addend: 0x0, symName: '__ZN5alloc3vec16Vec$LT$T$C$A$GT$15append_elements17h8108c242d7adc967E', symObjAddr: 0x5104, symBinAddr: 0x1EE14, symSize: 0xD4 }
  - { offset: 0x70B84, size: 0x8, addend: 0x0, symName: '__ZN5alloc3vec16Vec$LT$T$C$A$GT$17extend_from_slice17h45fd20ed3af9f99cE', symObjAddr: 0x53BC, symBinAddr: 0x1EEE8, symSize: 0x6C }
  - { offset: 0x70CCE, size: 0x8, addend: 0x0, symName: '__ZN5alloc3vec16Vec$LT$T$C$A$GT$3len17h49da77b468b969a4E', symObjAddr: 0x5428, symBinAddr: 0x1EF54, symSize: 0x18 }
  - { offset: 0x70D10, size: 0x8, addend: 0x0, symName: '__ZN5alloc3vec16Vec$LT$T$C$A$GT$4push17h08e20f69756e426eE', symObjAddr: 0x5458, symBinAddr: 0x1EF6C, symSize: 0x24 }
  - { offset: 0x70D55, size: 0x8, addend: 0x0, symName: '__ZN5alloc3vec16Vec$LT$T$C$A$GT$4push17h8b019538c1bd05aaE', symObjAddr: 0x547C, symBinAddr: 0x1EF90, symSize: 0x28 }
  - { offset: 0x70E4C, size: 0x8, addend: 0x0, symName: '__ZN5alloc3vec16Vec$LT$T$C$A$GT$5clear17hc4f14d2ccb5b416cE', symObjAddr: 0x54A4, symBinAddr: 0x1EFB8, symSize: 0x28 }
  - { offset: 0x70FBB, size: 0x8, addend: 0x0, symName: '__ZN5alloc3vec16Vec$LT$T$C$A$GT$7set_len17h52d215a9f3c417faE', symObjAddr: 0x5574, symBinAddr: 0x1EFE0, symSize: 0x70 }
  - { offset: 0x7107C, size: 0x8, addend: 0x0, symName: '__ZN5alloc3vec16Vec$LT$T$C$A$GT$8is_empty17h3d9e8265f7bf18b8E', symObjAddr: 0x5644, symBinAddr: 0x1F0B0, symSize: 0x20 }
  - { offset: 0x711BC, size: 0x8, addend: 0x0, symName: '__ZN5alloc3vec16Vec$LT$T$C$A$GT$8push_mut17h09263fb0ba19acc0E', symObjAddr: 0x5664, symBinAddr: 0x1F0D0, symSize: 0xC8 }
  - { offset: 0x7142B, size: 0x8, addend: 0x0, symName: '__ZN5alloc3vec16Vec$LT$T$C$A$GT$8push_mut17h30a2e9c68b41f911E', symObjAddr: 0x572C, symBinAddr: 0x1F198, symSize: 0xEC }
  - { offset: 0x7174A, size: 0x8, addend: 0x0, symName: __ZN5alloc6string6String4push17hceff1931ee65ca72E, symObjAddr: 0x5920, symBinAddr: 0x1F284, symSize: 0x114 }
  - { offset: 0x71A39, size: 0x8, addend: 0x0, symName: __ZN5alloc6string6String8push_str17hbd583804ad6c7e0bE, symObjAddr: 0x5A54, symBinAddr: 0x1F398, symSize: 0xDC }
  - { offset: 0x72363, size: 0x8, addend: 0x0, symName: '__ZN280_$LT$alloc..collections..btree..node..Handle$LT$alloc..collections..btree..node..NodeRef$LT$alloc..collections..btree..node..marker..Dying$C$K$C$V$C$NodeType$GT$$C$alloc..collections..btree..node..marker..KV$GT$..drop_key_val..Dropper$LT$T$GT$$u20$as$u20$core..ops..drop..Drop$GT$4drop17h9452179f11350f81E', symObjAddr: 0x0, symBinAddr: 0x20EF4, symSize: 0x2C }
  - { offset: 0x76BAF, size: 0x8, addend: 0x0, symName: '__ZN280_$LT$alloc..collections..btree..node..Handle$LT$alloc..collections..btree..node..NodeRef$LT$alloc..collections..btree..node..marker..Dying$C$K$C$V$C$NodeType$GT$$C$alloc..collections..btree..node..marker..KV$GT$..drop_key_val..Dropper$LT$T$GT$$u20$as$u20$core..ops..drop..Drop$GT$4drop17h9452179f11350f81E', symObjAddr: 0x0, symBinAddr: 0x20EF4, symSize: 0x2C }
  - { offset: 0x77B98, size: 0x8, addend: 0x0, symName: '__ZN5alloc11collections5btree4node127NodeRef$LT$alloc..collections..btree..node..marker..Owned$C$K$C$V$C$alloc..collections..btree..node..marker..LeafOrInternal$GT$19push_internal_level28_$u7b$$u7b$closure$u7d$$u7d$17hbeba45c3109dae8eE', symObjAddr: 0xA44, symBinAddr: 0x21938, symSize: 0x34 }
  - { offset: 0x77BF3, size: 0x8, addend: 0x0, symName: __ZN5alloc11collections5btree4node12slice_insert17h8ff2a4e223ae7860E, symObjAddr: 0xA78, symBinAddr: 0x2196C, symSize: 0x170 }
  - { offset: 0x77D93, size: 0x8, addend: 0x0, symName: __ZN5alloc11collections5btree4node12slice_insert17hc33bc875591e8c64E, symObjAddr: 0xBE8, symBinAddr: 0x21ADC, symSize: 0x15C }
  - { offset: 0x77F33, size: 0x8, addend: 0x0, symName: __ZN5alloc11collections5btree4node12slice_insert17hf47566673b02ce96E, symObjAddr: 0xD44, symBinAddr: 0x21C38, symSize: 0x114 }
  - { offset: 0x78099, size: 0x8, addend: 0x0, symName: __ZN5alloc11collections5btree4node13move_to_slice17h087d22acc291561aE, symObjAddr: 0xE58, symBinAddr: 0x21D4C, symSize: 0xB4 }
  - { offset: 0x78145, size: 0x8, addend: 0x0, symName: __ZN5alloc11collections5btree4node13move_to_slice17h5a59db6a8cc2a460E, symObjAddr: 0xF0C, symBinAddr: 0x21E00, symSize: 0xB0 }
  - { offset: 0x781F1, size: 0x8, addend: 0x0, symName: __ZN5alloc11collections5btree4node13move_to_slice17hf6970f91991a1c32E, symObjAddr: 0xFBC, symBinAddr: 0x21EB0, symSize: 0xB8 }
  - { offset: 0x7A966, size: 0x8, addend: 0x0, symName: '__ZN5alloc11collections5btree4node115NodeRef$LT$alloc..collections..btree..node..marker..Mut$C$K$C$V$C$alloc..collections..btree..node..marker..Leaf$GT$16push_with_handle17h9b9b0880f26652abE', symObjAddr: 0x2C, symBinAddr: 0x20F20, symSize: 0x254 }
  - { offset: 0x7ADE0, size: 0x8, addend: 0x0, symName: '__ZN5alloc11collections5btree4node117NodeRef$LT$alloc..collections..btree..node..marker..Owned$C$K$C$V$C$alloc..collections..btree..node..marker..Leaf$GT$13from_new_leaf17h09e946d7687108bbE', symObjAddr: 0x280, symBinAddr: 0x21174, symSize: 0x58 }
  - { offset: 0x7AF34, size: 0x8, addend: 0x0, symName: '__ZN5alloc11collections5btree4node119NodeRef$LT$alloc..collections..btree..node..marker..Mut$C$K$C$V$C$alloc..collections..btree..node..marker..Internal$GT$30correct_childrens_parent_links17h8e52afb6c5d19d63E', symObjAddr: 0x2D8, symBinAddr: 0x211CC, symSize: 0xB4 }
  - { offset: 0x7B06A, size: 0x8, addend: 0x0, symName: '__ZN5alloc11collections5btree4node119NodeRef$LT$alloc..collections..btree..node..marker..Mut$C$K$C$V$C$alloc..collections..btree..node..marker..Internal$GT$30correct_childrens_parent_links17hcc7898a5f42828a8E', symObjAddr: 0x38C, symBinAddr: 0x21280, symSize: 0xB4 }
  - { offset: 0x7B4F2, size: 0x8, addend: 0x0, symName: '__ZN5alloc11collections5btree4node119NodeRef$LT$alloc..collections..btree..node..marker..Mut$C$K$C$V$C$alloc..collections..btree..node..marker..Internal$GT$4push17hd982ba8db160be88E', symObjAddr: 0x440, symBinAddr: 0x21334, symSize: 0x348 }
  - { offset: 0x7BA62, size: 0x8, addend: 0x0, symName: '__ZN5alloc11collections5btree4node121NodeRef$LT$alloc..collections..btree..node..marker..Owned$C$K$C$V$C$alloc..collections..btree..node..marker..Internal$GT$12new_internal17h6e509d6366de5b76E', symObjAddr: 0x788, symBinAddr: 0x2167C, symSize: 0xF8 }
  - { offset: 0x7BC84, size: 0x8, addend: 0x0, symName: '__ZN5alloc11collections5btree4node121NodeRef$LT$alloc..collections..btree..node..marker..Owned$C$K$C$V$C$alloc..collections..btree..node..marker..Internal$GT$17from_new_internal17h5de43832122ad8c1E', symObjAddr: 0x880, symBinAddr: 0x21774, symSize: 0xC8 }
  - { offset: 0x7BEC3, size: 0x8, addend: 0x0, symName: '__ZN5alloc11collections5btree4node127NodeRef$LT$alloc..collections..btree..node..marker..Dying$C$K$C$V$C$alloc..collections..btree..node..marker..LeafOrInternal$GT$21deallocate_and_ascend17hbe6210e6aee77ddcE', symObjAddr: 0x948, symBinAddr: 0x2183C, symSize: 0xFC }
  - { offset: 0x7C172, size: 0x8, addend: 0x0, symName: '__ZN5alloc11collections5btree4node171Handle$LT$alloc..collections..btree..node..NodeRef$LT$alloc..collections..btree..node..marker..Mut$C$K$C$V$C$NodeType$GT$$C$alloc..collections..btree..node..marker..KV$GT$12into_val_mut17h9ebaad49f1350b8cE', symObjAddr: 0x1074, symBinAddr: 0x21F68, symSize: 0x80 }
  - { offset: 0x7C518, size: 0x8, addend: 0x0, symName: '__ZN5alloc11collections5btree4node171Handle$LT$alloc..collections..btree..node..NodeRef$LT$alloc..collections..btree..node..marker..Mut$C$K$C$V$C$NodeType$GT$$C$alloc..collections..btree..node..marker..KV$GT$15split_leaf_data17h6897b1439389e9ddE', symObjAddr: 0x10F4, symBinAddr: 0x21FE8, symSize: 0x3CC }
  - { offset: 0x7CFC3, size: 0x8, addend: 0x0, symName: '__ZN5alloc11collections5btree4node171Handle$LT$alloc..collections..btree..node..NodeRef$LT$alloc..collections..btree..node..marker..Mut$C$K$C$V$C$NodeType$GT$$C$alloc..collections..btree..node..marker..KV$GT$15split_leaf_data17ha058bb99ae6eb799E', symObjAddr: 0x14C0, symBinAddr: 0x223B4, symSize: 0x3CC }
  - { offset: 0x7D8DA, size: 0x8, addend: 0x0, symName: '__ZN5alloc11collections5btree4node171Handle$LT$alloc..collections..btree..node..NodeRef$LT$alloc..collections..btree..node..marker..Mut$C$K$C$V$C$NodeType$GT$$C$alloc..collections..btree..node..marker..KV$GT$6kv_mut17h3e1a55eff25c5df2E', symObjAddr: 0x188C, symBinAddr: 0x22780, symSize: 0xFC }
  - { offset: 0x7DB1D, size: 0x8, addend: 0x0, symName: '__ZN5alloc11collections5btree4node173Handle$LT$alloc..collections..btree..node..NodeRef$LT$alloc..collections..btree..node..marker..Dying$C$K$C$V$C$NodeType$GT$$C$alloc..collections..btree..node..marker..KV$GT$12drop_key_val17h55657416eebdd65eE', symObjAddr: 0x1988, symBinAddr: 0x2287C, symSize: 0x114 }
  - { offset: 0x7DE6B, size: 0x8, addend: 0x0, symName: '__ZN5alloc11collections5btree4node173Handle$LT$alloc..collections..btree..node..NodeRef$LT$alloc..collections..btree..node..marker..Immut$C$K$C$V$C$NodeType$GT$$C$alloc..collections..btree..node..marker..KV$GT$7into_kv17h40f1394d86c1f3b4E', symObjAddr: 0x1A9C, symBinAddr: 0x22990, symSize: 0xD8 }
  - { offset: 0x7E038, size: 0x8, addend: 0x0, symName: '__ZN5alloc11collections5btree4node208Handle$LT$alloc..collections..btree..node..NodeRef$LT$alloc..collections..btree..node..marker..Mut$C$K$C$V$C$alloc..collections..btree..node..marker..Leaf$GT$$C$alloc..collections..btree..node..marker..KV$GT$5split17h2606f24920b4ae1aE', symObjAddr: 0x1B74, symBinAddr: 0x22A68, symSize: 0x124 }
  - { offset: 0x7E21D, size: 0x8, addend: 0x0, symName: '__ZN5alloc11collections5btree4node210Handle$LT$alloc..collections..btree..node..NodeRef$LT$alloc..collections..btree..node..marker..Mut$C$K$C$V$C$alloc..collections..btree..node..marker..Leaf$GT$$C$alloc..collections..btree..node..marker..Edge$GT$10insert_fit17h6e99e1c20c0db8f1E', symObjAddr: 0x1C98, symBinAddr: 0x22B8C, symSize: 0x1B0 }
  - { offset: 0x7E5A9, size: 0x8, addend: 0x0, symName: '__ZN5alloc11collections5btree4node210Handle$LT$alloc..collections..btree..node..NodeRef$LT$alloc..collections..btree..node..marker..Mut$C$K$C$V$C$alloc..collections..btree..node..marker..Leaf$GT$$C$alloc..collections..btree..node..marker..Edge$GT$16insert_recursing17hd13934890a4cdc0dE', symObjAddr: 0x1E48, symBinAddr: 0x22D3C, symSize: 0x54C }
  - { offset: 0x7EA26, size: 0x8, addend: 0x0, symName: '__ZN5alloc11collections5btree4node210Handle$LT$alloc..collections..btree..node..NodeRef$LT$alloc..collections..btree..node..marker..Mut$C$K$C$V$C$alloc..collections..btree..node..marker..Leaf$GT$$C$alloc..collections..btree..node..marker..Edge$GT$6insert17h8a4ad05f4853bee9E', symObjAddr: 0x2394, symBinAddr: 0x23288, symSize: 0x378 }
  - { offset: 0x7EE12, size: 0x8, addend: 0x0, symName: '__ZN5alloc11collections5btree4node212Handle$LT$alloc..collections..btree..node..NodeRef$LT$alloc..collections..btree..node..marker..Mut$C$K$C$V$C$alloc..collections..btree..node..marker..Internal$GT$$C$alloc..collections..btree..node..marker..KV$GT$5split17h26f18aedc57c78f5E', symObjAddr: 0x270C, symBinAddr: 0x23600, symSize: 0x2D0 }
  - { offset: 0x7F3B4, size: 0x8, addend: 0x0, symName: '__ZN5alloc11collections5btree4node214Handle$LT$alloc..collections..btree..node..NodeRef$LT$alloc..collections..btree..node..marker..Mut$C$K$C$V$C$alloc..collections..btree..node..marker..Internal$GT$$C$alloc..collections..btree..node..marker..Edge$GT$10insert_fit17hd10cb7c35151580dE', symObjAddr: 0x29DC, symBinAddr: 0x238D0, symSize: 0x23C }
  - { offset: 0x7F9B3, size: 0x8, addend: 0x0, symName: '__ZN5alloc11collections5btree4node214Handle$LT$alloc..collections..btree..node..NodeRef$LT$alloc..collections..btree..node..marker..Mut$C$K$C$V$C$alloc..collections..btree..node..marker..Internal$GT$$C$alloc..collections..btree..node..marker..Edge$GT$19correct_parent_link17h891a8debcbd25fbdE', symObjAddr: 0x2C18, symBinAddr: 0x23B0C, symSize: 0xE0 }
  - { offset: 0x7FD32, size: 0x8, addend: 0x0, symName: '__ZN5alloc11collections5btree4node214Handle$LT$alloc..collections..btree..node..NodeRef$LT$alloc..collections..btree..node..marker..Mut$C$K$C$V$C$alloc..collections..btree..node..marker..Internal$GT$$C$alloc..collections..btree..node..marker..Edge$GT$6insert17h2cbca019b404d6a4E', symObjAddr: 0x2CF8, symBinAddr: 0x23BEC, symSize: 0x33C }
  - { offset: 0x80023, size: 0x8, addend: 0x0, symName: '__ZN5alloc11collections5btree4node21LeafNode$LT$K$C$V$GT$3new17hb44486f067411693E', symObjAddr: 0x3034, symBinAddr: 0x23F28, symSize: 0x70 }
  - { offset: 0x8025C, size: 0x8, addend: 0x0, symName: '__ZN5alloc11collections5btree4node25InternalNode$LT$K$C$V$GT$3new17h4464b58e5687ac93E', symObjAddr: 0x30A4, symBinAddr: 0x23F98, symSize: 0x70 }
  - { offset: 0x80534, size: 0x8, addend: 0x0, symName: '__ZN5alloc11collections5btree4node40NodeRef$LT$BorrowType$C$K$C$V$C$Type$GT$6ascend17h860b56f5ab03816fE', symObjAddr: 0x3114, symBinAddr: 0x24008, symSize: 0x154 }
  - { offset: 0x807C3, size: 0x8, addend: 0x0, symName: '__ZN5alloc11collections5btree4node40NodeRef$LT$BorrowType$C$K$C$V$C$Type$GT$6ascend17h8eb070937f31e554E', symObjAddr: 0x3268, symBinAddr: 0x2415C, symSize: 0x154 }
  - { offset: 0x80A52, size: 0x8, addend: 0x0, symName: '__ZN5alloc11collections5btree4node40NodeRef$LT$BorrowType$C$K$C$V$C$Type$GT$6ascend17hd665e4158ede7df1E', symObjAddr: 0x33BC, symBinAddr: 0x242B0, symSize: 0x154 }
  - { offset: 0x80E34, size: 0x8, addend: 0x0, symName: '__ZN5alloc11collections5btree6search142_$LT$impl$u20$alloc..collections..btree..node..NodeRef$LT$BorrowType$C$K$C$V$C$alloc..collections..btree..node..marker..LeafOrInternal$GT$$GT$11search_tree17h6882322b76773abfE', symObjAddr: 0x37C4, symBinAddr: 0x24404, symSize: 0x2A8 }
  - { offset: 0x81388, size: 0x8, addend: 0x0, symName: '__ZN5alloc11collections5btree6search142_$LT$impl$u20$alloc..collections..btree..node..NodeRef$LT$BorrowType$C$K$C$V$C$alloc..collections..btree..node..marker..LeafOrInternal$GT$$GT$11search_tree17h6bb4b63e18f41982E', symObjAddr: 0x3A6C, symBinAddr: 0x246AC, symSize: 0x2A8 }
  - { offset: 0x818DC, size: 0x8, addend: 0x0, symName: '__ZN5alloc11collections5btree6search142_$LT$impl$u20$alloc..collections..btree..node..NodeRef$LT$BorrowType$C$K$C$V$C$alloc..collections..btree..node..marker..LeafOrInternal$GT$$GT$11search_tree17hf318a8ce2f61b492E', symObjAddr: 0x3D14, symBinAddr: 0x24954, symSize: 0x2B4 }
  - { offset: 0x81E0D, size: 0x8, addend: 0x0, symName: '__ZN5alloc11collections5btree6search91_$LT$impl$u20$alloc..collections..btree..node..NodeRef$LT$BorrowType$C$K$C$V$C$Type$GT$$GT$14find_key_index17h1445501340387786E', symObjAddr: 0x3FC8, symBinAddr: 0x24C08, symSize: 0x260 }
  - { offset: 0x823C4, size: 0x8, addend: 0x0, symName: '__ZN5alloc11collections5btree6search91_$LT$impl$u20$alloc..collections..btree..node..NodeRef$LT$BorrowType$C$K$C$V$C$Type$GT$$GT$14find_key_index17h83e790427ece4ea6E', symObjAddr: 0x4498, symBinAddr: 0x24E68, symSize: 0x260 }
  - { offset: 0x8297B, size: 0x8, addend: 0x0, symName: '__ZN5alloc11collections5btree6search91_$LT$impl$u20$alloc..collections..btree..node..NodeRef$LT$BorrowType$C$K$C$V$C$Type$GT$$GT$14find_key_index17hf3e5e9cfdddef882E', symObjAddr: 0x46F8, symBinAddr: 0x250C8, symSize: 0x270 }
  - { offset: 0x82F12, size: 0x8, addend: 0x0, symName: '__ZN5alloc11collections5btree8navigate227_$LT$impl$u20$alloc..collections..btree..node..Handle$LT$alloc..collections..btree..node..NodeRef$LT$BorrowType$C$K$C$V$C$alloc..collections..btree..node..marker..Leaf$GT$$C$alloc..collections..btree..node..marker..Edge$GT$$GT$7next_kv17haf481dc297f908b3E', symObjAddr: 0x4968, symBinAddr: 0x25338, symSize: 0x16C }
  - { offset: 0x8335E, size: 0x8, addend: 0x0, symName: '__ZN5alloc11collections5btree8navigate235_$LT$impl$u20$alloc..collections..btree..node..Handle$LT$alloc..collections..btree..node..NodeRef$LT$BorrowType$C$K$C$V$C$alloc..collections..btree..node..marker..LeafOrInternal$GT$$C$alloc..collections..btree..node..marker..KV$GT$$GT$14next_leaf_edge17he6c12d193738a2a8E', symObjAddr: 0x4AD4, symBinAddr: 0x254A4, symSize: 0x298 }
  - { offset: 0x83A98, size: 0x8, addend: 0x0, symName: '__ZN5alloc11collections5btree8navigate235_$LT$impl$u20$alloc..collections..btree..node..Handle$LT$alloc..collections..btree..node..NodeRef$LT$BorrowType$C$K$C$V$C$alloc..collections..btree..node..marker..LeafOrInternal$GT$$C$alloc..collections..btree..node..marker..KV$GT$$GT$14next_leaf_edge17hf16f91b4f253f061E', symObjAddr: 0x4D6C, symBinAddr: 0x2573C, symSize: 0x298 }
  - { offset: 0x83FC5, size: 0x8, addend: 0x0, symName: '__ZN5alloc11collections5btree8navigate263_$LT$impl$u20$alloc..collections..btree..node..Handle$LT$alloc..collections..btree..node..NodeRef$LT$alloc..collections..btree..node..marker..Dying$C$K$C$V$C$alloc..collections..btree..node..marker..Leaf$GT$$C$alloc..collections..btree..node..marker..Edge$GT$$GT$16deallocating_end17hfdf256232fb3dba9E', symObjAddr: 0x5004, symBinAddr: 0x259D4, symSize: 0xAC }
  - { offset: 0x84265, size: 0x8, addend: 0x0, symName: '__ZN5alloc11collections5btree8navigate263_$LT$impl$u20$alloc..collections..btree..node..Handle$LT$alloc..collections..btree..node..NodeRef$LT$alloc..collections..btree..node..marker..Dying$C$K$C$V$C$alloc..collections..btree..node..marker..Leaf$GT$$C$alloc..collections..btree..node..marker..Edge$GT$$GT$17deallocating_next17hcf5745681217d68bE', symObjAddr: 0x50B0, symBinAddr: 0x25A80, symSize: 0x22C }
  - { offset: 0x84458, size: 0x8, addend: 0x0, symName: __ZN10serde_core2de7Visitor18visit_borrowed_str17h44c675c2a8d00e34E, symObjAddr: 0x0, symBinAddr: 0x25CAC, symSize: 0x28 }
  - { offset: 0x8464E, size: 0x8, addend: 0x0, symName: '__ZN78_$LT$std..io..error..repr_bitpacked..Repr$u20$as$u20$core..ops..drop..Drop$GT$4drop28_$u7b$$u7b$closure$u7d$$u7d$17h0319447f2ab10f36E', symObjAddr: 0x2B24, symBinAddr: 0x26CBC, symSize: 0x3C }
  - { offset: 0x84703, size: 0x8, addend: 0x0, symName: '__ZN78_$LT$std..io..error..repr_bitpacked..Repr$u20$as$u20$core..ops..drop..Drop$GT$4drop17hf69385f33b5b3d89E', symObjAddr: 0x2AEC, symBinAddr: 0x26C84, symSize: 0x38 }
  - { offset: 0x8472C, size: 0x8, addend: 0x0, symName: __ZN3std2io5error14repr_bitpacked11decode_repr17h6edfb964424158b5E, symObjAddr: 0xD28, symBinAddr: 0x2642C, symSize: 0x1DC }
  - { offset: 0x84971, size: 0x8, addend: 0x0, symName: __ZN3std2io5error14repr_bitpacked14kind_from_prim17ha85d4a5ca6eb99cfE, symObjAddr: 0xF04, symBinAddr: 0x26608, symSize: 0x4B0 }
  - { offset: 0x85C0A, size: 0x8, addend: 0x0, symName: __ZN4core4hint16assert_unchecked18precondition_check17h0165a7b319b1f000E, symObjAddr: 0x1EC8, symBinAddr: 0x26AB8, symSize: 0x58 }
  - { offset: 0x85C50, size: 0x8, addend: 0x0, symName: __ZN4core4hint21unreachable_unchecked17h7e246dd9c39fcbb9E, symObjAddr: 0x1F20, symBinAddr: 0x26B10, symSize: 0x10 }
  - { offset: 0x85C6E, size: 0x8, addend: 0x0, symName: __ZN4core4hint21unreachable_unchecked18precondition_check17ha378c420ad011dcfE, symObjAddr: 0x1F30, symBinAddr: 0x26B20, symSize: 0x3C }
  - { offset: 0x85F74, size: 0x8, addend: 0x0, symName: __ZN4core9ub_checks23maybe_is_nonoverlapping7runtime17hdc4d9cf231680163E, symObjAddr: 0x1F6C, symBinAddr: 0x26B5C, symSize: 0xD8 }
  - { offset: 0x86131, size: 0x8, addend: 0x0, symName: __ZN10serde_core2de7Visitor18visit_borrowed_str17h44c675c2a8d00e34E, symObjAddr: 0x0, symBinAddr: 0x25CAC, symSize: 0x28 }
  - { offset: 0x86180, size: 0x8, addend: 0x0, symName: __ZN10serde_core2de7Visitor18visit_borrowed_str17hc1254950407d265fE, symObjAddr: 0x28, symBinAddr: 0x25CD4, symSize: 0x28 }
  - { offset: 0x8648E, size: 0x8, addend: 0x0, symName: '__ZN175_$LT$serde_json..value..de..$LT$impl$u20$serde_core..de..Deserialize$u20$for$u20$serde_json..value..Value$GT$..deserialize..ValueVisitor$u20$as$u20$serde_core..de..Visitor$GT$10visit_bool17haa01027336d62ed4E', symObjAddr: 0x3DC, symBinAddr: 0x25CFC, symSize: 0x2C }
  - { offset: 0x864DC, size: 0x8, addend: 0x0, symName: '__ZN175_$LT$serde_json..value..de..$LT$impl$u20$serde_core..de..Deserialize$u20$for$u20$serde_json..value..Value$GT$..deserialize..ValueVisitor$u20$as$u20$serde_core..de..Visitor$GT$10visit_unit17h0a3fdb0f99ff31a2E', symObjAddr: 0x408, symBinAddr: 0x25D28, symSize: 0x20 }
  - { offset: 0x8651C, size: 0x8, addend: 0x0, symName: '__ZN175_$LT$serde_json..value..de..$LT$impl$u20$serde_core..de..Deserialize$u20$for$u20$serde_json..value..Value$GT$..deserialize..ValueVisitor$u20$as$u20$serde_core..de..Visitor$GT$12visit_string17hdf88e0caa55ae8d6E', symObjAddr: 0x428, symBinAddr: 0x25D48, symSize: 0x38 }
  - { offset: 0x8656A, size: 0x8, addend: 0x0, symName: '__ZN175_$LT$serde_json..value..de..$LT$impl$u20$serde_core..de..Deserialize$u20$for$u20$serde_json..value..Value$GT$..deserialize..ValueVisitor$u20$as$u20$serde_core..de..Visitor$GT$9visit_f6417hf4049154c2558987E', symObjAddr: 0x4A0, symBinAddr: 0x25D80, symSize: 0x54 }
  - { offset: 0x865B8, size: 0x8, addend: 0x0, symName: '__ZN175_$LT$serde_json..value..de..$LT$impl$u20$serde_core..de..Deserialize$u20$for$u20$serde_json..value..Value$GT$..deserialize..ValueVisitor$u20$as$u20$serde_core..de..Visitor$GT$9visit_i6417h9b8b4f1a6e42da58E', symObjAddr: 0x4F4, symBinAddr: 0x25DD4, symSize: 0x58 }
  - { offset: 0x86606, size: 0x8, addend: 0x0, symName: '__ZN175_$LT$serde_json..value..de..$LT$impl$u20$serde_core..de..Deserialize$u20$for$u20$serde_json..value..Value$GT$..deserialize..ValueVisitor$u20$as$u20$serde_core..de..Visitor$GT$9visit_map17hf5a676bc2bfae6c3E', symObjAddr: 0x54C, symBinAddr: 0x25E2C, symSize: 0x3F8 }
  - { offset: 0x86702, size: 0x8, addend: 0x0, symName: '__ZN175_$LT$serde_json..value..de..$LT$impl$u20$serde_core..de..Deserialize$u20$for$u20$serde_json..value..Value$GT$..deserialize..ValueVisitor$u20$as$u20$serde_core..de..Visitor$GT$9visit_seq17h7b1760ce0ebd8669E', symObjAddr: 0x944, symBinAddr: 0x26224, symSize: 0x170 }
  - { offset: 0x8679B, size: 0x8, addend: 0x0, symName: '__ZN175_$LT$serde_json..value..de..$LT$impl$u20$serde_core..de..Deserialize$u20$for$u20$serde_json..value..Value$GT$..deserialize..ValueVisitor$u20$as$u20$serde_core..de..Visitor$GT$9visit_str17h69521452898dceccE', symObjAddr: 0xAB4, symBinAddr: 0x26394, symSize: 0x40 }
  - { offset: 0x867E9, size: 0x8, addend: 0x0, symName: '__ZN175_$LT$serde_json..value..de..$LT$impl$u20$serde_core..de..Deserialize$u20$for$u20$serde_json..value..Value$GT$..deserialize..ValueVisitor$u20$as$u20$serde_core..de..Visitor$GT$9visit_u6417hdd3e5c0e6097e48eE', symObjAddr: 0xAF4, symBinAddr: 0x263D4, symSize: 0x58 }
  - { offset: 0x86847, size: 0x8, addend: 0x0, symName: '__ZN80_$LT$serde_json..value..de..KeyClassifier$u20$as$u20$serde_core..de..Visitor$GT$9visit_str17h9e597d8e78e05740E', symObjAddr: 0x313C, symBinAddr: 0x26CF8, symSize: 0x54 }
  - { offset: 0x8689F, size: 0x8, addend: 0x0, symName: '__ZN88_$LT$serde_json..value..de..KeyClassifier$u20$as$u20$serde_core..de..DeserializeSeed$GT$11deserialize17h28d26e399443464cE', symObjAddr: 0x3D18, symBinAddr: 0x26D4C, symSize: 0x24 }
  - { offset: 0x86F48, size: 0x8, addend: 0x0, symName: '__ZN5alloc3str56_$LT$impl$u20$alloc..borrow..ToOwned$u20$for$u20$str$GT$8to_owned17h746d8a2c9f7ee595E', symObjAddr: 0x2A9C, symBinAddr: 0x26C34, symSize: 0x50 }
  - { offset: 0x87576, size: 0x8, addend: 0x0, symName: '__ZN108_$LT$alloc..collections..btree..map..Iter$LT$K$C$V$GT$$u20$as$u20$core..iter..traits..iterator..Iterator$GT$4next17hf1ee7de148ca2d6bE', symObjAddr: 0x0, symBinAddr: 0x26D70, symSize: 0xB0 }
  - { offset: 0x879F8, size: 0x8, addend: 0x0, symName: '__ZN4core3ptr100drop_in_place$LT$core..result..Result$LT$serde_json..value..Value$C$serde_json..error..Error$GT$$GT$17ha75454fa8ab85f6eE', symObjAddr: 0x102C, symBinAddr: 0x2726C, symSize: 0x58 }
  - { offset: 0x87A27, size: 0x8, addend: 0x0, symName: '__ZN4core3ptr101drop_in_place$LT$std..io..error..ErrorData$LT$alloc..boxed..Box$LT$std..io..error..Custom$GT$$GT$$GT$17hb0cd204128ecd5dfE', symObjAddr: 0x1084, symBinAddr: 0x272C4, symSize: 0x48 }
  - { offset: 0x87A56, size: 0x8, addend: 0x0, symName: '__ZN4core3ptr106drop_in_place$LT$core..result..Result$LT$core..option..Option$LT$u8$GT$$C$serde_json..error..Error$GT$$GT$17hb58c50e5c0fcb12eE', symObjAddr: 0x1118, symBinAddr: 0x2730C, symSize: 0x40 }
  - { offset: 0x87A85, size: 0x8, addend: 0x0, symName: '__ZN4core3ptr117drop_in_place$LT$alloc..collections..btree..map..BTreeMap$LT$alloc..string..String$C$serde_json..value..Value$GT$$GT$17hdf13b749be6bb3eaE', symObjAddr: 0x1158, symBinAddr: 0x2734C, symSize: 0x24 }
  - { offset: 0x87AB4, size: 0x8, addend: 0x0, symName: '__ZN4core3ptr117drop_in_place$LT$alloc..collections..btree..map..IntoIter$LT$alloc..string..String$C$serde_json..value..Value$GT$$GT$17h59895e74279d40e2E', symObjAddr: 0x117C, symBinAddr: 0x27370, symSize: 0x24 }
  - { offset: 0x87AE3, size: 0x8, addend: 0x0, symName: '__ZN4core3ptr118drop_in_place$LT$alloc..boxed..Box$LT$dyn$u20$core..error..Error$u2b$core..marker..Sync$u2b$core..marker..Send$GT$$GT$17hde131809c869c605E', symObjAddr: 0x11A0, symBinAddr: 0x27394, symSize: 0x80 }
  - { offset: 0x87B12, size: 0x8, addend: 0x0, symName: '__ZN4core3ptr143drop_in_place$LT$alloc..boxed..Box$LT$alloc..collections..btree..node..LeafNode$LT$alloc..string..String$C$serde_json..value..Value$GT$$GT$$GT$17h2ffd140be3fd9393E', symObjAddr: 0x1220, symBinAddr: 0x27414, symSize: 0x2C }
  - { offset: 0x87B41, size: 0x8, addend: 0x0, symName: '__ZN4core3ptr147drop_in_place$LT$alloc..boxed..Box$LT$alloc..collections..btree..node..InternalNode$LT$alloc..string..String$C$serde_json..value..Value$GT$$GT$$GT$17h3a66b988df82b4e2E', symObjAddr: 0x124C, symBinAddr: 0x27440, symSize: 0x2C }
  - { offset: 0x87B70, size: 0x8, addend: 0x0, symName: '__ZN4core3ptr169drop_in_place$LT$alloc..collections..btree..node..SplitResult$LT$alloc..string..String$C$serde_json..value..Value$C$alloc..collections..btree..node..marker..Leaf$GT$$GT$17h1fade8609dc56407E', symObjAddr: 0x12C8, symBinAddr: 0x2746C, symSize: 0x24 }
  - { offset: 0x87B9F, size: 0x8, addend: 0x0, symName: '__ZN4core3ptr173drop_in_place$LT$alloc..collections..btree..node..SplitResult$LT$alloc..string..String$C$serde_json..value..Value$C$alloc..collections..btree..node..marker..Internal$GT$$GT$17h2aa29eb72370f400E', symObjAddr: 0x12EC, symBinAddr: 0x27490, symSize: 0x24 }
  - { offset: 0x87BCE, size: 0x8, addend: 0x0, symName: '__ZN4core3ptr215drop_in_place$LT$$LT$alloc..collections..btree..map..IntoIter$LT$K$C$V$C$A$GT$$u20$as$u20$core..ops..drop..Drop$GT$..drop..DropGuard$LT$alloc..string..String$C$serde_json..value..Value$C$alloc..alloc..Global$GT$$GT$17h7d7e92d38a69a54eE', symObjAddr: 0x1310, symBinAddr: 0x274B4, symSize: 0x24 }
  - { offset: 0x87BFD, size: 0x8, addend: 0x0, symName: '__ZN4core3ptr282drop_in_place$LT$alloc..collections..btree..node..Handle$LT$alloc..collections..btree..node..NodeRef$LT$alloc..collections..btree..node..marker..Dying$C$K$C$V$C$NodeType$GT$$C$alloc..collections..btree..node..marker..KV$GT$..drop_key_val..Dropper$LT$serde_json..value..Value$GT$$GT$17h9c622665f677b163E', symObjAddr: 0x1358, symBinAddr: 0x274D8, symSize: 0x24 }
  - { offset: 0x87C2C, size: 0x8, addend: 0x0, symName: '__ZN4core3ptr42drop_in_place$LT$alloc..string..String$GT$17h76ef7360ea370beeE', symObjAddr: 0x13C4, symBinAddr: 0x274FC, symSize: 0x24 }
  - { offset: 0x87C5B, size: 0x8, addend: 0x0, symName: '__ZN4core3ptr42drop_in_place$LT$std..io..error..Error$GT$17he976d3e1af599da7E', symObjAddr: 0x13E8, symBinAddr: 0x27520, symSize: 0x24 }
  - { offset: 0x87C8A, size: 0x8, addend: 0x0, symName: '__ZN4core3ptr43drop_in_place$LT$std..io..error..Custom$GT$17h804b5b3f1fb7b8bdE', symObjAddr: 0x140C, symBinAddr: 0x27544, symSize: 0x24 }
  - { offset: 0x87CB9, size: 0x8, addend: 0x0, symName: '__ZN4core3ptr45drop_in_place$LT$serde_json..error..Error$GT$17h5aba5c9583a93733E', symObjAddr: 0x1454, symBinAddr: 0x27568, symSize: 0x24 }
  - { offset: 0x87CE8, size: 0x8, addend: 0x0, symName: '__ZN4core3ptr45drop_in_place$LT$serde_json..value..Value$GT$17h54755c134f7a073dE', symObjAddr: 0x1478, symBinAddr: 0x2758C, symSize: 0x8C }
  - { offset: 0x87D17, size: 0x8, addend: 0x0, symName: '__ZN4core3ptr46drop_in_place$LT$alloc..vec..Vec$LT$u8$GT$$GT$17h5bf0366267802a84E', symObjAddr: 0x1504, symBinAddr: 0x27618, symSize: 0x5C }
  - { offset: 0x87D46, size: 0x8, addend: 0x0, symName: '__ZN4core3ptr49drop_in_place$LT$serde_json..error..ErrorCode$GT$17h275897b79245c087E', symObjAddr: 0x1584, symBinAddr: 0x27674, symSize: 0x64 }
  - { offset: 0x87D75, size: 0x8, addend: 0x0, symName: '__ZN4core3ptr49drop_in_place$LT$serde_json..error..ErrorImpl$GT$17heffb18edf5e7c9e8E', symObjAddr: 0x15E8, symBinAddr: 0x276D8, symSize: 0x24 }
  - { offset: 0x87DA4, size: 0x8, addend: 0x0, symName: '__ZN4core3ptr53drop_in_place$LT$alloc..raw_vec..RawVec$LT$u8$GT$$GT$17h5a08de5057b1fdecE', symObjAddr: 0x160C, symBinAddr: 0x276FC, symSize: 0x24 }
  - { offset: 0x87DD3, size: 0x8, addend: 0x0, symName: '__ZN4core3ptr55drop_in_place$LT$$u5b$serde_json..value..Value$u5d$$GT$17h64c4488f3211ef0aE', symObjAddr: 0x1630, symBinAddr: 0x27720, symSize: 0xB4 }
  - { offset: 0x87E02, size: 0x8, addend: 0x0, symName: '__ZN4core3ptr57drop_in_place$LT$std..io..error..repr_bitpacked..Repr$GT$17h1b801df94aac5b01E', symObjAddr: 0x16E4, symBinAddr: 0x277D4, symSize: 0x24 }
  - { offset: 0x87E31, size: 0x8, addend: 0x0, symName: '__ZN4core3ptr68drop_in_place$LT$alloc..boxed..Box$LT$std..io..error..Custom$GT$$GT$17h666e3b05df918040E', symObjAddr: 0x1750, symBinAddr: 0x277F8, symSize: 0x60 }
  - { offset: 0x87E60, size: 0x8, addend: 0x0, symName: '__ZN4core3ptr68drop_in_place$LT$alloc..vec..Vec$LT$serde_json..value..Value$GT$$GT$17h85d99a98f24d4a72E', symObjAddr: 0x17B0, symBinAddr: 0x27858, symSize: 0x5C }
  - { offset: 0x87E8F, size: 0x8, addend: 0x0, symName: '__ZN4core3ptr72drop_in_place$LT$alloc..collections..btree..mem..replace..PanicGuard$GT$17hb30db1079e3b8056E', symObjAddr: 0x1854, symBinAddr: 0x278B4, symSize: 0x24 }
  - { offset: 0x87EBE, size: 0x8, addend: 0x0, symName: '__ZN4core3ptr73drop_in_place$LT$core..option..Option$LT$serde_json..value..Value$GT$$GT$17h40ee8528e8ce9542E', symObjAddr: 0x1878, symBinAddr: 0x278D8, symSize: 0x44 }
  - { offset: 0x87EED, size: 0x8, addend: 0x0, symName: '__ZN4core3ptr74drop_in_place$LT$alloc..boxed..Box$LT$serde_json..error..ErrorImpl$GT$$GT$17hf977d9c349d824deE', symObjAddr: 0x18BC, symBinAddr: 0x2791C, symSize: 0x60 }
  - { offset: 0x87F1C, size: 0x8, addend: 0x0, symName: '__ZN4core3ptr75drop_in_place$LT$alloc..raw_vec..RawVec$LT$serde_json..value..Value$GT$$GT$17ha811a1d7a020dce7E', symObjAddr: 0x191C, symBinAddr: 0x2797C, symSize: 0x24 }
  - { offset: 0x87F4B, size: 0x8, addend: 0x0, symName: '__ZN4core3ptr77drop_in_place$LT$$LP$alloc..string..String$C$serde_json..value..Value$RP$$GT$17h79fbe10dd72761feE', symObjAddr: 0x1940, symBinAddr: 0x279A0, symSize: 0x60 }
  - { offset: 0x87F7A, size: 0x8, addend: 0x0, symName: '__ZN4core3ptr82drop_in_place$LT$serde_json..de..Deserializer$LT$serde_json..read..StrRead$GT$$GT$17hd040c101451cf365E', symObjAddr: 0x19E0, symBinAddr: 0x27A00, symSize: 0x24 }
  - { offset: 0x87FA9, size: 0x8, addend: 0x0, symName: '__ZN4core3ptr97drop_in_place$LT$serde_json..map..Map$LT$alloc..string..String$C$serde_json..value..Value$GT$$GT$17hd33d878154cd3a84E', symObjAddr: 0x1A4C, symBinAddr: 0x27A24, symSize: 0x24 }
  - { offset: 0x87FE7, size: 0x8, addend: 0x0, symName: '__ZN4core3ptr9const_ptr33_$LT$impl$u20$$BP$const$u20$T$GT$20offset_from_unsigned18precondition_check17h85408d206cb154a6E', symObjAddr: 0x1A70, symBinAddr: 0x27A48, symSize: 0x60 }
  - { offset: 0x880D0, size: 0x8, addend: 0x0, symName: '__ZN4core3ptr9const_ptr33_$LT$impl$u20$$BP$const$u20$T$GT$6offset18precondition_check17h6e6c99e509dca960E', symObjAddr: 0x1AD0, symBinAddr: 0x27AA8, symSize: 0xC4 }
  - { offset: 0x89418, size: 0x8, addend: 0x0, symName: __ZN4core3ops8function2Fn4call17h2c743c9303966e23E, symObjAddr: 0xE44, symBinAddr: 0x27188, symSize: 0x40 }
  - { offset: 0x8949D, size: 0x8, addend: 0x0, symName: __ZN4core3ops8function6FnOnce9call_once17h412030be90de10cdE, symObjAddr: 0xEB0, symBinAddr: 0x271C8, symSize: 0x28 }
  - { offset: 0x894E1, size: 0x8, addend: 0x0, symName: __ZN4core3ops8function6FnOnce9call_once17h492bf6345ff6fb0aE, symObjAddr: 0xF20, symBinAddr: 0x271F0, symSize: 0x24 }
  - { offset: 0x89525, size: 0x8, addend: 0x0, symName: __ZN4core3ops8function6FnOnce9call_once17h9e2dcbdbb7721256E, symObjAddr: 0xF44, symBinAddr: 0x27214, symSize: 0x2C }
  - { offset: 0x89569, size: 0x8, addend: 0x0, symName: __ZN4core3ops8function6FnOnce9call_once17ha3343d146e3c7b86E, symObjAddr: 0xF70, symBinAddr: 0x27240, symSize: 0x2C }
  - { offset: 0x895E8, size: 0x8, addend: 0x0, symName: '__ZN50_$LT$T$u20$as$u20$core..convert..Into$LT$U$GT$$GT$4into17h62ad5bd270b21ecaE', symObjAddr: 0x240C, symBinAddr: 0x27DF0, symSize: 0x20 }
  - { offset: 0x89628, size: 0x8, addend: 0x0, symName: '__ZN50_$LT$T$u20$as$u20$core..convert..Into$LT$U$GT$$GT$4into17h68fa6a84d73df16cE', symObjAddr: 0x242C, symBinAddr: 0x27E10, symSize: 0x20 }
  - { offset: 0x8966E, size: 0x8, addend: 0x0, symName: '__ZN53_$LT$T$u20$as$u20$core..convert..TryInto$LT$U$GT$$GT$8try_into17h1b716d2809d3dba9E', symObjAddr: 0x250C, symBinAddr: 0x27E30, symSize: 0x28 }
  - { offset: 0x896AE, size: 0x8, addend: 0x0, symName: '__ZN53_$LT$T$u20$as$u20$core..convert..TryInto$LT$U$GT$$GT$8try_into17h74d441582454dd15E', symObjAddr: 0x25D4, symBinAddr: 0x27E58, symSize: 0x28 }
  - { offset: 0x89704, size: 0x8, addend: 0x0, symName: '__ZN110_$LT$core..iter..adapters..enumerate..Enumerate$LT$I$GT$$u20$as$u20$core..iter..traits..iterator..Iterator$GT$4next17he2a3aee19fae551dE', symObjAddr: 0x680, symBinAddr: 0x26E20, symSize: 0xE0 }
  - { offset: 0x89AC9, size: 0x8, addend: 0x0, symName: '__ZN53_$LT$core..fmt..Error$u20$as$u20$core..fmt..Debug$GT$3fmt17hf5fb425baac0d10bE', symObjAddr: 0x25FC, symBinAddr: 0x27E80, symSize: 0x40 }
  - { offset: 0x89B0F, size: 0x8, addend: 0x0, symName: '__ZN4core3f6421_$LT$impl$u20$f64$GT$11is_infinite17hb8d8f3398936976aE', symObjAddr: 0xA14, symBinAddr: 0x26F64, symSize: 0x34 }
  - { offset: 0x89B5B, size: 0x8, addend: 0x0, symName: '__ZN4core3f6421_$LT$impl$u20$f64$GT$9is_finite17h134ef0bb7c5b9edaE', symObjAddr: 0xB1C, symBinAddr: 0x26F98, symSize: 0x2C }
  - { offset: 0x89FA8, size: 0x8, addend: 0x0, symName: __ZN4core4char7methods25encode_utf8_raw_unchecked17hef159093f3aef16dE, symObjAddr: 0x1E78, symBinAddr: 0x27B6C, symSize: 0x188 }
  - { offset: 0x8A173, size: 0x8, addend: 0x0, symName: '__ZN4core5array118_$LT$impl$u20$core..convert..TryFrom$LT$$RF$mut$u20$$u5b$T$u5d$$GT$$u20$for$u20$$RF$mut$u20$$u5b$T$u3b$$u20$N$u5d$$GT$8try_from17h8988f8b391725003E', symObjAddr: 0x20C8, symBinAddr: 0x27CF4, symSize: 0x64 }
  - { offset: 0x8A285, size: 0x8, addend: 0x0, symName: '__ZN4core5array88_$LT$impl$u20$core..ops..index..IndexMut$LT$I$GT$$u20$for$u20$$u5b$T$u3b$$u20$N$u5d$$GT$9index_mut17h21797d08d0f45f6bE', symObjAddr: 0x2244, symBinAddr: 0x27D58, symSize: 0x50 }
  - { offset: 0x8A310, size: 0x8, addend: 0x0, symName: __ZN4core9core_arch7aarch644neon9generated8vld1q_u817h5f3603517ed9d06cE, symObjAddr: 0x2384, symBinAddr: 0x27DA8, symSize: 0x34 }
  - { offset: 0x8A33E, size: 0x8, addend: 0x0, symName: __ZN4core9core_arch7aarch644neon9generated9vpmaxq_u817hb1dc9f1a41f62169E, symObjAddr: 0x23B8, symBinAddr: 0x27DDC, symSize: 0x14 }
  - { offset: 0x8B300, size: 0x8, addend: 0x0, symName: '__ZN108_$LT$alloc..collections..btree..map..Iter$LT$K$C$V$GT$$u20$as$u20$core..iter..traits..iterator..Iterator$GT$4next17hf1ee7de148ca2d6bE', symObjAddr: 0x0, symBinAddr: 0x26D70, symSize: 0xB0 }
  - { offset: 0x8B404, size: 0x8, addend: 0x0, symName: '__ZN174_$LT$$LT$alloc..collections..btree..map..IntoIter$LT$K$C$V$C$A$GT$$u20$as$u20$core..ops..drop..Drop$GT$..drop..DropGuard$LT$K$C$V$C$A$GT$$u20$as$u20$core..ops..drop..Drop$GT$4drop17h3df2bd59647dcafaE', symObjAddr: 0x8F0, symBinAddr: 0x26F00, symSize: 0x64 }
  - { offset: 0x8B499, size: 0x8, addend: 0x0, symName: '__ZN99_$LT$alloc..collections..btree..map..IntoIter$LT$K$C$V$C$A$GT$$u20$as$u20$core..ops..drop..Drop$GT$4drop17h9c8c90e7b86d8496E', symObjAddr: 0x5DAC, symBinAddr: 0x2B2E8, symSize: 0x9C }
  - { offset: 0x8B744, size: 0x8, addend: 0x0, symName: '__ZN99_$LT$alloc..collections..btree..map..BTreeMap$LT$K$C$V$C$A$GT$$u20$as$u20$core..ops..drop..Drop$GT$4drop17h676d05c1f0580df2E', symObjAddr: 0x5C34, symBinAddr: 0x2B170, symSize: 0x178 }
  - { offset: 0x8B954, size: 0x8, addend: 0x0, symName: __ZN5alloc11collections5btree3mem7replace17h69f768d0243a1b38E, symObjAddr: 0x2F44, symBinAddr: 0x2861C, symSize: 0xCC }
  - { offset: 0x8BA44, size: 0x8, addend: 0x0, symName: __ZN5alloc11collections5btree3mem7replace17hbd2d6522f3d1f5b3E, symObjAddr: 0x3010, symBinAddr: 0x286E8, symSize: 0xC4 }
  - { offset: 0x8BB33, size: 0x8, addend: 0x0, symName: __ZN5alloc11collections5btree3mem7replace17hd527fb13eb89f33aE, symObjAddr: 0x30D4, symBinAddr: 0x287AC, symSize: 0x90 }
  - { offset: 0x8BC21, size: 0x8, addend: 0x0, symName: '__ZN5alloc11collections5btree3mem8take_mut28_$u7b$$u7b$closure$u7d$$u7d$17h574424ec58b6760cE', symObjAddr: 0x3164, symBinAddr: 0x2883C, symSize: 0x28 }
  - { offset: 0x8BC8C, size: 0x8, addend: 0x0, symName: '__ZN93_$LT$alloc..collections..btree..mem..replace..PanicGuard$u20$as$u20$core..ops..drop..Drop$GT$4drop17hd9b8b8c837af241bE', symObjAddr: 0x5AEC, symBinAddr: 0x2B164, symSize: 0xC }
  - { offset: 0x8C6C0, size: 0x8, addend: 0x0, symName: __ZN4core3fmt9Arguments23as_statically_known_str17h9c084fec97093f65E, symObjAddr: 0xB48, symBinAddr: 0x26FC4, symSize: 0x104 }
  - { offset: 0x8C86A, size: 0x8, addend: 0x0, symName: __ZN4core3fmt9Arguments3new17hae23167791a7fb4dE, symObjAddr: 0xCBC, symBinAddr: 0x270C8, symSize: 0x1C }
  - { offset: 0x8C8F7, size: 0x8, addend: 0x0, symName: __ZN4core3fmt9Formatter9write_fmt17h514455e54ffe233dE, symObjAddr: 0xD6C, symBinAddr: 0x270E4, symSize: 0xA4 }
  - { offset: 0x8CBDB, size: 0x8, addend: 0x0, symName: '__ZN6memchr4arch7aarch644neon6memchr3One9count_raw28_$u7b$$u7b$closure$u7d$$u7d$17he958da0ace2cebeaE', symObjAddr: 0x3F2C, symBinAddr: 0x295A4, symSize: 0x30 }
  - { offset: 0x8CCD4, size: 0x8, addend: 0x0, symName: '__ZN6memchr4arch7aarch644neon6memchr3Two8find_raw28_$u7b$$u7b$closure$u7d$$u7d$17hc0e1521f117bbe5dE', symObjAddr: 0x5560, symBinAddr: 0x2ABD8, symSize: 0x78 }
  - { offset: 0x8CE80, size: 0x8, addend: 0x0, symName: '__ZN6memchr4arch7generic6memchr12One$LT$V$GT$9count_raw28_$u7b$$u7b$closure$u7d$$u7d$17h09d1ddc8b018fb5fE', symObjAddr: 0x55D8, symBinAddr: 0x2AC50, symSize: 0x30 }
  - { offset: 0x8D267, size: 0x8, addend: 0x0, symName: __ZN6memchr6memchr11memchr2_raw17hd19a0a2f4cfd528cE, symObjAddr: 0x5608, symBinAddr: 0x2AC80, symSize: 0x9C }
  - { offset: 0x8D2F8, size: 0x8, addend: 0x0, symName: __ZN6memchr6memchr11memchr_iter17hde0e8f44b0f18412E, symObjAddr: 0x56A4, symBinAddr: 0x2AD1C, symSize: 0x2C }
  - { offset: 0x8D391, size: 0x8, addend: 0x0, symName: '__ZN6memchr6memchr7memchr228_$u7b$$u7b$closure$u7d$$u7d$17h369e3c76d98f6a44E', symObjAddr: 0x5864, symBinAddr: 0x2AEDC, symSize: 0x54 }
  - { offset: 0x8D3F0, size: 0x8, addend: 0x0, symName: __ZN6memchr6memchr7memchr217hc41e48ac6101a3d9E, symObjAddr: 0x5744, symBinAddr: 0x2ADBC, symSize: 0x120 }
  - { offset: 0x8D4DF, size: 0x8, addend: 0x0, symName: __ZN6memchr6memchr7memrchr17hae1fbca129d28ae0E, symObjAddr: 0x58B8, symBinAddr: 0x2AF30, symSize: 0x10C }
  - { offset: 0x8D5A6, size: 0x8, addend: 0x0, symName: __ZN6memchr6memchr9count_raw17hd9f97ac2f4148a1fE, symObjAddr: 0x59C4, symBinAddr: 0x2B03C, symSize: 0x8C }
  - { offset: 0x8D63D, size: 0x8, addend: 0x0, symName: '__ZN81_$LT$memchr..memchr..Memchr$u20$as$u20$core..iter..traits..iterator..Iterator$GT$5count28_$u7b$$u7b$closure$u7d$$u7d$17heb524bf1ed6cb3b6E', symObjAddr: 0x5AB0, symBinAddr: 0x2B128, symSize: 0x3C }
  - { offset: 0x8D68D, size: 0x8, addend: 0x0, symName: '__ZN81_$LT$memchr..memchr..Memchr$u20$as$u20$core..iter..traits..iterator..Iterator$GT$5count17hbf4c67d55dac588bE', symObjAddr: 0x5A50, symBinAddr: 0x2B0C8, symSize: 0x60 }
  - { offset: 0x8D805, size: 0x8, addend: 0x0, symName: '__ZN5alloc11collections5btree3map21BTreeMap$LT$K$C$V$GT$3new17h1fb1a7017eb49e31E', symObjAddr: 0x263C, symBinAddr: 0x27EC0, symSize: 0x24 }
  - { offset: 0x8D8B4, size: 0x8, addend: 0x0, symName: '__ZN5alloc11collections5btree3map25BTreeMap$LT$K$C$V$C$A$GT$3get17h467d75741553ccf2E', symObjAddr: 0x2660, symBinAddr: 0x27EE4, symSize: 0xD0 }
  - { offset: 0x8DA5C, size: 0x8, addend: 0x0, symName: '__ZN5alloc11collections5btree3map25BTreeMap$LT$K$C$V$C$A$GT$3get17h850f5e850ea9da30E', symObjAddr: 0x2730, symBinAddr: 0x27FB4, symSize: 0xDC }
  - { offset: 0x8DBA3, size: 0x8, addend: 0x0, symName: '__ZN5alloc11collections5btree3map25BTreeMap$LT$K$C$V$C$A$GT$3len17h0364bb5a6a2d2538E', symObjAddr: 0x280C, symBinAddr: 0x28090, symSize: 0x18 }
  - { offset: 0x8DC5F, size: 0x8, addend: 0x0, symName: '__ZN5alloc11collections5btree3map25BTreeMap$LT$K$C$V$C$A$GT$4iter17hae41cc1143c62bb9E', symObjAddr: 0x2824, symBinAddr: 0x280A8, symSize: 0x11C }
  - { offset: 0x8DE5B, size: 0x8, addend: 0x0, symName: '__ZN5alloc11collections5btree3map25BTreeMap$LT$K$C$V$C$A$GT$5entry17hff22f30cb437d148E', symObjAddr: 0x2940, symBinAddr: 0x281C4, symSize: 0x254 }
  - { offset: 0x8E049, size: 0x8, addend: 0x0, symName: '__ZN5alloc11collections5btree3map25BTreeMap$LT$K$C$V$C$A$GT$6insert17h2426d1db56254bd1E', symObjAddr: 0x2B94, symBinAddr: 0x28418, symSize: 0x174 }
  - { offset: 0x8E112, size: 0x8, addend: 0x0, symName: '__ZN5alloc11collections5btree3map25IntoIter$LT$K$C$V$C$A$GT$10dying_next17h0fba298cc613c1d9E', symObjAddr: 0x2EB4, symBinAddr: 0x2858C, symSize: 0x90 }
  - { offset: 0x8E16A, size: 0x8, addend: 0x0, symName: __ZN6memchr4arch7aarch644neon6memchr3One12is_available17h8535b74704fb31d0E, symObjAddr: 0x31EC, symBinAddr: 0x28864, symSize: 0xC }
  - { offset: 0x8E198, size: 0x8, addend: 0x0, symName: __ZN6memchr4arch7aarch644neon6memchr3One13new_unchecked17h5fcede3740c03863E, symObjAddr: 0x31F8, symBinAddr: 0x28870, symSize: 0x58 }
  - { offset: 0x8E393, size: 0x8, addend: 0x0, symName: __ZN6memchr4arch7aarch644neon6memchr3One14count_raw_impl17h59d05d741f1c97dfE, symObjAddr: 0x3250, symBinAddr: 0x288C8, symSize: 0xB0C }
  - { offset: 0x8EDBA, size: 0x8, addend: 0x0, symName: __ZN6memchr4arch7aarch644neon6memchr3One9count_raw17hada0955f507a86c1E, symObjAddr: 0x3D5C, symBinAddr: 0x293D4, symSize: 0x1D0 }
  - { offset: 0x8EE8E, size: 0x8, addend: 0x0, symName: __ZN6memchr4arch7aarch644neon6memchr3Two12is_available17h25854b9206ad37beE, symObjAddr: 0x3F5C, symBinAddr: 0x295D4, symSize: 0xC }
  - { offset: 0x8F10F, size: 0x8, addend: 0x0, symName: __ZN6memchr4arch7aarch644neon6memchr3Two13find_raw_impl17h707b08009633346fE, symObjAddr: 0x3F68, symBinAddr: 0x295E0, symSize: 0x13A8 }
  - { offset: 0x9046B, size: 0x8, addend: 0x0, symName: __ZN6memchr4arch7aarch644neon6memchr3Two13new_unchecked17h995abc0b34bae713E, symObjAddr: 0x5310, symBinAddr: 0x2A988, symSize: 0x8C }
  - { offset: 0x904FF, size: 0x8, addend: 0x0, symName: __ZN6memchr4arch7aarch644neon6memchr3Two8find_raw17h234671461ecad398E, symObjAddr: 0x539C, symBinAddr: 0x2AA14, symSize: 0x1C4 }
  - { offset: 0x905F5, size: 0x8, addend: 0x0, symName: __ZN6memchr6memchr6Memchr3new17h6667552d6e386f50E, symObjAddr: 0x56D0, symBinAddr: 0x2AD48, symSize: 0x74 }
  - { offset: 0x90C1E, size: 0x8, addend: 0x0, symName: '__ZN4core3num21_$LT$impl$u20$i32$GT$12wrapping_abs17haaf9c06badb17705E', symObjAddr: 0xB2C, symBinAddr: 0x2B5FC, symSize: 0x40 }
  - { offset: 0x90CD2, size: 0x8, addend: 0x0, symName: '__ZN4core3num21_$LT$impl$u20$i64$GT$12unsigned_abs17h4ba53b7f76563761E', symObjAddr: 0xB6C, symBinAddr: 0x2B63C, symSize: 0x40 }
  - { offset: 0x90D68, size: 0x8, addend: 0x0, symName: '__ZN4core3num21_$LT$impl$u20$u64$GT$13from_le_bytes17heeaf240678a0661bE', symObjAddr: 0xBAC, symBinAddr: 0x2B67C, symSize: 0x1C }
  - { offset: 0x90DE0, size: 0x8, addend: 0x0, symName: '__ZN4core3num23_$LT$impl$u20$usize$GT$13unchecked_add18precondition_check17h312e71e25804e894E', symObjAddr: 0xCBC, symBinAddr: 0x2B698, symSize: 0x64 }
  - { offset: 0x911D9, size: 0x8, addend: 0x0, symName: '__ZN4core3ptr8non_null16NonNull$LT$T$GT$13new_unchecked18precondition_check17h2fe6f729bc81ff94E', symObjAddr: 0x1274, symBinAddr: 0x2B6FC, symSize: 0x58 }
  - { offset: 0x91C7F, size: 0x8, addend: 0x0, symName: __ZN4core5slice3raw14from_raw_parts17h5c72b9aa3f764c82E, symObjAddr: 0x15C0, symBinAddr: 0x2B810, symSize: 0x58 }
  - { offset: 0x91CC7, size: 0x8, addend: 0x0, symName: __ZN4core5slice3raw14from_raw_parts18precondition_check17h276fed6988b66ccfE, symObjAddr: 0x1618, symBinAddr: 0x2B868, symSize: 0x10C }
  - { offset: 0x92514, size: 0x8, addend: 0x0, symName: __ZN4core5alloc6layout6Layout25from_size_align_unchecked18precondition_check17h1c64d98256563c73E, symObjAddr: 0x1504, symBinAddr: 0x2B754, symSize: 0xBC }
  - { offset: 0x92DBE, size: 0x8, addend: 0x0, symName: '__ZN62_$LT$serde_json..number..N$u20$as$u20$core..cmp..PartialEq$GT$2eq17h446aeaa11006688dE', symObjAddr: 0x3964, symBinAddr: 0x2C604, symSize: 0x11C }
  - { offset: 0x92E82, size: 0x8, addend: 0x0, symName: '__ZN65_$LT$serde_json..number..Number$u20$as$u20$core..fmt..Display$GT$3fmt17ha52131931699295cE', symObjAddr: 0x3BC8, symBinAddr: 0x2C7B8, symSize: 0x148 }
  - { offset: 0x92F1F, size: 0x8, addend: 0x0, symName: '__ZN77_$LT$serde_json..number..Number$u20$as$u20$core..convert..From$LT$i64$GT$$GT$4from17h9b5006c9b26a7611E', symObjAddr: 0x4534, symBinAddr: 0x2C900, symSize: 0x58 }
  - { offset: 0x92F71, size: 0x8, addend: 0x0, symName: '__ZN77_$LT$serde_json..number..Number$u20$as$u20$core..convert..From$LT$u64$GT$$GT$4from17hf59d9ab886c24f48E', symObjAddr: 0x45D8, symBinAddr: 0x2C958, symSize: 0x20 }
  - { offset: 0x93622, size: 0x8, addend: 0x0, symName: '__ZN86_$LT$core..marker..PhantomData$LT$T$GT$$u20$as$u20$serde_core..de..DeserializeSeed$GT$11deserialize17h186c58d881e8bebdE', symObjAddr: 0x4670, symBinAddr: 0x2C978, symSize: 0x24 }
  - { offset: 0x9367D, size: 0x8, addend: 0x0, symName: '__ZN86_$LT$core..marker..PhantomData$LT$T$GT$$u20$as$u20$serde_core..de..DeserializeSeed$GT$11deserialize17hfe21cd8d4e7f5215E', symObjAddr: 0x4694, symBinAddr: 0x2C99C, symSize: 0x24 }
  - { offset: 0x93757, size: 0x8, addend: 0x0, symName: __ZN10serde_json6number6Number6as_f6417hdcd847c2a9df7b5fE, symObjAddr: 0x3A8, symBinAddr: 0x2B384, symSize: 0xA0 }
  - { offset: 0x937D0, size: 0x8, addend: 0x0, symName: __ZN10serde_json6number6Number6as_i6417h41ad1a0c8afd5d79E, symObjAddr: 0x448, symBinAddr: 0x2B424, symSize: 0xA4 }
  - { offset: 0x93824, size: 0x8, addend: 0x0, symName: __ZN10serde_json6number6Number6as_u6417hcc1a6252e528b3e9E, symObjAddr: 0x4EC, symBinAddr: 0x2B4C8, symSize: 0x54 }
  - { offset: 0x93863, size: 0x8, addend: 0x0, symName: __ZN10serde_json6number6Number6is_i6417h6ddd38591e64dc1dE, symObjAddr: 0x588, symBinAddr: 0x2B51C, symSize: 0x78 }
  - { offset: 0x938B0, size: 0x8, addend: 0x0, symName: __ZN10serde_json6number6Number8from_f6417hbd400cd11c593508E, symObjAddr: 0x7EC, symBinAddr: 0x2B594, symSize: 0x68 }
  - { offset: 0x93BA7, size: 0x8, addend: 0x0, symName: '__ZN59_$LT$alloc..alloc..Global$u20$as$u20$core..clone..Clone$GT$5clone17h63f2dfa86280c39eE', symObjAddr: 0x2D48, symBinAddr: 0x2BE74, symSize: 0x10 }
  - { offset: 0x93C00, size: 0x8, addend: 0x0, symName: '__ZN63_$LT$alloc..alloc..Global$u20$as$u20$core..alloc..Allocator$GT$10deallocate17h1ab94d98fcd9e3a9E', symObjAddr: 0x3A80, symBinAddr: 0x2C720, symSize: 0x58 }
  - { offset: 0x93CCE, size: 0x8, addend: 0x0, symName: '__ZN63_$LT$alloc..alloc..Global$u20$as$u20$core..alloc..Allocator$GT$8allocate17he69b17e7c340f4c8E', symObjAddr: 0x3B1C, symBinAddr: 0x2C778, symSize: 0x40 }
  - { offset: 0x93D3A, size: 0x8, addend: 0x0, symName: __ZN5alloc5alloc15exchange_malloc17h53776861140f0fd7E, symObjAddr: 0x341C, symBinAddr: 0x2C3C0, symSize: 0xB0 }
  - { offset: 0x94181, size: 0x8, addend: 0x0, symName: '__ZN5alloc11collections5btree3map5entry28VacantEntry$LT$K$C$V$C$A$GT$12insert_entry28_$u7b$$u7b$closure$u7d$$u7d$17h4297a254450b52afE', symObjAddr: 0x3030, symBinAddr: 0x2C15C, symSize: 0x16C }
  - { offset: 0x94AC5, size: 0x8, addend: 0x0, symName: '__ZN4core6option15Option$LT$T$GT$6map_or17hda2a49c0655482e4E', symObjAddr: 0x1954, symBinAddr: 0x2B974, symSize: 0xC4 }
  - { offset: 0x94B41, size: 0x8, addend: 0x0, symName: '__ZN4core6option15Option$LT$T$GT$9unwrap_or17haaa6c212e42c44b2E', symObjAddr: 0x1BEC, symBinAddr: 0x2BA38, symSize: 0x44 }
  - { offset: 0x94BC8, size: 0x8, addend: 0x0, symName: '__ZN4itoa55_$LT$impl$u20$itoa..private..Sealed$u20$for$u20$i64$GT$5write17h55420de85e3bbba4E', symObjAddr: 0x2120, symBinAddr: 0x2BA7C, symSize: 0x190 }
  - { offset: 0x94C7B, size: 0x8, addend: 0x0, symName: '__ZN4itoa55_$LT$impl$u20$itoa..private..Sealed$u20$for$u20$u64$GT$5write17h09bfd215826fecd5E', symObjAddr: 0x2338, symBinAddr: 0x2BC0C, symSize: 0x44 }
  - { offset: 0x94EC0, size: 0x8, addend: 0x0, symName: __ZN4itoa6Buffer3new17h144c5bbffd893a3cE, symObjAddr: 0x2584, symBinAddr: 0x2BC50, symSize: 0x2C }
  - { offset: 0x94EFE, size: 0x8, addend: 0x0, symName: __ZN4itoa6Buffer6format17h09b5549c9940c3a6E, symObjAddr: 0x263C, symBinAddr: 0x2BC7C, symSize: 0x8C }
  - { offset: 0x94F61, size: 0x8, addend: 0x0, symName: __ZN4itoa6Buffer6format17h9047de96c0bc3505E, symObjAddr: 0x27E0, symBinAddr: 0x2BD08, symSize: 0x8C }
  - { offset: 0x94FEB, size: 0x8, addend: 0x0, symName: __ZN4zmij6Buffer13format_finite17h1dbe4bde66096316E, symObjAddr: 0x2B40, symBinAddr: 0x2BD94, symSize: 0xC0 }
  - { offset: 0x950A8, size: 0x8, addend: 0x0, symName: __ZN4zmij6Buffer3new17h19de2e911aa2522eE, symObjAddr: 0x2CC0, symBinAddr: 0x2BE54, symSize: 0x20 }
  - { offset: 0x9534E, size: 0x8, addend: 0x0, symName: '__ZN5alloc11collections5btree3map5entry28VacantEntry$LT$K$C$V$C$A$GT$12insert_entry17h8ab982aff8fc9bc1E', symObjAddr: 0x2D58, symBinAddr: 0x2BE84, symSize: 0x2D8 }
  - { offset: 0x9571D, size: 0x8, addend: 0x0, symName: '__ZN5alloc11collections5btree3map5entry30OccupiedEntry$LT$K$C$V$C$A$GT$6insert17habd4eb8c68c21f4fE', symObjAddr: 0x321C, symBinAddr: 0x2C2C8, symSize: 0xA0 }
  - { offset: 0x957A7, size: 0x8, addend: 0x0, symName: '__ZN5alloc11collections5btree3map5entry30OccupiedEntry$LT$K$C$V$C$A$GT$8into_mut17h3e6e044c333cfb42E', symObjAddr: 0x32BC, symBinAddr: 0x2C368, symSize: 0x58 }
  - { offset: 0x9599E, size: 0x8, addend: 0x0, symName: __ZN5alloc5alloc6Global18alloc_impl_runtime17h32034673515df453E, symObjAddr: 0x34CC, symBinAddr: 0x2C470, symSize: 0x194 }
  - { offset: 0x95EF9, size: 0x8, addend: 0x0, symName: __ZN10serde_json4read4HEX017h94f0870b5866d029E, symObjAddr: 0x6E50, symBinAddr: 0xAF2A8, symSize: 0x0 }
  - { offset: 0x95F14, size: 0x8, addend: 0x0, symName: __ZN10serde_json4read4HEX117hd9160013e0ec94fdE, symObjAddr: 0x7050, symBinAddr: 0xAF4A8, symSize: 0x0 }
  - { offset: 0x95F21, size: 0x8, addend: 0x0, symName: __ZN10serde_json4read11next_or_eof17h5724b5db2dea72c7E, symObjAddr: 0x90C, symBinAddr: 0x2CAA8, symSize: 0xB0 }
  - { offset: 0x95F94, size: 0x8, addend: 0x0, symName: __ZN10serde_json4read11peek_or_eof17h0e6ba1e283c03003E, symObjAddr: 0x9BC, symBinAddr: 0x2CB58, symSize: 0xB0 }
  - { offset: 0x96007, size: 0x8, addend: 0x0, symName: __ZN10serde_json4read12parse_escape17h69f1687f43e9bc28E, symObjAddr: 0xA6C, symBinAddr: 0x2CC08, symSize: 0x1B0 }
  - { offset: 0x96098, size: 0x8, addend: 0x0, symName: __ZN10serde_json4read19push_wtf8_codepoint17h353bde1608ea1b56E, symObjAddr: 0xD60, symBinAddr: 0x2CDB8, symSize: 0x31C }
  - { offset: 0x963B7, size: 0x8, addend: 0x0, symName: __ZN10serde_json4read20parse_unicode_escape17h93a2176bf5f3fae1E, symObjAddr: 0x107C, symBinAddr: 0x9EF24, symSize: 0x3C0 }
  - { offset: 0x96506, size: 0x8, addend: 0x0, symName: __ZN10serde_json4read22decode_four_hex_digits17h97cc262eab3ba19bE, symObjAddr: 0x143C, symBinAddr: 0x2D0D4, symSize: 0x1A8 }
  - { offset: 0x965CF, size: 0x8, addend: 0x0, symName: __ZN10serde_json4read5error17h273e7f88758c75c2E, symObjAddr: 0x15E4, symBinAddr: 0x2D27C, symSize: 0xC4 }
  - { offset: 0x9663D, size: 0x8, addend: 0x0, symName: __ZN10serde_json4read5error17h34282074026a9384E, symObjAddr: 0x1768, symBinAddr: 0x2D340, symSize: 0xB0 }
  - { offset: 0x966AB, size: 0x8, addend: 0x0, symName: __ZN10serde_json4read5error17hb852fc69479a505fE, symObjAddr: 0x18DC, symBinAddr: 0x2D3F0, symSize: 0xC4 }
  - { offset: 0x96719, size: 0x8, addend: 0x0, symName: __ZN10serde_json4read5error17hcb0e2020c92ebc5cE, symObjAddr: 0x19A0, symBinAddr: 0x2D4B4, symSize: 0xC4 }
  - { offset: 0x968DC, size: 0x8, addend: 0x0, symName: __ZN10serde_json4read9Reference6Copied17hb4cc3649bf61d9f1E, symObjAddr: 0x1B68, symBinAddr: 0x2D5C8, symSize: 0x2C }
  - { offset: 0x96913, size: 0x8, addend: 0x0, symName: __ZN10serde_json4read9Reference8Borrowed17hcfdece36d6120cb5E, symObjAddr: 0x1B94, symBinAddr: 0x2D5F4, symSize: 0x24 }
  - { offset: 0x96957, size: 0x8, addend: 0x0, symName: '__ZN68_$LT$serde_json..read..StrRead$u20$as$u20$serde_json..read..Read$GT$9parse_str28_$u7b$$u7b$closure$u7d$$u7d$17h7242569db8688bd1E', symObjAddr: 0x4634, symBinAddr: 0x2E8EC, symSize: 0x48 }
  - { offset: 0x9699C, size: 0x8, addend: 0x0, symName: '__ZN68_$LT$serde_json..read..StrRead$u20$as$u20$serde_json..read..Read$GT$13peek_position17h3fd6e31cda00f3ceE', symObjAddr: 0x4528, symBinAddr: 0x2E804, symSize: 0x24 }
  - { offset: 0x969CA, size: 0x8, addend: 0x0, symName: '__ZN68_$LT$serde_json..read..StrRead$u20$as$u20$serde_json..read..Read$GT$4next17h5db6e3083ded32e8E', symObjAddr: 0x4570, symBinAddr: 0x2E828, symSize: 0x24 }
  - { offset: 0x969F8, size: 0x8, addend: 0x0, symName: '__ZN68_$LT$serde_json..read..StrRead$u20$as$u20$serde_json..read..Read$GT$4peek17h2ea231ccff4ffbe0E', symObjAddr: 0x4594, symBinAddr: 0x2E84C, symSize: 0x24 }
  - { offset: 0x96A26, size: 0x8, addend: 0x0, symName: '__ZN68_$LT$serde_json..read..StrRead$u20$as$u20$serde_json..read..Read$GT$7discard17h0828e3ed99b8429dE', symObjAddr: 0x45B8, symBinAddr: 0x2E870, symSize: 0x24 }
  - { offset: 0x96A50, size: 0x8, addend: 0x0, symName: '__ZN68_$LT$serde_json..read..StrRead$u20$as$u20$serde_json..read..Read$GT$8position17hc74102629f630c38E', symObjAddr: 0x45DC, symBinAddr: 0x2E894, symSize: 0x24 }
  - { offset: 0x96A7E, size: 0x8, addend: 0x0, symName: '__ZN68_$LT$serde_json..read..StrRead$u20$as$u20$serde_json..read..Read$GT$9parse_str17h79b449f4f64e31f2E', symObjAddr: 0x4600, symBinAddr: 0x2E8B8, symSize: 0x34 }
  - { offset: 0x96B3C, size: 0x8, addend: 0x0, symName: '__ZN70_$LT$serde_json..read..SliceRead$u20$as$u20$serde_json..read..Read$GT$13peek_position17h1036f9ede1ed0e1fE', symObjAddr: 0x487C, symBinAddr: 0x2E934, symSize: 0x68 }
  - { offset: 0x96B6A, size: 0x8, addend: 0x0, symName: '__ZN70_$LT$serde_json..read..SliceRead$u20$as$u20$serde_json..read..Read$GT$17decode_hex_escape17h6482a8353a8f6afcE', symObjAddr: 0x48E4, symBinAddr: 0x2E99C, symSize: 0x14C }
  - { offset: 0x96C22, size: 0x8, addend: 0x0, symName: '__ZN70_$LT$serde_json..read..SliceRead$u20$as$u20$serde_json..read..Read$GT$4next17h944fe9e6f39c71adE', symObjAddr: 0x4A30, symBinAddr: 0x2EAE8, symSize: 0xF4 }
  - { offset: 0x96C66, size: 0x8, addend: 0x0, symName: '__ZN70_$LT$serde_json..read..SliceRead$u20$as$u20$serde_json..read..Read$GT$4peek17h9b91b7765b6e59ffE', symObjAddr: 0x4B24, symBinAddr: 0x2EBDC, symSize: 0xB8 }
  - { offset: 0x96C94, size: 0x8, addend: 0x0, symName: '__ZN70_$LT$serde_json..read..SliceRead$u20$as$u20$serde_json..read..Read$GT$7discard17h95bf7ae4a33605d8E', symObjAddr: 0x4BDC, symBinAddr: 0x2EC94, symSize: 0x54 }
  - { offset: 0x96CBE, size: 0x8, addend: 0x0, symName: '__ZN70_$LT$serde_json..read..SliceRead$u20$as$u20$serde_json..read..Read$GT$8position17h87ebc0f364972a8bE', symObjAddr: 0x4C30, symBinAddr: 0x2ECE8, symSize: 0x28 }
  - { offset: 0x96D7C, size: 0x8, addend: 0x0, symName: __ZN10serde_json4read9is_escape17he8139cd7aa95d57dE, symObjAddr: 0x373C, symBinAddr: 0x2E388, symSize: 0x80 }
  - { offset: 0x97504, size: 0x8, addend: 0x0, symName: '__ZN4core3cmp5impls54_$LT$impl$u20$core..cmp..PartialEq$u20$for$u20$f64$GT$2eq17h04a6ae031b8b43f9E', symObjAddr: 0x3C6C, symBinAddr: 0x2E4EC, symSize: 0x2C }
  - { offset: 0x97547, size: 0x8, addend: 0x0, symName: '__ZN4core3cmp5impls54_$LT$impl$u20$core..cmp..PartialEq$u20$for$u20$i64$GT$2eq17h2efbe2fd8bf84f30E', symObjAddr: 0x3C98, symBinAddr: 0x2E518, symSize: 0x2C }
  - { offset: 0x9758A, size: 0x8, addend: 0x0, symName: '__ZN4core3cmp5impls54_$LT$impl$u20$core..cmp..PartialEq$u20$for$u20$u64$GT$2eq17h55e5cb32c76bb881E', symObjAddr: 0x3CC4, symBinAddr: 0x2E544, symSize: 0x2C }
  - { offset: 0x975CD, size: 0x8, addend: 0x0, symName: '__ZN4core3cmp5impls69_$LT$impl$u20$core..cmp..PartialEq$LT$$RF$B$GT$$u20$for$u20$$RF$A$GT$2eq17h5812e88f4717687fE', symObjAddr: 0x3D50, symBinAddr: 0x2E570, symSize: 0x34 }
  - { offset: 0x9761C, size: 0x8, addend: 0x0, symName: '__ZN4core3cmp5impls69_$LT$impl$u20$core..cmp..PartialEq$LT$$RF$B$GT$$u20$for$u20$$RF$A$GT$2eq17hdcd7ea99a331ba38E', symObjAddr: 0x3D84, symBinAddr: 0x2E5A4, symSize: 0x44 }
  - { offset: 0x9766B, size: 0x8, addend: 0x0, symName: '__ZN4core3cmp5impls69_$LT$impl$u20$core..cmp..PartialEq$LT$$RF$B$GT$$u20$for$u20$$RF$A$GT$2eq17he10bf457f5db4cecE', symObjAddr: 0x3DC8, symBinAddr: 0x2E5E8, symSize: 0x34 }
  - { offset: 0x976BA, size: 0x8, addend: 0x0, symName: '__ZN4core3cmp5impls69_$LT$impl$u20$core..cmp..PartialEq$LT$$RF$B$GT$$u20$for$u20$$RF$A$GT$2eq17hfb097b52acea5fc4E', symObjAddr: 0x3DFC, symBinAddr: 0x2E61C, symSize: 0x34 }
  - { offset: 0x977AB, size: 0x8, addend: 0x0, symName: '__ZN91_$LT$core..slice..iter..Iter$LT$T$GT$$u20$as$u20$core..iter..traits..iterator..Iterator$GT$4next17h0dca1ba8e0e55e75E', symObjAddr: 0x5F0C, symBinAddr: 0x2ED10, symSize: 0x84 }
  - { offset: 0x97861, size: 0x8, addend: 0x0, symName: '__ZN91_$LT$core..slice..iter..Iter$LT$T$GT$$u20$as$u20$core..iter..traits..iterator..Iterator$GT$4next17hdab4042800947ab8E', symObjAddr: 0x5F90, symBinAddr: 0x2ED94, symSize: 0x84 }
  - { offset: 0x9795E, size: 0x8, addend: 0x0, symName: '__ZN98_$LT$core..slice..iter..ChunksExact$LT$T$GT$$u20$as$u20$core..iter..traits..iterator..Iterator$GT$4next17h09edcc04d755f8c7E', symObjAddr: 0x61B0, symBinAddr: 0x2EE18, symSize: 0x10C }
  - { offset: 0x97C82, size: 0x8, addend: 0x0, symName: '__ZN48_$LT$A$u20$as$u20$core..slice..cmp..SliceOrd$GT$7compare17hb3c9a9ac719104eeE', symObjAddr: 0x3B5C, symBinAddr: 0x2E408, symSize: 0xE4 }
  - { offset: 0x9904B, size: 0x8, addend: 0x0, symName: '__ZN4core3str6traits48_$LT$impl$u20$core..cmp..Ord$u20$for$u20$str$GT$3cmp17ha4c47c346bd37d57E', symObjAddr: 0x3EDC, symBinAddr: 0x2E650, symSize: 0xE8 }
  - { offset: 0x991AE, size: 0x8, addend: 0x0, symName: '__ZN4core3str6traits54_$LT$impl$u20$core..cmp..PartialEq$u20$for$u20$str$GT$2eq17hee1916f5e813bbd5E', symObjAddr: 0x3FC4, symBinAddr: 0x2E738, symSize: 0x4C }
  - { offset: 0x992B6, size: 0x8, addend: 0x0, symName: '__ZN63_$LT$I$u20$as$u20$core..iter..traits..collect..IntoIterator$GT$9into_iter17hc7cdc0edeaaab6b4E', symObjAddr: 0x4484, symBinAddr: 0x2E7D4, symSize: 0x30 }
  - { offset: 0x99BDA, size: 0x8, addend: 0x0, symName: '__ZN10serde_json3map59Map$LT$alloc..string..String$C$serde_json..value..Value$GT$3get17h0689f2b9d255cee9E', symObjAddr: 0x4CC, symBinAddr: 0x2C9C0, symSize: 0x2C }
  - { offset: 0x99C3A, size: 0x8, addend: 0x0, symName: '__ZN10serde_json3map59Map$LT$alloc..string..String$C$serde_json..value..Value$GT$3get17h40fa4b5b39887781E', symObjAddr: 0x4F8, symBinAddr: 0x2C9EC, symSize: 0x30 }
  - { offset: 0x99C73, size: 0x8, addend: 0x0, symName: '__ZN10serde_json3map59Map$LT$alloc..string..String$C$serde_json..value..Value$GT$3new17h3d2b99e8857b9d1fE', symObjAddr: 0x54C, symBinAddr: 0x2CA1C, symSize: 0x38 }
  - { offset: 0x99C93, size: 0x8, addend: 0x0, symName: '__ZN10serde_json3map59Map$LT$alloc..string..String$C$serde_json..value..Value$GT$6insert17h4e19ede3ee4eedb1E', symObjAddr: 0x68C, symBinAddr: 0x2CA54, symSize: 0x54 }
  - { offset: 0x99D0B, size: 0x8, addend: 0x0, symName: __ZN10serde_json4read7StrRead3new17h7176e7db82775a73E, symObjAddr: 0x1AEC, symBinAddr: 0x2D578, symSize: 0x50 }
  - { offset: 0x99DBD, size: 0x8, addend: 0x0, symName: __ZN10serde_json4read9SliceRead14skip_to_escape17h4636de3e507d6c9bE, symObjAddr: 0x1BDC, symBinAddr: 0x2D618, symSize: 0x4B4 }
  - { offset: 0x9A08D, size: 0x8, addend: 0x0, symName: __ZN10serde_json4read9SliceRead15parse_str_bytes17h29dd68c8035acd00E, symObjAddr: 0x2090, symBinAddr: 0x2DACC, symSize: 0x690 }
  - { offset: 0x9A37E, size: 0x8, addend: 0x0, symName: __ZN10serde_json4read9SliceRead17position_of_index17hee5ea19a91cefdddE, symObjAddr: 0x3440, symBinAddr: 0x2E15C, symSize: 0x208 }
  - { offset: 0x9A52C, size: 0x8, addend: 0x0, symName: __ZN10serde_json4read9SliceRead19skip_to_escape_slow17h7d321f39c1641db8E, symObjAddr: 0x3648, symBinAddr: 0x9F2E4, symSize: 0xD0 }
  - { offset: 0x9A54F, size: 0x8, addend: 0x0, symName: __ZN10serde_json4read9SliceRead3new17h7c6c70e843981bb3E, symObjAddr: 0x3718, symBinAddr: 0x2E364, symSize: 0x24 }
  - { offset: 0x9A64F, size: 0x8, addend: 0x0, symName: '__ZN4core5slice4iter13Iter$LT$T$GT$3new17h266e8ff6767a20ddE', symObjAddr: 0x43C8, symBinAddr: 0x2E784, symSize: 0x50 }
  - { offset: 0x9A92F, size: 0x8, addend: 0x0, symName: '__ZN80_$LT$serde_core..de..impls..StringVisitor$u20$as$u20$serde_core..de..Visitor$GT$9visit_str17h006d1d8805a5832cE', symObjAddr: 0x4CC4, symBinAddr: 0x2F714, symSize: 0x44 }
  - { offset: 0x9A990, size: 0x8, addend: 0x0, symName: __ZN10serde_core2de7Visitor18visit_borrowed_str17ha5db87a5cce47bb5E, symObjAddr: 0x204, symBinAddr: 0x2F01C, symSize: 0x28 }
  - { offset: 0x9B281, size: 0x8, addend: 0x0, symName: '__ZN10serde_json5value2de82_$LT$impl$u20$serde_core..de..Deserialize$u20$for$u20$serde_json..value..Value$GT$11deserialize17hf7a9343a9f9e3967E', symObjAddr: 0xD80, symBinAddr: 0x2F044, symSize: 0x24 }
  - { offset: 0x9B2C2, size: 0x8, addend: 0x0, symName: __ZN10serde_json5value5Value6Number17hd5b34bcb9ab1fb4bE, symObjAddr: 0x1E40, symBinAddr: 0x2F068, symSize: 0x18 }
  - { offset: 0x9BBBD, size: 0x8, addend: 0x0, symName: __ZN4core3ptr19copy_nonoverlapping18precondition_check17ha48d4f1dc15a23a1E, symObjAddr: 0x2F18, symBinAddr: 0x2F1D4, symSize: 0x168 }
  - { offset: 0x9BD77, size: 0x8, addend: 0x0, symName: __ZN4core3ptr4copy18precondition_check17h19385a0bfa0715c3E, symObjAddr: 0x3080, symBinAddr: 0x2F33C, symSize: 0x130 }
  - { offset: 0x9CA07, size: 0x8, addend: 0x0, symName: '__ZN107_$LT$core..ops..range..RangeInclusive$LT$T$GT$$u20$as$u20$core..iter..range..RangeInclusiveIteratorImpl$GT$9spec_next17h315eb3af7523c404E', symObjAddr: 0xB4, symBinAddr: 0x2EF24, symSize: 0xF8 }
  - { offset: 0x9CB08, size: 0x8, addend: 0x0, symName: '__ZN4core4iter5range101_$LT$impl$u20$core..iter..traits..iterator..Iterator$u20$for$u20$core..ops..range..Range$LT$A$GT$$GT$4next17h3abad169a13666deE', symObjAddr: 0x3A88, symBinAddr: 0x2F46C, symSize: 0x24 }
  - { offset: 0x9CB45, size: 0x8, addend: 0x0, symName: '__ZN4core4iter5range110_$LT$impl$u20$core..iter..traits..iterator..Iterator$u20$for$u20$core..ops..range..RangeInclusive$LT$A$GT$$GT$4next17h0d344f6538da8974E', symObjAddr: 0x3AAC, symBinAddr: 0x2F490, symSize: 0x24 }
  - { offset: 0x9CB82, size: 0x8, addend: 0x0, symName: '__ZN89_$LT$core..ops..range..Range$LT$T$GT$$u20$as$u20$core..iter..range..RangeIteratorImpl$GT$9spec_next17hb051d21c6284ce5dE', symObjAddr: 0x4E88, symBinAddr: 0x2F84C, symSize: 0x94 }
  - { offset: 0x9CC0E, size: 0x8, addend: 0x0, symName: '__ZN63_$LT$I$u20$as$u20$core..iter..traits..collect..IntoIterator$GT$9into_iter17h5c8a14df086d445fE', symObjAddr: 0x4B54, symBinAddr: 0x2F6CC, symSize: 0x14 }
  - { offset: 0x9CC93, size: 0x8, addend: 0x0, symName: '__ZN110_$LT$core..ops..range..RangeFrom$LT$usize$GT$$u20$as$u20$core..slice..index..SliceIndex$LT$$u5b$T$u5d$$GT$$GT$9index_mut17h6914cdfa37949a30E', symObjAddr: 0x2674, symBinAddr: 0x2F130, symSize: 0x78 }
  - { offset: 0x9CD86, size: 0x8, addend: 0x0, symName: '__ZN4core5slice29_$LT$impl$u20$$u5b$T$u5d$$GT$4iter17h82d934b0cdf7188cE', symObjAddr: 0x407C, symBinAddr: 0x2F4B4, symSize: 0x28 }
  - { offset: 0x9D39D, size: 0x8, addend: 0x0, symName: __ZN4core9core_arch10arm_shared4neon9generated10vdupq_n_u817hefa2ff39e1d19fdfE, symObjAddr: 0x42E8, symBinAddr: 0x2F4DC, symSize: 0x2C }
  - { offset: 0x9D403, size: 0x8, addend: 0x0, symName: __ZN4core9core_arch10arm_shared4neon9generated19vreinterpret_u64_u817h4b62b1a7a8a1a7c3E, symObjAddr: 0x4314, symBinAddr: 0x2F508, symSize: 0xC }
  - { offset: 0x9D431, size: 0x8, addend: 0x0, symName: __ZN4core9core_arch10arm_shared4neon9generated20vreinterpretq_u16_u817h7fa5d9b7cda60f7eE, symObjAddr: 0x4320, symBinAddr: 0x2F514, symSize: 0xC }
  - { offset: 0x9D45F, size: 0x8, addend: 0x0, symName: __ZN4core9core_arch10arm_shared4neon9generated20vreinterpretq_u64_u817h25e891c69905f7b1E, symObjAddr: 0x432C, symBinAddr: 0x2F520, symSize: 0xC }
  - { offset: 0x9D48D, size: 0x8, addend: 0x0, symName: __ZN4core9core_arch10arm_shared4neon9generated8vceqq_u817h382f886c02ae67a8E, symObjAddr: 0x4338, symBinAddr: 0x2F52C, symSize: 0x14 }
  - { offset: 0x9D4CA, size: 0x8, addend: 0x0, symName: __ZN4core9core_arch10arm_shared4neon9generated8vorrq_u817hef2228b5aa8e6799E, symObjAddr: 0x434C, symBinAddr: 0x2F540, symSize: 0x14 }
  - { offset: 0x9DA60, size: 0x8, addend: 0x0, symName: '__ZN77_$LT$alloc..raw_vec..RawVec$LT$T$C$A$GT$$u20$as$u20$core..ops..drop..Drop$GT$4drop17hc0445837be82669dE', symObjAddr: 0x4C80, symBinAddr: 0x2F6E0, symSize: 0x34 }
  - { offset: 0x9DC89, size: 0x8, addend: 0x0, symName: '__ZN87_$LT$T$u20$as$u20$alloc..slice..$LT$impl$u20$$u5b$T$u5d$$GT$..to_vec_in..ConvertVec$GT$6to_vec17h3eb348e974dead5fE', symObjAddr: 0x4D94, symBinAddr: 0x2F758, symSize: 0xF4 }
  - { offset: 0x9E112, size: 0x8, addend: 0x0, symName: __ZN10serde_json5value5Value6as_str17h354fc13c54ab46ebE, symObjAddr: 0x1F20, symBinAddr: 0x2F080, symSize: 0x64 }
  - { offset: 0x9E17A, size: 0x8, addend: 0x0, symName: __ZN10serde_json5value5Value9as_object17h98dc1b7cf7fbc3e9E, symObjAddr: 0x259C, symBinAddr: 0x2F0E4, symSize: 0x4C }
  - { offset: 0x9E315, size: 0x8, addend: 0x0, symName: __ZN4core3fmt2rt8Argument11new_display17ha7bf6025f96e47bfE, symObjAddr: 0x2E3C, symBinAddr: 0x2F1A8, symSize: 0x2C }
  - { offset: 0x9E42B, size: 0x8, addend: 0x0, symName: '__ZN5alloc7raw_vec19RawVec$LT$T$C$A$GT$8grow_one17h599187227f818553E', symObjAddr: 0x4360, symBinAddr: 0x2F554, symSize: 0x88 }
  - { offset: 0x9E575, size: 0x8, addend: 0x0, symName: '__ZN5alloc7raw_vec20RawVecInner$LT$A$GT$16with_capacity_in17h9a127cf05528695cE', symObjAddr: 0x4780, symBinAddr: 0x2F5DC, symSize: 0xF0 }
  - { offset: 0x9E950, size: 0x8, addend: 0x0, symName: __ZN10serde_json3ser6ESCAPE17h396deebdd3090c3aE, symObjAddr: 0x5C58, symBinAddr: 0xAF930, symSize: 0x0 }
  - { offset: 0x9E975, size: 0x8, addend: 0x0, symName: __ZN10serde_json3ser9Formatter17write_char_escape10HEX_DIGITS17hdd79634d26655f2cE, symObjAddr: 0x5D58, symBinAddr: 0xAFA30, symSize: 0x0 }
  - { offset: 0x9EEF5, size: 0x8, addend: 0x0, symName: '__ZN63_$LT$serde_json..error..Error$u20$as$u20$core..fmt..Display$GT$3fmt17h1d4a93403d519231E', symObjAddr: 0x4074, symBinAddr: 0x2FD8C, symSize: 0x80 }
  - { offset: 0x9EF38, size: 0x8, addend: 0x0, symName: '__ZN67_$LT$serde_json..error..ErrorCode$u20$as$u20$core..fmt..Display$GT$3fmt17h59d544168b410d40E', symObjAddr: 0x4290, symBinAddr: 0x2FE0C, symSize: 0x380 }
  - { offset: 0x9EFB7, size: 0x8, addend: 0x0, symName: '__ZN67_$LT$serde_json..error..ErrorImpl$u20$as$u20$core..fmt..Display$GT$3fmt17haa407d5cd3f2c185E', symObjAddr: 0x4610, symBinAddr: 0x3018C, symSize: 0xD8 }
  - { offset: 0x9F414, size: 0x8, addend: 0x0, symName: '__ZN5alloc5boxed16Box$LT$T$C$A$GT$13new_uninit_in17h54a5286c991bc287E', symObjAddr: 0x3A90, symBinAddr: 0x2FAD4, symSize: 0x64 }
  - { offset: 0x9F472, size: 0x8, addend: 0x0, symName: '__ZN5alloc5boxed16Box$LT$T$C$A$GT$13new_uninit_in17h8201ce7de8d7a09cE', symObjAddr: 0x3AF4, symBinAddr: 0x2FB38, symSize: 0x64 }
  - { offset: 0x9F4D0, size: 0x8, addend: 0x0, symName: '__ZN5alloc5boxed16Box$LT$T$C$A$GT$17try_new_uninit_in17h5a483a4dd97f581fE', symObjAddr: 0x3B58, symBinAddr: 0x2FB9C, symSize: 0xF8 }
  - { offset: 0x9F66A, size: 0x8, addend: 0x0, symName: '__ZN5alloc5boxed16Box$LT$T$C$A$GT$17try_new_uninit_in17h6ccd676cdb4a5174E', symObjAddr: 0x3C50, symBinAddr: 0x2FC94, symSize: 0xF8 }
  - { offset: 0x9F888, size: 0x8, addend: 0x0, symName: '__ZN72_$LT$alloc..boxed..Box$LT$T$C$A$GT$$u20$as$u20$core..ops..drop..Drop$GT$4drop17h5b0ebd6e6f1f7b1bE', symObjAddr: 0x471C, symBinAddr: 0x30264, symSize: 0xB0 }
  - { offset: 0x9F9C1, size: 0x8, addend: 0x0, symName: '__ZN72_$LT$alloc..boxed..Box$LT$T$C$A$GT$$u20$as$u20$core..ops..drop..Drop$GT$4drop17h6d3047c50bcd67fdE', symObjAddr: 0x47CC, symBinAddr: 0x30314, symSize: 0xC4 }
  - { offset: 0x9FAFA, size: 0x8, addend: 0x0, symName: '__ZN72_$LT$alloc..boxed..Box$LT$T$C$A$GT$$u20$as$u20$core..ops..drop..Drop$GT$4drop17h8af7c4b49657568dE', symObjAddr: 0x4890, symBinAddr: 0x303D8, symSize: 0xB0 }
  - { offset: 0x9FC33, size: 0x8, addend: 0x0, symName: '__ZN72_$LT$alloc..boxed..Box$LT$T$C$A$GT$$u20$as$u20$core..ops..drop..Drop$GT$4drop17hbaed8bb671e429f1E', symObjAddr: 0x4940, symBinAddr: 0x30488, symSize: 0xB0 }
  - { offset: 0x9FD6C, size: 0x8, addend: 0x0, symName: '__ZN72_$LT$alloc..boxed..Box$LT$T$C$A$GT$$u20$as$u20$core..ops..drop..Drop$GT$4drop17hff6fec08d10a8815E', symObjAddr: 0x49F0, symBinAddr: 0x30538, symSize: 0xB0 }
  - { offset: 0xA0693, size: 0x8, addend: 0x0, symName: __ZN4core3ptr9alignment9Alignment13new_unchecked18precondition_check17h797dbce3ffe09507E, symObjAddr: 0x3594, symBinAddr: 0x2FA30, symSize: 0x70 }
  - { offset: 0xA0E84, size: 0x8, addend: 0x0, symName: '__ZN49_$LT$usize$u20$as$u20$core..iter..range..Step$GT$17forward_unchecked17h6dba5ba1adaf6de6E', symObjAddr: 0x3374, symBinAddr: 0x2F9E0, symSize: 0x50 }
  - { offset: 0xA0EFA, size: 0x8, addend: 0x0, symName: '__ZN106_$LT$core..ops..range..Range$LT$usize$GT$$u20$as$u20$core..slice..index..SliceIndex$LT$$u5b$T$u5d$$GT$$GT$13get_unchecked18precondition_check17h7ff32076a693a95bE', symObjAddr: 0x9C0, symBinAddr: 0x2F8E0, symSize: 0x80 }
  - { offset: 0xA0F61, size: 0x8, addend: 0x0, symName: '__ZN106_$LT$core..ops..range..Range$LT$usize$GT$$u20$as$u20$core..slice..index..SliceIndex$LT$$u5b$T$u5d$$GT$$GT$17get_unchecked_mut18precondition_check17h901da9077cafbcdfE', symObjAddr: 0xA40, symBinAddr: 0x2F960, symSize: 0x80 }
  - { offset: 0xA0FCE, size: 0x8, addend: 0x0, symName: '__ZN75_$LT$usize$u20$as$u20$core..slice..index..SliceIndex$LT$$u5b$T$u5d$$GT$$GT$13get_unchecked18precondition_check17h6fd03158d7a539afE', symObjAddr: 0x4BD4, symBinAddr: 0x305E8, symSize: 0x60 }
  - { offset: 0xA1027, size: 0x8, addend: 0x0, symName: '__ZN75_$LT$usize$u20$as$u20$core..slice..index..SliceIndex$LT$$u5b$T$u5d$$GT$$GT$17get_unchecked_mut18precondition_check17h2476ce6ee5e25553E', symObjAddr: 0x4C34, symBinAddr: 0x30648, symSize: 0x60 }
  - { offset: 0xA107B, size: 0x8, addend: 0x0, symName: '__ZN75_$LT$usize$u20$as$u20$core..slice..index..SliceIndex$LT$$u5b$T$u5d$$GT$$GT$3get17hb623db177dabb5f0E', symObjAddr: 0x4CE0, symBinAddr: 0x306A8, symSize: 0x4C }
  - { offset: 0xA15D5, size: 0x8, addend: 0x0, symName: '__ZN4core3str21_$LT$impl$u20$str$GT$3len17h82b4033c154130d0E', symObjAddr: 0x3694, symBinAddr: 0x2FAA0, symSize: 0x1C }
  - { offset: 0xA1607, size: 0x8, addend: 0x0, symName: __ZN4core3str8converts19from_utf8_unchecked17ha79dbab3ac7464b8E, symObjAddr: 0x3864, symBinAddr: 0x2FABC, symSize: 0x18 }
  - { offset: 0xA1C40, size: 0x8, addend: 0x0, symName: __ZN10serde_json5error5Error12fix_position17h55acf2a0bde5ab39E, symObjAddr: 0x2C78, symBinAddr: 0x9F3B4, symSize: 0x1A8 }
  - { offset: 0xA1C88, size: 0x8, addend: 0x0, symName: __ZN10serde_json5error5Error2io17h006196a349298cd9E, symObjAddr: 0x2ED0, symBinAddr: 0x9F55C, symSize: 0x9C }
  - { offset: 0xA1CC9, size: 0x8, addend: 0x0, symName: __ZN10serde_json5error5Error6syntax17he8965b33f913bb2aE, symObjAddr: 0x30D4, symBinAddr: 0x9F5F8, symSize: 0x90 }
  - { offset: 0xA2590, size: 0x8, addend: 0x0, symName: '__ZN6memchr4arch7aarch644neon6memchr3One9rfind_raw28_$u7b$$u7b$closure$u7d$$u7d$17h1329238859684425E', symObjAddr: 0x9188, symBinAddr: 0x32404, symSize: 0x30 }
  - { offset: 0xA2B04, size: 0x8, addend: 0x0, symName: '__ZN56_$LT$$BP$const$u20$T$u20$as$u20$memchr..ext..Pointer$GT$8as_usize17h7db6ed004320ddbcE', symObjAddr: 0x16E8, symBinAddr: 0x31258, symSize: 0x10 }
  - { offset: 0xA2B39, size: 0x8, addend: 0x0, symName: '__ZN56_$LT$$BP$const$u20$T$u20$as$u20$memchr..ext..Pointer$GT$8distance17h4e5b7a1306531a63E', symObjAddr: 0x16F8, symBinAddr: 0x31268, symSize: 0x3C }
  - { offset: 0xA2B83, size: 0x8, addend: 0x0, symName: __ZN6memchr6memchr11memrchr_raw17h7551cfda510dd05aE, symObjAddr: 0x9244, symBinAddr: 0x32434, symSize: 0x8C }
  - { offset: 0xA2C02, size: 0x8, addend: 0x0, symName: '__ZN6memchr6memchr7memrchr28_$u7b$$u7b$closure$u7d$$u7d$17hf0599d609d388b39E', symObjAddr: 0x9524, symBinAddr: 0x324C0, symSize: 0x3C }
  - { offset: 0xA2F38, size: 0x8, addend: 0x0, symName: '__ZN145_$LT$core..option..Option$LT$T$GT$$u20$as$u20$core..ops..try_trait..FromResidual$LT$core..option..Option$LT$core..convert..Infallible$GT$$GT$$GT$13from_residual17h3cda5ec76f5bcaabE', symObjAddr: 0x198, symBinAddr: 0x30764, symSize: 0x10 }
  - { offset: 0xA3126, size: 0x8, addend: 0x0, symName: '__ZN75_$LT$core..option..Option$LT$T$GT$$u20$as$u20$core..ops..try_trait..Try$GT$6branch17ha2e881a422067425E', symObjAddr: 0xAF68, symBinAddr: 0x324FC, symSize: 0x48 }
  - { offset: 0xA318C, size: 0x8, addend: 0x0, symName: '__ZN110_$LT$core..ops..range..RangeFrom$LT$usize$GT$$u20$as$u20$core..slice..index..SliceIndex$LT$$u5b$T$u5d$$GT$$GT$5index17hdbe8586f21abc8feE', symObjAddr: 0xA0, symBinAddr: 0x306F4, symSize: 0x70 }
  - { offset: 0xA3287, size: 0x8, addend: 0x0, symName: '__ZN4core5slice29_$LT$impl$u20$$u5b$T$u5d$$GT$18split_at_unchecked17h194189efadb87686E', symObjAddr: 0xE24, symBinAddr: 0x30CBC, symSize: 0xE8 }
  - { offset: 0xA339E, size: 0x8, addend: 0x0, symName: '__ZN4core5slice29_$LT$impl$u20$$u5b$T$u5d$$GT$18split_at_unchecked18precondition_check17hd7afb5c1dc7599c6E', symObjAddr: 0xF0C, symBinAddr: 0x30DA4, symSize: 0x60 }
  - { offset: 0xA3454, size: 0x8, addend: 0x0, symName: __ZN4core5slice3raw14from_raw_parts18precondition_check17h97307f22eaf993d0E, symObjAddr: 0x10A0, symBinAddr: 0x30E04, symSize: 0x10C }
  - { offset: 0xA35CA, size: 0x8, addend: 0x0, symName: '__ZN4core5slice4iter87_$LT$impl$u20$core..iter..traits..collect..IntoIterator$u20$for$u20$$RF$$u5b$T$u5d$$GT$9into_iter17h1b94bbbbcf980c7dE', symObjAddr: 0x11AC, symBinAddr: 0x30F10, symSize: 0x50 }
  - { offset: 0xA370D, size: 0x8, addend: 0x0, symName: '__ZN91_$LT$core..slice..iter..Iter$LT$T$GT$$u20$as$u20$core..iter..traits..iterator..Iterator$GT$4next17hd6df1617b25ea952E', symObjAddr: 0xB55C, symBinAddr: 0x32544, symSize: 0x84 }
  - { offset: 0xA37F9, size: 0x8, addend: 0x0, symName: __ZN4core3ops8function2Fn4call17h4d2d0bcf547071eaE, symObjAddr: 0x6F8, symBinAddr: 0x30854, symSize: 0x94 }
  - { offset: 0xA3910, size: 0x8, addend: 0x0, symName: '__ZN4core7convert3num71_$LT$impl$u20$core..convert..TryFrom$LT$isize$GT$$u20$for$u20$usize$GT$8try_from17h7ed3ce4a56b24062E', symObjAddr: 0x1440, symBinAddr: 0x30FEC, symSize: 0x54 }
  - { offset: 0xA3BBF, size: 0x8, addend: 0x0, symName: __ZN4core3cmp3Ord3min17hd0dce148c9443250E, symObjAddr: 0x2A0, symBinAddr: 0x30774, symSize: 0x74 }
  - { offset: 0xA3C2E, size: 0x8, addend: 0x0, symName: __ZN4core3cmp3min17h39c98db0dbc7c02aE, symObjAddr: 0x338, symBinAddr: 0x307E8, symSize: 0x24 }
  - { offset: 0xA3DFF, size: 0x8, addend: 0x0, symName: '__ZN4core3ptr9const_ptr33_$LT$impl$u20$$BP$const$u20$T$GT$11offset_from17hd43dff3e28d4726fE', symObjAddr: 0xB80, symBinAddr: 0x30AEC, symSize: 0x48 }
  - { offset: 0xA3E78, size: 0x8, addend: 0x0, symName: '__ZN4core3ptr9const_ptr33_$LT$impl$u20$$BP$const$u20$T$GT$13is_aligned_to17h803f7ca4019a2b45E', symObjAddr: 0xBC8, symBinAddr: 0x30B34, symSize: 0x88 }
  - { offset: 0xA3F8F, size: 0x8, addend: 0x0, symName: '__ZN4core3ptr9const_ptr33_$LT$impl$u20$$BP$const$u20$T$GT$6offset18precondition_check17h482394bcabda988dE', symObjAddr: 0xCEC, symBinAddr: 0x30BBC, symSize: 0xC4 }
  - { offset: 0xA42C6, size: 0x8, addend: 0x0, symName: __ZN4core3ptr14read_unaligned17hf97111d009ccd191E, symObjAddr: 0x97C, symBinAddr: 0x308E8, symSize: 0x9C }
  - { offset: 0xA43DB, size: 0x8, addend: 0x0, symName: __ZN4core3ptr19copy_nonoverlapping18precondition_check17ha980121816471696E, symObjAddr: 0xA18, symBinAddr: 0x30984, symSize: 0x168 }
  - { offset: 0xA48B8, size: 0x8, addend: 0x0, symName: __ZN4core9core_arch10arm_shared4neon9generated10vdupq_n_u817h8ccffc75438c6afcE, symObjAddr: 0x1494, symBinAddr: 0x31040, symSize: 0x2C }
  - { offset: 0xA493C, size: 0x8, addend: 0x0, symName: __ZN4core9core_arch10arm_shared4neon9generated11vshrn_n_u1617hbd73dec03ae1d6a9E, symObjAddr: 0x14C0, symBinAddr: 0x3106C, symSize: 0x50 }
  - { offset: 0xA49C0, size: 0x8, addend: 0x0, symName: __ZN4core9core_arch10arm_shared4neon9generated13vget_lane_u6417hbdc5fa3b984ea4efE, symObjAddr: 0x1510, symBinAddr: 0x310BC, symSize: 0x18 }
  - { offset: 0xA49EF, size: 0x8, addend: 0x0, symName: __ZN4core9core_arch10arm_shared4neon9generated14vgetq_lane_u6417h1d95abbef904a5b7E, symObjAddr: 0x1528, symBinAddr: 0x310D4, symSize: 0x18 }
  - { offset: 0xA4A1E, size: 0x8, addend: 0x0, symName: __ZN4core9core_arch10arm_shared4neon9generated19vreinterpret_u64_u817hfdd5f3ea01d7ee6eE, symObjAddr: 0x1540, symBinAddr: 0x310EC, symSize: 0xC }
  - { offset: 0xA4A4C, size: 0x8, addend: 0x0, symName: __ZN4core9core_arch10arm_shared4neon9generated20vreinterpretq_u16_u817h9cb1d86ea90fb04dE, symObjAddr: 0x154C, symBinAddr: 0x310F8, symSize: 0xC }
  - { offset: 0xA4A7A, size: 0x8, addend: 0x0, symName: __ZN4core9core_arch10arm_shared4neon9generated20vreinterpretq_u64_u817h51220cb926ed7aa1E, symObjAddr: 0x1558, symBinAddr: 0x31104, symSize: 0xC }
  - { offset: 0xA4AA8, size: 0x8, addend: 0x0, symName: __ZN4core9core_arch10arm_shared4neon9generated8vceqq_u817h3d9c63e38a9815acE, symObjAddr: 0x1578, symBinAddr: 0x31110, symSize: 0x14 }
  - { offset: 0xA4AE5, size: 0x8, addend: 0x0, symName: __ZN4core9core_arch10arm_shared4neon9generated8vorrq_u817hdf7752f3d6721ddfE, symObjAddr: 0x158C, symBinAddr: 0x31124, symSize: 0x14 }
  - { offset: 0xA4BBE, size: 0x8, addend: 0x0, symName: __ZN4core9core_arch7aarch644neon9generated8vld1q_u817h2049878a2b32ba4aE, symObjAddr: 0x15A0, symBinAddr: 0x31138, symSize: 0x34 }
  - { offset: 0xA4BEC, size: 0x8, addend: 0x0, symName: __ZN4core9core_arch7aarch644neon9generated9vpmaxq_u817h41df711fae94ee04E, symObjAddr: 0x15D4, symBinAddr: 0x3116C, symSize: 0x14 }
  - { offset: 0xA4DB6, size: 0x8, addend: 0x0, symName: __ZN4core9ub_checks23maybe_is_nonoverlapping7runtime17haa5d301c61eec7a4E, symObjAddr: 0x15E8, symBinAddr: 0x31180, symSize: 0xD8 }
  - { offset: 0xA4F6D, size: 0x8, addend: 0x0, symName: __ZN4core4hint21unreachable_unchecked18precondition_check17h16272ee87e45164eE, symObjAddr: 0xDB0, symBinAddr: 0x30C80, symSize: 0x3C }
  - { offset: 0xA5097, size: 0x8, addend: 0x0, symName: __ZN4core3fmt2rt8Argument11new_display17h6c2e9d5b4e744d82E, symObjAddr: 0x35C, symBinAddr: 0x3080C, symSize: 0x2C }
  - { offset: 0xA5185, size: 0x8, addend: 0x0, symName: __ZN4core3fmt9Arguments3new17h8396b83f2dff9c75E, symObjAddr: 0x4FC, symBinAddr: 0x30838, symSize: 0x1C }
  - { offset: 0xA5394, size: 0x8, addend: 0x0, symName: '__ZN4core6option15Option$LT$T$GT$9unwrap_or17hb5189b96e72e0e65E', symObjAddr: 0x1358, symBinAddr: 0x30F60, symSize: 0x44 }
  - { offset: 0xA53CF, size: 0x8, addend: 0x0, symName: '__ZN4core6result19Result$LT$T$C$E$GT$16unwrap_unchecked17h0ae7269cb0984d66E', symObjAddr: 0x139C, symBinAddr: 0x30FA4, symSize: 0x48 }
  - { offset: 0xA54FD, size: 0x8, addend: 0x0, symName: __ZN6memchr4arch7aarch644neon6memchr3One12is_available17hca26ace7e823b225E, symObjAddr: 0x6F88, symBinAddr: 0x312A4, symSize: 0xC }
  - { offset: 0xA556A, size: 0x8, addend: 0x0, symName: __ZN6memchr4arch7aarch644neon6memchr3One13new_unchecked17h0f431b516407b182E, symObjAddr: 0x7E40, symBinAddr: 0x312B0, symSize: 0x58 }
  - { offset: 0xA57C9, size: 0x8, addend: 0x0, symName: __ZN6memchr4arch7aarch644neon6memchr3One14rfind_raw_impl17hf1407a4863d4f342E, symObjAddr: 0x7E98, symBinAddr: 0x31308, symSize: 0xF3C }
  - { offset: 0xA670B, size: 0x8, addend: 0x0, symName: __ZN6memchr4arch7aarch644neon6memchr3One9rfind_raw17h50acc9443f02a283E, symObjAddr: 0x8FC8, symBinAddr: 0x32244, symSize: 0x1C0 }
  - { offset: 0xA6833, size: 0x8, addend: 0x0, symName: '__ZN106_$LT$core..ops..range..Range$LT$usize$GT$$u20$as$u20$core..slice..index..SliceIndex$LT$$u5b$T$u5d$$GT$$GT$13get_unchecked18precondition_check17h9044667a88014a28E', symObjAddr: 0x0, symBinAddr: 0x325C8, symSize: 0x80 }
  - { offset: 0xA6877, size: 0x8, addend: 0x0, symName: '__ZN70_$LT$core..num..error..TryFromIntError$u20$as$u20$core..fmt..Debug$GT$3fmt17h0f4c29d9536f17feE', symObjAddr: 0x4A38, symBinAddr: 0x3325C, symSize: 0x54 }
  - { offset: 0xA68C8, size: 0x8, addend: 0x0, symName: '__ZN106_$LT$core..ops..range..Range$LT$usize$GT$$u20$as$u20$core..slice..index..SliceIndex$LT$$u5b$T$u5d$$GT$$GT$13get_unchecked18precondition_check17h9044667a88014a28E', symObjAddr: 0x0, symBinAddr: 0x325C8, symSize: 0x80 }
  - { offset: 0xA69AE, size: 0x8, addend: 0x0, symName: '__ZN110_$LT$core..ops..range..RangeFrom$LT$usize$GT$$u20$as$u20$core..slice..index..SliceIndex$LT$$u5b$T$u5d$$GT$$GT$13get_unchecked17hc6a5ee5a332c8d47E', symObjAddr: 0x80, symBinAddr: 0x32648, symSize: 0x70 }
  - { offset: 0xA6AAA, size: 0x8, addend: 0x0, symName: '__ZN75_$LT$usize$u20$as$u20$core..slice..index..SliceIndex$LT$$u5b$T$u5d$$GT$$GT$13get_unchecked17h9275960c1d15fdf3E', symObjAddr: 0x4A8C, symBinAddr: 0x332B0, symSize: 0x58 }
  - { offset: 0xA6AF2, size: 0x8, addend: 0x0, symName: '__ZN75_$LT$usize$u20$as$u20$core..slice..index..SliceIndex$LT$$u5b$T$u5d$$GT$$GT$13get_unchecked18precondition_check17h67b6f8d910f840c2E', symObjAddr: 0x4AE4, symBinAddr: 0x33308, symSize: 0x60 }
  - { offset: 0xA6B4D, size: 0x8, addend: 0x0, symName: '__ZN4core5slice29_$LT$impl$u20$$u5b$T$u5d$$GT$13get_unchecked17h0edb2c0ae6a9ac3cE', symObjAddr: 0x2D4C, symBinAddr: 0x32FA8, symSize: 0x44 }
  - { offset: 0xA6B9C, size: 0x8, addend: 0x0, symName: '__ZN4core5slice29_$LT$impl$u20$$u5b$T$u5d$$GT$13get_unchecked17h9a78a30264620232E', symObjAddr: 0x2D90, symBinAddr: 0x32FEC, symSize: 0x44 }
  - { offset: 0xA6D72, size: 0x8, addend: 0x0, symName: '__ZN42_$LT$$RF$T$u20$as$u20$core..fmt..Debug$GT$3fmt17h49bf62a137c2fe01E', symObjAddr: 0x2BDC, symBinAddr: 0x32F20, symSize: 0x30 }
  - { offset: 0xA6DBE, size: 0x8, addend: 0x0, symName: '__ZN45_$LT$$LP$$RP$$u20$as$u20$core..fmt..Debug$GT$3fmt17h6e97ae1b5ff236d4E', symObjAddr: 0x2C0C, symBinAddr: 0x32F50, symSize: 0x40 }
  - { offset: 0xA6E5D, size: 0x8, addend: 0x0, symName: __ZN4core3str8converts19from_utf8_unchecked17h1dc254cfd8712a4cE, symObjAddr: 0x2CFC, symBinAddr: 0x32F90, symSize: 0x18 }
  - { offset: 0xA702F, size: 0x8, addend: 0x0, symName: '__ZN4core7convert3num67_$LT$impl$u20$core..convert..TryFrom$LT$i32$GT$$u20$for$u20$u64$GT$8try_from17hbf98105794823b68E', symObjAddr: 0x3130, symBinAddr: 0x330B4, symSize: 0x5C }
  - { offset: 0xA7064, size: 0x8, addend: 0x0, symName: '__ZN53_$LT$T$u20$as$u20$core..convert..TryInto$LT$U$GT$$GT$8try_into17hd24305376e571c48E', symObjAddr: 0x49E0, symBinAddr: 0x3323C, symSize: 0x20 }
  - { offset: 0xA70B9, size: 0x8, addend: 0x0, symName: __ZN4itoa13DECIMAL_PAIRS17h732990f698f43800E, symObjAddr: 0x4E20, symBinAddr: 0xB07EC, symSize: 0x0 }
  - { offset: 0xA70E0, size: 0x8, addend: 0x0, symName: '__ZN38_$LT$u64$u20$as$u20$itoa..Unsigned$GT$3fmt17hf171dec547b75e5bE', symObjAddr: 0x1A3C, symBinAddr: 0x326B8, symSize: 0x868 }
  - { offset: 0xA72F5, size: 0x8, addend: 0x0, symName: __ZN4itoa19slice_buffer_to_str17h0ba8a323ae683f8eE, symObjAddr: 0x3300, symBinAddr: 0x33110, symSize: 0x44 }
  - { offset: 0xA734C, size: 0x8, addend: 0x0, symName: __ZN4itoa9divmod10017h4dab224905693268E, symObjAddr: 0x3610, symBinAddr: 0x33154, symSize: 0xE8 }
  - { offset: 0xA747F, size: 0x8, addend: 0x0, symName: '__ZN4core6result19Result$LT$T$C$E$GT$6expect17h421265ec847cdd0fE', symObjAddr: 0x2DD4, symBinAddr: 0x33030, symSize: 0x84 }
  - { offset: 0xA7636, size: 0x8, addend: 0x0, symName: '__ZN100_$LT$core..ops..range..RangeInclusive$LT$T$GT$$u20$as$u20$core..ops..range..RangeBounds$LT$T$GT$$GT$11start_bound17h6fbb5d7c33b709f0E', symObjAddr: 0x0, symBinAddr: 0x33368, symSize: 0x1C }
  - { offset: 0xA7656, size: 0x8, addend: 0x0, symName: __ZN4zmij10EXP_SHIFTS17hdb144bc0cd4bb4aeE, symObjAddr: 0x6EA4, symBinAddr: 0xB0DE4, symSize: 0x0 }
  - { offset: 0xA768C, size: 0x8, addend: 0x0, symName: __ZN4zmij17write_significand6CONSTS17h636da8b0eb786790E, symObjAddr: 0x7700, symBinAddr: 0xB1640, symSize: 0x0 }
  - { offset: 0xA76E1, size: 0x8, addend: 0x0, symName: __ZN4zmij18POW10_SIGNIFICANDS17h3fd52b8b0b532f07E, symObjAddr: 0x7740, symBinAddr: 0xB1680, symSize: 0x0 }
  - { offset: 0xA772D, size: 0x8, addend: 0x0, symName: __ZN4zmij7DIGITS217h6cb9a76aca71a122E, symObjAddr: 0x9E4C, symBinAddr: 0xB3D8C, symSize: 0x0 }
  - { offset: 0xA7754, size: 0x8, addend: 0x0, symName: '__ZN41_$LT$f64$u20$as$u20$zmij..FloatTraits$GT$7to_bits17haaf74413281a84e2E', symObjAddr: 0x94, symBinAddr: 0x333DC, symSize: 0x20 }
  - { offset: 0xA778B, size: 0x8, addend: 0x0, symName: '__ZN42_$LT$u64$u20$as$u20$zmij..traits..UInt$GT$12wrapping_sub17he46a64089e50d509E', symObjAddr: 0x104, symBinAddr: 0x333FC, symSize: 0x20 }
  - { offset: 0xA77EA, size: 0x8, addend: 0x0, symName: '__ZN42_$LT$u64$u20$as$u20$zmij..traits..UInt$GT$7enlarge17h8d5129d181cf8147E', symObjAddr: 0x124, symBinAddr: 0x3341C, symSize: 0x1C }
  - { offset: 0xA7833, size: 0x8, addend: 0x0, symName: '__ZN42_$LT$u64$u20$as$u20$zmij..traits..UInt$GT$8truncate17hd25e95c288b79770E', symObjAddr: 0x140, symBinAddr: 0x33438, symSize: 0x10 }
  - { offset: 0xA785F, size: 0x8, addend: 0x0, symName: '__ZN42_$LT$u64$u20$as$u20$zmij..traits..UInt$GT$9to_signed17hf3c21420776b8029E', symObjAddr: 0x150, symBinAddr: 0x33448, symSize: 0x10 }
  - { offset: 0xA7897, size: 0x8, addend: 0x0, symName: '__ZN45_$LT$f64$u20$as$u20$zmij..private..Sealed$GT$20write_to_zmij_buffer17h29740cef4a25257fE', symObjAddr: 0x348, symBinAddr: 0x33458, symSize: 0x28 }
  - { offset: 0xA78DB, size: 0x8, addend: 0x0, symName: __ZN4zmij11FloatTraits11is_negative17hf708db699ff88b9eE, symObjAddr: 0x1570, symBinAddr: 0x3430C, symSize: 0x6C }
  - { offset: 0xA7910, size: 0x8, addend: 0x0, symName: __ZN4zmij11FloatTraits7get_exp17h9070dd8e9144f623E, symObjAddr: 0x1640, symBinAddr: 0x34378, symSize: 0x64 }
  - { offset: 0xA7945, size: 0x8, addend: 0x0, symName: __ZN4zmij11FloatTraits7get_sig17h7f57889b566a2d2fE, symObjAddr: 0x16EC, symBinAddr: 0x343DC, symSize: 0x4C }
  - { offset: 0xA797B, size: 0x8, addend: 0x0, symName: __ZN4zmij12umul128_hi6417h8cd94a07ef4890c8E, symObjAddr: 0x1738, symBinAddr: 0x34428, symSize: 0x28 }
  - { offset: 0xA79B5, size: 0x8, addend: 0x0, symName: __ZN4zmij13umul192_hi12817hcda232fdf6ac3d36E, symObjAddr: 0x1760, symBinAddr: 0x34450, symSize: 0xBC }
  - { offset: 0xA7A6A, size: 0x8, addend: 0x0, symName: __ZN4zmij14select_if_less17h65cf301b395d7e7cE, symObjAddr: 0x181C, symBinAddr: 0x3450C, symSize: 0xAC }
  - { offset: 0xA7C9D, size: 0x8, addend: 0x0, symName: __ZN4zmij15compute_dec_exp17hd009aaf3252aa9e9E, symObjAddr: 0x18C8, symBinAddr: 0x345B8, symSize: 0x10C }
  - { offset: 0xA7CDA, size: 0x8, addend: 0x0, symName: __ZN4zmij15to_decimal_fast17hd835cbc064e55fefE, symObjAddr: 0x1F98, symBinAddr: 0x346C4, symSize: 0x5C0 }
  - { offset: 0xA7F97, size: 0x8, addend: 0x0, symName: __ZN4zmij17compute_exp_shift17h660c6795f5f922b1E, symObjAddr: 0x2648, symBinAddr: 0x34C84, symSize: 0x84 }
  - { offset: 0xA7FF3, size: 0x8, addend: 0x0, symName: __ZN4zmij17compute_exp_shift17hf23cc9027dbcb6b8E, symObjAddr: 0x2754, symBinAddr: 0x34D08, symSize: 0xEC }
  - { offset: 0xA8075, size: 0x8, addend: 0x0, symName: __ZN4zmij17write_significand17hb8acb4997adc92d1E, symObjAddr: 0x2840, symBinAddr: 0x34DF4, symSize: 0x4E0 }
  - { offset: 0xA830F, size: 0x8, addend: 0x0, symName: __ZN4zmij20do_compute_exp_shift17h97021e9f46b75441E, symObjAddr: 0x2E08, symBinAddr: 0x352D4, symSize: 0x11C }
  - { offset: 0xA8362, size: 0x8, addend: 0x0, symName: __ZN4zmij20to_decimal_schubfach17h50e0117eb95bce29E, symObjAddr: 0x2F24, symBinAddr: 0x353F0, symSize: 0x580 }
  - { offset: 0xA8672, size: 0x8, addend: 0x0, symName: __ZN4zmij21umulhi_inexact_to_odd17h9fd405abdc1c7218E, symObjAddr: 0x3A14, symBinAddr: 0x35970, symSize: 0x110 }
  - { offset: 0xA8750, size: 0x8, addend: 0x0, symName: __ZN4zmij5write17ha88d1b4775a1e04eE, symObjAddr: 0x4964, symBinAddr: 0x35C44, symSize: 0xB68 }
  - { offset: 0xA8DA7, size: 0x8, addend: 0x0, symName: __ZN4zmij7digits217h9b719fb46ba3d5f8E, symObjAddr: 0x5510, symBinAddr: 0x367AC, symSize: 0x7C }
  - { offset: 0xA8DFB, size: 0x8, addend: 0x0, symName: __ZN4zmij7umul12817hd1d78d169e618326E, symObjAddr: 0x5794, symBinAddr: 0x36828, symSize: 0x54 }
  - { offset: 0xA8E35, size: 0x8, addend: 0x0, symName: __ZN4zmij8write_if17ha4becb6e28fd84d2E, symObjAddr: 0x57E8, symBinAddr: 0x3687C, symSize: 0x7C }
  - { offset: 0xA8FEC, size: 0x8, addend: 0x0, symName: __ZN4core9core_arch10arm_shared4neon9generated10vdupq_n_s817h5b82d48572af28aeE, symObjAddr: 0xFE4, symBinAddr: 0x33DEC, symSize: 0x2C }
  - { offset: 0xA90A6, size: 0x8, addend: 0x0, symName: __ZN4core9core_arch10arm_shared4neon9generated10vmla_n_s3217hfc1a28826b959c54E, symObjAddr: 0x1010, symBinAddr: 0x33E18, symSize: 0x50 }
  - { offset: 0xA9176, size: 0x8, addend: 0x0, symName: __ZN4core9core_arch10arm_shared4neon9generated10vrev64q_u817hb26bf9283b067401E, symObjAddr: 0x1060, symBinAddr: 0x33E68, symSize: 0x10 }
  - { offset: 0xA91CF, size: 0x8, addend: 0x0, symName: __ZN4core9core_arch10arm_shared4neon9generated10vshr_n_u3217h90479928c5b3f75cE, symObjAddr: 0x1070, symBinAddr: 0x33E78, symSize: 0x68 }
  - { offset: 0xA92DC, size: 0x8, addend: 0x0, symName: __ZN4core9core_arch10arm_shared4neon9generated11vmlaq_n_s1617h6bb06a8963f2b240E, symObjAddr: 0x10D8, symBinAddr: 0x33EE0, symSize: 0x50 }
  - { offset: 0xA9402, size: 0x8, addend: 0x0, symName: __ZN4core9core_arch10arm_shared4neon9generated11vmlaq_n_s3217hfb761bb1305f6371E, symObjAddr: 0x1128, symBinAddr: 0x33F30, symSize: 0x50 }
  - { offset: 0xA94F2, size: 0x8, addend: 0x0, symName: __ZN4core9core_arch10arm_shared4neon9generated11vshll_n_u1617hbf21b219cb15e0f7E, symObjAddr: 0x1178, symBinAddr: 0x33F80, symSize: 0x48 }
  - { offset: 0xA9594, size: 0x8, addend: 0x0, symName: __ZN4core9core_arch10arm_shared4neon9generated11vshrn_n_u1617h1cd11f2f4e7e8d69E, symObjAddr: 0x11C0, symBinAddr: 0x33FC8, symSize: 0x50 }
  - { offset: 0xA9618, size: 0x8, addend: 0x0, symName: __ZN4core9core_arch10arm_shared4neon9generated13vget_lane_u6417heee3fb2d4cb037f2E, symObjAddr: 0x1210, symBinAddr: 0x34018, symSize: 0x18 }
  - { offset: 0xA968F, size: 0x8, addend: 0x0, symName: __ZN4core9core_arch10arm_shared4neon9generated13vqdmulh_n_s3217h46f198237b5fecadE, symObjAddr: 0x1228, symBinAddr: 0x34030, symSize: 0x40 }
  - { offset: 0xA97AE, size: 0x8, addend: 0x0, symName: __ZN4core9core_arch10arm_shared4neon9generated14vqdmulhq_n_s1617h896e0fe44239f845E, symObjAddr: 0x1268, symBinAddr: 0x34070, symSize: 0x40 }
  - { offset: 0xA98CD, size: 0x8, addend: 0x0, symName: __ZN4core9core_arch10arm_shared4neon9generated14vqdmulhq_n_s3217h05b8371a7b79d615E, symObjAddr: 0x12A8, symBinAddr: 0x340B0, symSize: 0x40 }
  - { offset: 0xA99A4, size: 0x8, addend: 0x0, symName: __ZN4core9core_arch10arm_shared4neon9generated19vreinterpret_u64_u817h85b33ece61d42729E, symObjAddr: 0x12E8, symBinAddr: 0x340F0, symSize: 0xC }
  - { offset: 0xA99D2, size: 0x8, addend: 0x0, symName: __ZN4core9core_arch10arm_shared4neon9generated19vreinterpretq_s8_u817hdf793b9600ae692eE, symObjAddr: 0x12F4, symBinAddr: 0x340FC, symSize: 0xC }
  - { offset: 0xA9A00, size: 0x8, addend: 0x0, symName: __ZN4core9core_arch10arm_shared4neon9generated20vreinterpret_s32_u3217h751c82a14710abc3E, symObjAddr: 0x1300, symBinAddr: 0x34108, symSize: 0xC }
  - { offset: 0xA9A2E, size: 0x8, addend: 0x0, symName: __ZN4core9core_arch10arm_shared4neon9generated20vreinterpret_s32_u6417h0d158802ef7b200cE, symObjAddr: 0x130C, symBinAddr: 0x34114, symSize: 0x10 }
  - { offset: 0xA9A5C, size: 0x8, addend: 0x0, symName: __ZN4core9core_arch10arm_shared4neon9generated20vreinterpret_u16_s3217h2c5f5372579e5f41E, symObjAddr: 0x131C, symBinAddr: 0x34124, symSize: 0xC }
  - { offset: 0xA9A8A, size: 0x8, addend: 0x0, symName: __ZN4core9core_arch10arm_shared4neon9generated20vreinterpret_u32_s3217h21d478c23d4d6ba5E, symObjAddr: 0x1328, symBinAddr: 0x34130, symSize: 0xC }
  - { offset: 0xA9AB8, size: 0x8, addend: 0x0, symName: __ZN4core9core_arch10arm_shared4neon9generated20vreinterpretq_u16_s817h91bd24832fec4fe7E, symObjAddr: 0x1334, symBinAddr: 0x3413C, symSize: 0xC }
  - { offset: 0xA9AE6, size: 0x8, addend: 0x0, symName: __ZN4core9core_arch10arm_shared4neon9generated20vreinterpretq_u16_u817hd68b4e1c180b39dcE, symObjAddr: 0x1340, symBinAddr: 0x34148, symSize: 0xC }
  - { offset: 0xA9B14, size: 0x8, addend: 0x0, symName: __ZN4core9core_arch10arm_shared4neon9generated20vreinterpretq_u8_s1617ha722a39b627864f2E, symObjAddr: 0x134C, symBinAddr: 0x34154, symSize: 0xC }
  - { offset: 0xA9B42, size: 0x8, addend: 0x0, symName: __ZN4core9core_arch10arm_shared4neon9generated21vreinterpretq_s16_s3217h3ee3544e15c95044E, symObjAddr: 0x1358, symBinAddr: 0x34160, symSize: 0xC }
  - { offset: 0xA9B70, size: 0x8, addend: 0x0, symName: __ZN4core9core_arch10arm_shared4neon9generated21vreinterpretq_s32_u3217h908888adff731cadE, symObjAddr: 0x1364, symBinAddr: 0x3416C, symSize: 0xC }
  - { offset: 0xA9B9E, size: 0x8, addend: 0x0, symName: __ZN4core9core_arch10arm_shared4neon9generated9vaddq_u1617h4a99a79bdbd6723dE, symObjAddr: 0x1370, symBinAddr: 0x34178, symSize: 0x14 }
  - { offset: 0xA9E00, size: 0x8, addend: 0x0, symName: __ZN4core9core_arch7aarch644neon9generated9vcgtzq_s817hcedf1d41a808b620E, symObjAddr: 0x1384, symBinAddr: 0x3418C, symSize: 0xA8 }
  - { offset: 0xA9EF5, size: 0x8, addend: 0x0, symName: '__ZN100_$LT$core..ops..range..RangeInclusive$LT$T$GT$$u20$as$u20$core..ops..range..RangeBounds$LT$T$GT$$GT$11start_bound17h6fbb5d7c33b709f0E', symObjAddr: 0x0, symBinAddr: 0x33368, symSize: 0x1C }
  - { offset: 0xA9F2C, size: 0x8, addend: 0x0, symName: '__ZN100_$LT$core..ops..range..RangeInclusive$LT$T$GT$$u20$as$u20$core..ops..range..RangeBounds$LT$T$GT$$GT$9end_bound17h47a35ae4b771ef3dE', symObjAddr: 0x1C, symBinAddr: 0x33384, symSize: 0x58 }
  - { offset: 0xA9F69, size: 0x8, addend: 0x0, symName: __ZN4core3ops5range11RangeBounds8contains17h553c63c81e11fe0cE, symObjAddr: 0x7B8, symBinAddr: 0x3365C, symSize: 0x1AC }
  - { offset: 0xAA22C, size: 0x8, addend: 0x0, symName: '__ZN45_$LT$u64$u20$as$u20$core..ops..bit..BitOr$GT$5bitor17h7887a37bad252adcE', symObjAddr: 0x5B4, symBinAddr: 0x33594, symSize: 0x18 }
  - { offset: 0xAA26F, size: 0x8, addend: 0x0, symName: '__ZN46_$LT$u64$u20$as$u20$core..ops..bit..BitAnd$GT$6bitand17h85e25bca89e76041E', symObjAddr: 0x5E4, symBinAddr: 0x335AC, symSize: 0x18 }
  - { offset: 0xAA2AF, size: 0x8, addend: 0x0, symName: '__ZN53_$LT$u64$u20$as$u20$core..ops..bit..Shl$LT$u8$GT$$GT$3shl17h803ed51f8706fde3E', symObjAddr: 0x58E8, symBinAddr: 0x3690C, symSize: 0x5C }
  - { offset: 0xAA2F2, size: 0x8, addend: 0x0, symName: '__ZN54_$LT$u64$u20$as$u20$core..ops..bit..Shl$LT$i32$GT$$GT$3shl17hd9a10e24f7e3089eE', symObjAddr: 0x59E4, symBinAddr: 0x36968, symSize: 0x50 }
  - { offset: 0xAA335, size: 0x8, addend: 0x0, symName: '__ZN54_$LT$u64$u20$as$u20$core..ops..bit..Shl$LT$u32$GT$$GT$3shl17h126e8023013d3166E', symObjAddr: 0x5A34, symBinAddr: 0x369B8, symSize: 0x50 }
  - { offset: 0xAA378, size: 0x8, addend: 0x0, symName: '__ZN54_$LT$u64$u20$as$u20$core..ops..bit..Shr$LT$i32$GT$$GT$3shr17h8adcdb82b68938c5E', symObjAddr: 0x5A84, symBinAddr: 0x36A08, symSize: 0x50 }
  - { offset: 0xAA3BB, size: 0x8, addend: 0x0, symName: '__ZN54_$LT$u64$u20$as$u20$core..ops..bit..Shr$LT$u32$GT$$GT$3shr17h0f8d750b44cdbfc2E', symObjAddr: 0x5AD4, symBinAddr: 0x36A58, symSize: 0x50 }
  - { offset: 0xAA404, size: 0x8, addend: 0x0, symName: '__ZN45_$LT$u64$u20$as$u20$core..ops..arith..Add$GT$3add17hff8ea3ac3a4b1b9dE', symObjAddr: 0x4A0, symBinAddr: 0x33480, symSize: 0x44 }
  - { offset: 0xAA444, size: 0x8, addend: 0x0, symName: '__ZN45_$LT$u64$u20$as$u20$core..ops..arith..Div$GT$3div17h933d88e98f9bf9a4E', symObjAddr: 0x4E4, symBinAddr: 0x334C4, symSize: 0x48 }
  - { offset: 0xAA487, size: 0x8, addend: 0x0, symName: '__ZN45_$LT$u64$u20$as$u20$core..ops..arith..Mul$GT$3mul17h3b32822341c8be35E', symObjAddr: 0x52C, symBinAddr: 0x3350C, symSize: 0x44 }
  - { offset: 0xAA4CA, size: 0x8, addend: 0x0, symName: '__ZN45_$LT$u64$u20$as$u20$core..ops..arith..Sub$GT$3sub17hf87c3dafdec721ebE', symObjAddr: 0x570, symBinAddr: 0x33550, symSize: 0x44 }
  - { offset: 0xAA7C8, size: 0x8, addend: 0x0, symName: '__ZN50_$LT$T$u20$as$u20$core..convert..Into$LT$U$GT$$GT$4into17h3b7e21ad8d306aa3E', symObjAddr: 0x5864, symBinAddr: 0x368F8, symSize: 0x14 }
  - { offset: 0xAA85B, size: 0x8, addend: 0x0, symName: '__ZN4core3cmp5impls54_$LT$impl$u20$core..cmp..PartialEq$u20$for$u20$i64$GT$2eq17h3120d5cbd8330030E', symObjAddr: 0x6B4, symBinAddr: 0x335C4, symSize: 0x2C }
  - { offset: 0xAA89E, size: 0x8, addend: 0x0, symName: '__ZN4core3cmp5impls54_$LT$impl$u20$core..cmp..PartialEq$u20$for$u20$u64$GT$2eq17hd8e3c8ceff44a659E', symObjAddr: 0x738, symBinAddr: 0x335F0, symSize: 0x2C }
  - { offset: 0xAA8DB, size: 0x8, addend: 0x0, symName: '__ZN4core3cmp5impls54_$LT$impl$u20$core..cmp..PartialEq$u20$for$u20$u64$GT$2ne17h84f33b47e0cec1b2E', symObjAddr: 0x764, symBinAddr: 0x3361C, symSize: 0x2C }
  - { offset: 0xAAA5D, size: 0x8, addend: 0x0, symName: '__ZN4core3f6421_$LT$impl$u20$f64$GT$7to_bits17h4ac46a6bbe46a4fcE', symObjAddr: 0x7A4, symBinAddr: 0x33648, symSize: 0x14 }
  - { offset: 0xAAC63, size: 0x8, addend: 0x0, symName: __ZN4core9ub_checks23maybe_is_nonoverlapping7runtime17ha38f4fbaaa7c0867E, symObjAddr: 0x142C, symBinAddr: 0x34234, symSize: 0xD8 }
  - { offset: 0xAAE1A, size: 0x8, addend: 0x0, symName: __ZN4core3ptr11write_bytes18precondition_check17hbd112eed97fefa1aE, symObjAddr: 0x990, symBinAddr: 0x33834, symSize: 0x9C }
  - { offset: 0xAAF28, size: 0x8, addend: 0x0, symName: __ZN4core3ptr15write_unaligned17h8720cd1a39b0013eE, symObjAddr: 0xAA4, symBinAddr: 0x338D0, symSize: 0x78 }
  - { offset: 0xAAFE9, size: 0x8, addend: 0x0, symName: __ZN4core3ptr15write_unaligned17hb7a6f3f4c8a0320eE, symObjAddr: 0xB1C, symBinAddr: 0x33948, symSize: 0x78 }
  - { offset: 0xAB073, size: 0x8, addend: 0x0, symName: __ZN4core3ptr19copy_nonoverlapping18precondition_check17h85715f53bf725776E, symObjAddr: 0xB94, symBinAddr: 0x339C0, symSize: 0x168 }
  - { offset: 0xAB22D, size: 0x8, addend: 0x0, symName: __ZN4core3ptr4copy18precondition_check17h12ee94881d1d616bE, symObjAddr: 0xCFC, symBinAddr: 0x33B28, symSize: 0x130 }
  - { offset: 0xAB37E, size: 0x8, addend: 0x0, symName: '__ZN4core3ptr9const_ptr33_$LT$impl$u20$$BP$const$u20$T$GT$11offset_from17h80119ee86e9568a3E', symObjAddr: 0xE50, symBinAddr: 0x33C58, symSize: 0x48 }
  - { offset: 0xAB3F7, size: 0x8, addend: 0x0, symName: '__ZN4core3ptr9const_ptr33_$LT$impl$u20$$BP$const$u20$T$GT$13is_aligned_to17h1b9c9ab1f8216045E', symObjAddr: 0xE98, symBinAddr: 0x33CA0, symSize: 0x88 }
  - { offset: 0xAB50E, size: 0x8, addend: 0x0, symName: '__ZN4core3ptr9const_ptr33_$LT$impl$u20$$BP$const$u20$T$GT$6offset18precondition_check17hb494a7236d4794fdE', symObjAddr: 0xF20, symBinAddr: 0x33D28, symSize: 0xC4 }
  - { offset: 0xABD6A, size: 0x8, addend: 0x0, symName: '__ZN4core3ops5range25RangeInclusive$LT$Idx$GT$8contains17hbd577969aa03ee14E', symObjAddr: 0x964, symBinAddr: 0x33808, symSize: 0x2C }
  - { offset: 0xAC16F, size: 0x8, addend: 0x0, symName: __ZN4zmij22Pow10SignificandsTable13get_unchecked17h8b10993a36ca3417E, symObjAddr: 0x3C38, symBinAddr: 0x35A80, symSize: 0x1C4 }
  - { offset: 0xAC638, size: 0x8, addend: 0x0, symName: __ZN4core3ptr9alignment9Alignment13new_unchecked18precondition_check17h2a22649f2dbf4f23E, symObjAddr: 0x1BEC, symBinAddr: 0x36C0C, symSize: 0x70 }
  - { offset: 0xAC7AC, size: 0x8, addend: 0x0, symName: '__ZN4core3ptr49drop_in_place$LT$alloc..boxed..Box$LT$str$GT$$GT$17h521329aa3be5284dE', symObjAddr: 0x1BC0, symBinAddr: 0x36BE0, symSize: 0x2C }
  - { offset: 0xAC8F1, size: 0x8, addend: 0x0, symName: __ZN4core3cmp3Ord3max17h9c1b872bf12f560cE, symObjAddr: 0x15CC, symBinAddr: 0x36AA8, symSize: 0x74 }
  - { offset: 0xACA00, size: 0x8, addend: 0x0, symName: '__ZN4core3num23_$LT$impl$u20$usize$GT$13unchecked_add18precondition_check17h17f8c3f7a93b0afaE', symObjAddr: 0x1AFC, symBinAddr: 0x36B1C, symSize: 0x64 }
  - { offset: 0xACA7F, size: 0x8, addend: 0x0, symName: '__ZN4core3num23_$LT$impl$u20$usize$GT$13unchecked_sub18precondition_check17h3af07701494c2e01E', symObjAddr: 0x1B60, symBinAddr: 0x36B80, symSize: 0x60 }
  - { offset: 0xACEDC, size: 0x8, addend: 0x0, symName: '__ZN73_$LT$$u5b$A$u5d$$u20$as$u20$core..slice..cmp..SlicePartialEq$LT$B$GT$$GT$5equal17h69934e1295f3b33aE', symObjAddr: 0x434C, symBinAddr: 0x3782C, symSize: 0x88 }
  - { offset: 0xAD476, size: 0x8, addend: 0x0, symName: '__ZN84_$LT$core..str..pattern..MatchOnly$u20$as$u20$core..str..pattern..TwoWayStrategy$GT$16use_early_reject17h7edc1db9a4ee491dE', symObjAddr: 0x4E08, symBinAddr: 0x378B4, symSize: 0xC }
  - { offset: 0xAD494, size: 0x8, addend: 0x0, symName: '__ZN84_$LT$core..str..pattern..MatchOnly$u20$as$u20$core..str..pattern..TwoWayStrategy$GT$8matching17h8a71f37cfc472326E', symObjAddr: 0x4E14, symBinAddr: 0x378C0, symSize: 0x28 }
  - { offset: 0xAD4D1, size: 0x8, addend: 0x0, symName: '__ZN84_$LT$core..str..pattern..MatchOnly$u20$as$u20$core..str..pattern..TwoWayStrategy$GT$9rejecting17hadeb845d88d934deE', symObjAddr: 0x4E3C, symBinAddr: 0x378E8, symSize: 0x18 }
  - { offset: 0xAD514, size: 0x8, addend: 0x0, symName: '__ZN89_$LT$core..str..pattern..RejectAndMatch$u20$as$u20$core..str..pattern..TwoWayStrategy$GT$16use_early_reject17hb2c030cc513bea3aE', symObjAddr: 0x4E94, symBinAddr: 0x37900, symSize: 0xC }
  - { offset: 0xAD532, size: 0x8, addend: 0x0, symName: '__ZN89_$LT$core..str..pattern..RejectAndMatch$u20$as$u20$core..str..pattern..TwoWayStrategy$GT$8matching17hbf05586665f41b11E', symObjAddr: 0x4EA0, symBinAddr: 0x3790C, symSize: 0x20 }
  - { offset: 0xAD56F, size: 0x8, addend: 0x0, symName: '__ZN89_$LT$core..str..pattern..RejectAndMatch$u20$as$u20$core..str..pattern..TwoWayStrategy$GT$9rejecting17hd9b93317c7e5b677E', symObjAddr: 0x4EC0, symBinAddr: 0x3792C, symSize: 0x28 }
  - { offset: 0xAD695, size: 0x8, addend: 0x0, symName: __ZN4core5alloc6layout6Layout25from_size_align_unchecked18precondition_check17ha6473ca1dc9fa20aE, symObjAddr: 0x2F5C, symBinAddr: 0x3765C, symSize: 0xBC }
  - { offset: 0xAD968, size: 0x8, addend: 0x0, symName: __ZN4core3str7pattern14TwoWaySearcher4next17h87475278fa840461E, symObjAddr: 0x2138, symBinAddr: 0x36C7C, symSize: 0x4F0 }
  - { offset: 0xADC98, size: 0x8, addend: 0x0, symName: __ZN4core3str7pattern14TwoWaySearcher4next17hce089b231382a77cE, symObjAddr: 0x2628, symBinAddr: 0x3716C, symSize: 0x4F0 }
  - { offset: 0xAE08F, size: 0x8, addend: 0x0, symName: '__ZN63_$LT$alloc..alloc..Global$u20$as$u20$core..alloc..Allocator$GT$10deallocate17h7a2966a204a8bcd7E', symObjAddr: 0x3B1C, symBinAddr: 0x37718, symSize: 0x58 }
  - { offset: 0xAE169, size: 0x8, addend: 0x0, symName: '__ZN72_$LT$alloc..boxed..Box$LT$T$C$A$GT$$u20$as$u20$core..ops..drop..Drop$GT$4drop17hf10fafa44db78958E', symObjAddr: 0x4290, symBinAddr: 0x37770, symSize: 0xBC }
  - { offset: 0xAE533, size: 0x8, addend: 0x0, symName: '__ZN44_$LT$T$u20$as$u20$alloc..borrow..ToOwned$GT$8to_owned17hda4e39fe90cff79dE', symObjAddr: 0x69C0, symBinAddr: 0x39074, symSize: 0x24 }
  - { offset: 0xAE934, size: 0x8, addend: 0x0, symName: '__ZN42_$LT$$RF$T$u20$as$u20$core..fmt..Debug$GT$3fmt17hf4e505f707ea7748E', symObjAddr: 0x68C4, symBinAddr: 0x38FE4, symSize: 0x30 }
  - { offset: 0xAE980, size: 0x8, addend: 0x0, symName: '__ZN44_$LT$$RF$T$u20$as$u20$core..fmt..Display$GT$3fmt17h5f4fdbe0c639ce4dE', symObjAddr: 0x68F4, symBinAddr: 0x39014, symSize: 0x30 }
  - { offset: 0xAE9C6, size: 0x8, addend: 0x0, symName: '__ZN44_$LT$$RF$T$u20$as$u20$core..fmt..Display$GT$3fmt17h792e7a91fec5bb0fE', symObjAddr: 0x6924, symBinAddr: 0x39044, symSize: 0x30 }
  - { offset: 0xAEB7F, size: 0x8, addend: 0x0, symName: '__ZN4core5array4iter94_$LT$impl$u20$core..iter..traits..collect..IntoIterator$u20$for$u20$$u5b$T$u3b$$u20$N$u5d$$GT$9into_iter17hfff92420e68e83cfE', symObjAddr: 0x6CBC, symBinAddr: 0x390D4, symSize: 0x68 }
  - { offset: 0xB03EE, size: 0x8, addend: 0x0, symName: '__ZN50_$LT$T$u20$as$u20$core..convert..Into$LT$U$GT$$GT$4into17h49e11b6559292bbeE', symObjAddr: 0xC094, symBinAddr: 0x3B378, symSize: 0x24 }
  - { offset: 0xB042E, size: 0x8, addend: 0x0, symName: '__ZN50_$LT$T$u20$as$u20$core..convert..Into$LT$U$GT$$GT$4into17h56cac2f856c1b138E', symObjAddr: 0xC0B8, symBinAddr: 0x3B39C, symSize: 0x24 }
  - { offset: 0xB046E, size: 0x8, addend: 0x0, symName: '__ZN50_$LT$T$u20$as$u20$core..convert..Into$LT$U$GT$$GT$4into17h6e539afa80f81d1eE', symObjAddr: 0xC100, symBinAddr: 0x3B3C0, symSize: 0x24 }
  - { offset: 0xB04AE, size: 0x8, addend: 0x0, symName: '__ZN50_$LT$T$u20$as$u20$core..convert..Into$LT$U$GT$$GT$4into17hdf50ed579b899ea9E', symObjAddr: 0xC190, symBinAddr: 0x3B3E4, symSize: 0x24 }
  - { offset: 0xB05DC, size: 0x8, addend: 0x0, symName: '__ZN103_$LT$pyo3..instance..Bound$LT$pyo3..types..any..PyAny$GT$$u20$as$u20$pyo3..types..any..PyAnyMethods$GT$13downcast_into17h2bc58714bb80a6feE', symObjAddr: 0x23C, symBinAddr: 0x37954, symSize: 0xE8 }
  - { offset: 0xB0613, size: 0x8, addend: 0x0, symName: '__ZN103_$LT$pyo3..instance..Bound$LT$pyo3..types..any..PyAny$GT$$u20$as$u20$pyo3..types..any..PyAnyMethods$GT$13downcast_into17hb4c29bfc2cc7a3eeE', symObjAddr: 0x5DC, symBinAddr: 0x37A3C, symSize: 0xE8 }
  - { offset: 0xB064A, size: 0x8, addend: 0x0, symName: '__ZN103_$LT$pyo3..instance..Bound$LT$pyo3..types..any..PyAny$GT$$u20$as$u20$pyo3..types..any..PyAnyMethods$GT$13downcast_into17hbe4548d24d0a6acaE', symObjAddr: 0x6C4, symBinAddr: 0x37B24, symSize: 0xE8 }
  - { offset: 0xB0681, size: 0x8, addend: 0x0, symName: '__ZN103_$LT$pyo3..instance..Bound$LT$pyo3..types..any..PyAny$GT$$u20$as$u20$pyo3..types..any..PyAnyMethods$GT$23downcast_into_unchecked17h0920d55a2d7ec24fE', symObjAddr: 0xCA8, symBinAddr: 0x37C0C, symSize: 0x14 }
  - { offset: 0xB06B8, size: 0x8, addend: 0x0, symName: '__ZN103_$LT$pyo3..instance..Bound$LT$pyo3..types..any..PyAny$GT$$u20$as$u20$pyo3..types..any..PyAnyMethods$GT$23downcast_into_unchecked17h16cf609cfb1cb6f1E', symObjAddr: 0xCBC, symBinAddr: 0x37C20, symSize: 0x14 }
  - { offset: 0xB06EF, size: 0x8, addend: 0x0, symName: '__ZN103_$LT$pyo3..instance..Bound$LT$pyo3..types..any..PyAny$GT$$u20$as$u20$pyo3..types..any..PyAnyMethods$GT$23downcast_into_unchecked17h29bf4fa1ae3d2c59E', symObjAddr: 0xCF8, symBinAddr: 0x37C34, symSize: 0x14 }
  - { offset: 0xB0726, size: 0x8, addend: 0x0, symName: '__ZN103_$LT$pyo3..instance..Bound$LT$pyo3..types..any..PyAny$GT$$u20$as$u20$pyo3..types..any..PyAnyMethods$GT$23downcast_into_unchecked17h42de6b0803ced33eE', symObjAddr: 0xD20, symBinAddr: 0x37C48, symSize: 0x14 }
  - { offset: 0xB075D, size: 0x8, addend: 0x0, symName: '__ZN103_$LT$pyo3..instance..Bound$LT$pyo3..types..any..PyAny$GT$$u20$as$u20$pyo3..types..any..PyAnyMethods$GT$23downcast_into_unchecked17h4e0eabaeb552ae90E', symObjAddr: 0xD48, symBinAddr: 0x37C5C, symSize: 0x14 }
  - { offset: 0xB0794, size: 0x8, addend: 0x0, symName: '__ZN103_$LT$pyo3..instance..Bound$LT$pyo3..types..any..PyAny$GT$$u20$as$u20$pyo3..types..any..PyAnyMethods$GT$23downcast_into_unchecked17h6d1a540b307d7e0aE', symObjAddr: 0xD98, symBinAddr: 0x37C70, symSize: 0x14 }
  - { offset: 0xB07CB, size: 0x8, addend: 0x0, symName: '__ZN103_$LT$pyo3..instance..Bound$LT$pyo3..types..any..PyAny$GT$$u20$as$u20$pyo3..types..any..PyAnyMethods$GT$23downcast_into_unchecked17h8741727ab8e8c6a8E', symObjAddr: 0xDC0, symBinAddr: 0x37C84, symSize: 0x14 }
  - { offset: 0xB0802, size: 0x8, addend: 0x0, symName: '__ZN103_$LT$pyo3..instance..Bound$LT$pyo3..types..any..PyAny$GT$$u20$as$u20$pyo3..types..any..PyAnyMethods$GT$23downcast_into_unchecked17h942de4af614a9db1E', symObjAddr: 0xDD4, symBinAddr: 0x37C98, symSize: 0x14 }
  - { offset: 0xB0839, size: 0x8, addend: 0x0, symName: '__ZN103_$LT$pyo3..instance..Bound$LT$pyo3..types..any..PyAny$GT$$u20$as$u20$pyo3..types..any..PyAnyMethods$GT$23downcast_into_unchecked17h944219999cf2d6f2E', symObjAddr: 0xDE8, symBinAddr: 0x37CAC, symSize: 0x14 }
  - { offset: 0xB0870, size: 0x8, addend: 0x0, symName: '__ZN103_$LT$pyo3..instance..Bound$LT$pyo3..types..any..PyAny$GT$$u20$as$u20$pyo3..types..any..PyAnyMethods$GT$23downcast_into_unchecked17hadc515b476e878faE', symObjAddr: 0xE74, symBinAddr: 0x37CC0, symSize: 0x14 }
  - { offset: 0xB08A7, size: 0x8, addend: 0x0, symName: '__ZN103_$LT$pyo3..instance..Bound$LT$pyo3..types..any..PyAny$GT$$u20$as$u20$pyo3..types..any..PyAnyMethods$GT$23downcast_into_unchecked17hbbd538e2e62ad8b2E', symObjAddr: 0xE88, symBinAddr: 0x37CD4, symSize: 0x14 }
  - { offset: 0xB08DE, size: 0x8, addend: 0x0, symName: '__ZN103_$LT$pyo3..instance..Bound$LT$pyo3..types..any..PyAny$GT$$u20$as$u20$pyo3..types..any..PyAnyMethods$GT$2is17hb30fca3ec81da5adE', symObjAddr: 0xED8, symBinAddr: 0x37CE8, symSize: 0x4C }
  - { offset: 0xB0924, size: 0x8, addend: 0x0, symName: '__ZN103_$LT$pyo3..instance..Bound$LT$pyo3..types..any..PyAny$GT$$u20$as$u20$pyo3..types..any..PyAnyMethods$GT$3str17hdafb76fb9b6bea69E', symObjAddr: 0x10E8, symBinAddr: 0x37D34, symSize: 0x5C }
  - { offset: 0xB0952, size: 0x8, addend: 0x0, symName: '__ZN103_$LT$pyo3..instance..Bound$LT$pyo3..types..any..PyAny$GT$$u20$as$u20$pyo3..types..any..PyAnyMethods$GT$4repr17hacd091ff626df7a0E', symObjAddr: 0x1C0C, symBinAddr: 0x37D90, symSize: 0x5C }
  - { offset: 0xB0980, size: 0x8, addend: 0x0, symName: '__ZN103_$LT$pyo3..instance..Bound$LT$pyo3..types..any..PyAny$GT$$u20$as$u20$pyo3..types..any..PyAnyMethods$GT$7getattr17hdc776edac6d79e65E', symObjAddr: 0x22F4, symBinAddr: 0x37DEC, symSize: 0x148 }
  - { offset: 0xB0A06, size: 0x8, addend: 0x0, symName: '__ZN103_$LT$pyo3..instance..Bound$LT$pyo3..types..any..PyAny$GT$$u20$as$u20$pyo3..types..any..PyAnyMethods$GT$7setattr17h94f8c5532487e34dE', symObjAddr: 0x2480, symBinAddr: 0x37F34, symSize: 0x234 }
  - { offset: 0xB0AD3, size: 0x8, addend: 0x0, symName: '__ZN103_$LT$pyo3..instance..Bound$LT$pyo3..types..any..PyAny$GT$$u20$as$u20$pyo3..types..any..PyAnyMethods$GT$7setattr17hf74c7d77d2019277E', symObjAddr: 0x26B4, symBinAddr: 0x38168, symSize: 0x234 }
  - { offset: 0xB0BA0, size: 0x8, addend: 0x0, symName: '__ZN103_$LT$pyo3..instance..Bound$LT$pyo3..types..any..PyAny$GT$$u20$as$u20$pyo3..types..any..PyAnyMethods$GT$8get_type17hfce2cb06fb8454ffE', symObjAddr: 0x2F30, symBinAddr: 0x3839C, symSize: 0x38 }
  - { offset: 0xB0C0A, size: 0x8, addend: 0x0, symName: '__ZN107_$LT$pyo3..instance..Bound$LT$pyo3..types..list..PyList$GT$$u20$as$u20$pyo3..types..list..PyListMethods$GT$6append17h496c113a3c9f4ecaE', symObjAddr: 0x365C, symBinAddr: 0x38440, symSize: 0x14C }
  - { offset: 0xB0CA1, size: 0x8, addend: 0x0, symName: '__ZN111_$LT$pyo3..instance..Bound$LT$pyo3..types..bytes..PyBytes$GT$$u20$as$u20$pyo3..types..bytes..PyBytesMethods$GT$8as_bytes17h5680652b93c8de4dE', symObjAddr: 0x3948, symBinAddr: 0x3858C, symSize: 0x28 }
  - { offset: 0xB0D09, size: 0x8, addend: 0x0, symName: '__ZN111_$LT$pyo3..instance..Bound$LT$pyo3..types..tuple..PyTuple$GT$$u20$as$u20$pyo3..types..tuple..PyTupleMethods$GT$3len17h83bc90630a6e9583E', symObjAddr: 0x3B5C, symBinAddr: 0x385B4, symSize: 0x2C }
  - { offset: 0xB0D83, size: 0x8, addend: 0x0, symName: '__ZN115_$LT$pyo3..instance..Bound$LT$pyo3..types..module..PyModule$GT$$u20$as$u20$pyo3..types..module..PyModuleMethods$GT$12add_function17h26db17d79253a42eE', symObjAddr: 0x3D24, symBinAddr: 0x385E0, symSize: 0x21C }
  - { offset: 0xB0E36, size: 0x8, addend: 0x0, symName: '__ZN115_$LT$pyo3..instance..Bound$LT$pyo3..types..module..PyModule$GT$$u20$as$u20$pyo3..types..module..PyModuleMethods$GT$3add17hc105378970838d15E', symObjAddr: 0x4538, symBinAddr: 0x387FC, symSize: 0x280 }
  - { offset: 0xB0F03, size: 0x8, addend: 0x0, symName: '__ZN115_$LT$pyo3..instance..Bound$LT$pyo3..types..module..PyModule$GT$$u20$as$u20$pyo3..types..module..PyModuleMethods$GT$4name17hea31d49d57b7cf3cE', symObjAddr: 0x480C, symBinAddr: 0x38A7C, symSize: 0x5C }
  - { offset: 0xB0F31, size: 0x8, addend: 0x0, symName: '__ZN115_$LT$pyo3..instance..Bound$LT$pyo3..types..module..PyModule$GT$$u20$as$u20$pyo3..types..module..PyModuleMethods$GT$5index17hd814b86b3e06a4fdE', symObjAddr: 0x4868, symBinAddr: 0x38AD8, symSize: 0x25C }
  - { offset: 0xB1004, size: 0x8, addend: 0x0, symName: '__ZN115_$LT$pyo3..instance..Bound$LT$pyo3..types..string..PyString$GT$$u20$as$u20$pyo3..types..string..PyStringMethods$GT$15to_string_lossy17hdf0a4270ad1c5489E', symObjAddr: 0x4B94, symBinAddr: 0x38D34, symSize: 0x30 }
  - { offset: 0xB1032, size: 0x8, addend: 0x0, symName: '__ZN115_$LT$pyo3..instance..Bound$LT$pyo3..types..string..PyString$GT$$u20$as$u20$pyo3..types..string..PyStringMethods$GT$6to_cow17hb2bd7d45f1491796E', symObjAddr: 0x4BC4, symBinAddr: 0x38D64, symSize: 0x30 }
  - { offset: 0xB1081, size: 0x8, addend: 0x0, symName: '__ZN119_$LT$pyo3..instance..Bound$LT$pyo3..types..typeobject..PyType$GT$$u20$as$u20$pyo3..types..typeobject..PyTypeMethods$GT$11as_type_ptr17h1612a52749e1ffb0E', symObjAddr: 0x4FD8, symBinAddr: 0x38D94, symSize: 0x24 }
  - { offset: 0xB10AD, size: 0x8, addend: 0x0, symName: '__ZN119_$LT$pyo3..instance..Bound$LT$pyo3..types..typeobject..PyType$GT$$u20$as$u20$pyo3..types..typeobject..PyTypeMethods$GT$4name17h10db12d028cb6a6bE', symObjAddr: 0x5708, symBinAddr: 0x38DB8, symSize: 0xE0 }
  - { offset: 0xB1116, size: 0x8, addend: 0x0, symName: '__ZN119_$LT$pyo3..instance..Bound$LT$pyo3..types..typeobject..PyType$GT$$u20$as$u20$pyo3..types..typeobject..PyTypeMethods$GT$8qualname17hdb72e4dbd0359378E', symObjAddr: 0x5A40, symBinAddr: 0x38E98, symSize: 0xE0 }
  - { offset: 0xB1228, size: 0x8, addend: 0x0, symName: '__ZN105_$LT$pyo3..instance..Py$LT$T$GT$$u20$as$u20$core..convert..From$LT$pyo3..instance..Bound$LT$T$GT$$GT$$GT$4from17h03c229c85b714b1eE', symObjAddr: 0x31D8, symBinAddr: 0x383D4, symSize: 0x24 }
  - { offset: 0xB125F, size: 0x8, addend: 0x0, symName: '__ZN105_$LT$pyo3..instance..Py$LT$T$GT$$u20$as$u20$core..convert..From$LT$pyo3..instance..Bound$LT$T$GT$$GT$$GT$4from17h4f6fd5379eccecb0E', symObjAddr: 0x31FC, symBinAddr: 0x383F8, symSize: 0x24 }
  - { offset: 0xB1296, size: 0x8, addend: 0x0, symName: '__ZN105_$LT$pyo3..instance..Py$LT$T$GT$$u20$as$u20$core..convert..From$LT$pyo3..instance..Bound$LT$T$GT$$GT$$GT$4from17h7ed502cc403c4f87E', symObjAddr: 0x3220, symBinAddr: 0x3841C, symSize: 0x24 }
  - { offset: 0xB12D3, size: 0x8, addend: 0x0, symName: '__ZN127_$LT$pyo3..instance..Py$LT$pyo3..types..any..PyAny$GT$$u20$as$u20$core..convert..From$LT$pyo3..instance..Bound$LT$T$GT$$GT$$GT$4from17hba66d04f3a99d69cE', symObjAddr: 0x6434, symBinAddr: 0x38F78, symSize: 0x28 }
  - { offset: 0xB2651, size: 0x8, addend: 0x0, symName: '__ZN4pyo38instance11Py$LT$T$GT$21from_owned_ptr_or_opt28_$u7b$$u7b$closure$u7d$$u7d$17h13e4a3dc7a04821dE', symObjAddr: 0x94CC, symBinAddr: 0x399AC, symSize: 0x14 }
  - { offset: 0xB2985, size: 0x8, addend: 0x0, symName: __ZN4pyo38instance13python_format17h057089cf84440c7cE, symObjAddr: 0xA208, symBinAddr: 0x3A06C, symSize: 0x2F8 }
  - { offset: 0xB30DC, size: 0x8, addend: 0x0, symName: '__ZN4pyo38instance36Bound$LT$pyo3..types..any..PyAny$GT$21from_owned_ptr_or_err28_$u7b$$u7b$closure$u7d$$u7d$17h077fca9c629c65dbE', symObjAddr: 0xBC1C, symBinAddr: 0x3B070, symSize: 0x28 }
  - { offset: 0xB313A, size: 0x8, addend: 0x0, symName: '__ZN4pyo38instance36Bound$LT$pyo3..types..any..PyAny$GT$21from_owned_ptr_or_opt28_$u7b$$u7b$closure$u7d$$u7d$17h5cfd48293691b221E', symObjAddr: 0xBC70, symBinAddr: 0x3B0C4, symSize: 0x28 }
  - { offset: 0xB319E, size: 0x8, addend: 0x0, symName: '__ZN4pyo38instance39Borrowed$LT$pyo3..types..any..PyAny$GT$15from_ptr_or_err28_$u7b$$u7b$closure$u7d$$u7d$17h2a5a149f7068e0d7E', symObjAddr: 0xBCFC, symBinAddr: 0x3B124, symSize: 0x20 }
  - { offset: 0xB31E7, size: 0x8, addend: 0x0, symName: '__ZN4pyo38instance39Borrowed$LT$pyo3..types..any..PyAny$GT$15from_ptr_or_err28_$u7b$$u7b$closure$u7d$$u7d$17he9fc32e915a175a4E', symObjAddr: 0xBD1C, symBinAddr: 0x3B144, symSize: 0x58 }
  - { offset: 0xB324D, size: 0x8, addend: 0x0, symName: '__ZN4pyo38instance39Borrowed$LT$pyo3..types..any..PyAny$GT$8from_ptr28_$u7b$$u7b$closure$u7d$$u7d$17hc7d694c1cdbdc94aE', symObjAddr: 0xBFD0, symBinAddr: 0x3B35C, symSize: 0x1C }
  - { offset: 0xB32A1, size: 0x8, addend: 0x0, symName: '__ZN67_$LT$pyo3..instance..Bound$LT$T$GT$$u20$as$u20$core..fmt..Debug$GT$3fmt17h24219a7559aaac03E', symObjAddr: 0xC1E8, symBinAddr: 0x3B408, symSize: 0x54 }
  - { offset: 0xB3305, size: 0x8, addend: 0x0, symName: '__ZN67_$LT$pyo3..instance..Bound$LT$T$GT$$u20$as$u20$core..fmt..Debug$GT$3fmt17hb2476992f4232116E', symObjAddr: 0xC23C, symBinAddr: 0x3B45C, symSize: 0x54 }
  - { offset: 0xB3369, size: 0x8, addend: 0x0, symName: '__ZN67_$LT$pyo3..instance..Bound$LT$T$GT$$u20$as$u20$core..fmt..Debug$GT$3fmt17heea233972157ef43E', symObjAddr: 0xC290, symBinAddr: 0x3B4B0, symSize: 0x54 }
  - { offset: 0xB33D3, size: 0x8, addend: 0x0, symName: '__ZN69_$LT$pyo3..instance..Bound$LT$T$GT$$u20$as$u20$core..clone..Clone$GT$5clone17h6013f34f67a29ceaE', symObjAddr: 0xC3E8, symBinAddr: 0x3B504, symSize: 0x34 }
  - { offset: 0xB340A, size: 0x8, addend: 0x0, symName: '__ZN69_$LT$pyo3..instance..Bound$LT$T$GT$$u20$as$u20$core..clone..Clone$GT$5clone17h9aef1d19a713d002E', symObjAddr: 0xC450, symBinAddr: 0x3B538, symSize: 0x34 }
  - { offset: 0xB3441, size: 0x8, addend: 0x0, symName: '__ZN69_$LT$pyo3..instance..Bound$LT$T$GT$$u20$as$u20$core..clone..Clone$GT$5clone17hc51c7c3b16ddb57aE', symObjAddr: 0xC4B8, symBinAddr: 0x3B56C, symSize: 0x34 }
  - { offset: 0xB347E, size: 0x8, addend: 0x0, symName: '__ZN69_$LT$pyo3..instance..Bound$LT$T$GT$$u20$as$u20$core..fmt..Display$GT$3fmt17h6d97e7ad9c1723bdE', symObjAddr: 0xC554, symBinAddr: 0x3B5A0, symSize: 0x54 }
  - { offset: 0xB34E2, size: 0x8, addend: 0x0, symName: '__ZN69_$LT$pyo3..instance..Bound$LT$T$GT$$u20$as$u20$core..fmt..Display$GT$3fmt17he19110ef02ed9676E', symObjAddr: 0xC5FC, symBinAddr: 0x3B5F4, symSize: 0x54 }
  - { offset: 0xB3546, size: 0x8, addend: 0x0, symName: '__ZN69_$LT$pyo3..instance..Bound$LT$T$GT$$u20$as$u20$core..fmt..Display$GT$3fmt17hfa8beefdb58d7e72E', symObjAddr: 0xC650, symBinAddr: 0x3B648, symSize: 0x54 }
  - { offset: 0xB35B0, size: 0x8, addend: 0x0, symName: '__ZN69_$LT$pyo3..instance..Py$LT$T$GT$$u20$as$u20$core..ops..drop..Drop$GT$4drop17h2319a7ae89b879daE', symObjAddr: 0xC6A4, symBinAddr: 0x3B69C, symSize: 0x28 }
  - { offset: 0xB35E3, size: 0x8, addend: 0x0, symName: '__ZN69_$LT$pyo3..instance..Py$LT$T$GT$$u20$as$u20$core..ops..drop..Drop$GT$4drop17h438a3c77aaa2a011E', symObjAddr: 0xC6CC, symBinAddr: 0x3B6C4, symSize: 0x28 }
  - { offset: 0xB3616, size: 0x8, addend: 0x0, symName: '__ZN69_$LT$pyo3..instance..Py$LT$T$GT$$u20$as$u20$core..ops..drop..Drop$GT$4drop17h6a8a707f3dcab7e6E', symObjAddr: 0xC6F4, symBinAddr: 0x3B6EC, symSize: 0x28 }
  - { offset: 0xB3649, size: 0x8, addend: 0x0, symName: '__ZN69_$LT$pyo3..instance..Py$LT$T$GT$$u20$as$u20$core..ops..drop..Drop$GT$4drop17hb4633780e7d5cb92E', symObjAddr: 0xC744, symBinAddr: 0x3B714, symSize: 0x28 }
  - { offset: 0xB367C, size: 0x8, addend: 0x0, symName: '__ZN69_$LT$pyo3..instance..Py$LT$T$GT$$u20$as$u20$core..ops..drop..Drop$GT$4drop17hc67e08f49b5c0847E', symObjAddr: 0xC76C, symBinAddr: 0x3B73C, symSize: 0x28 }
  - { offset: 0xB36B5, size: 0x8, addend: 0x0, symName: '__ZN72_$LT$pyo3..instance..Bound$LT$T$GT$$u20$as$u20$core..ops..drop..Drop$GT$4drop17h00deb2360feb3843E', symObjAddr: 0xC794, symBinAddr: 0x3B764, symSize: 0x30 }
  - { offset: 0xB3706, size: 0x8, addend: 0x0, symName: '__ZN72_$LT$pyo3..instance..Bound$LT$T$GT$$u20$as$u20$core..ops..drop..Drop$GT$4drop17h14147ba3a5113655E', symObjAddr: 0xC824, symBinAddr: 0x3B794, symSize: 0x30 }
  - { offset: 0xB3757, size: 0x8, addend: 0x0, symName: '__ZN72_$LT$pyo3..instance..Bound$LT$T$GT$$u20$as$u20$core..ops..drop..Drop$GT$4drop17h2f326a14774d44e1E', symObjAddr: 0xC854, symBinAddr: 0x3B7C4, symSize: 0x30 }
  - { offset: 0xB37A8, size: 0x8, addend: 0x0, symName: '__ZN72_$LT$pyo3..instance..Bound$LT$T$GT$$u20$as$u20$core..ops..drop..Drop$GT$4drop17h38393bec385b0a5bE', symObjAddr: 0xC884, symBinAddr: 0x3B7F4, symSize: 0x30 }
  - { offset: 0xB37F9, size: 0x8, addend: 0x0, symName: '__ZN72_$LT$pyo3..instance..Bound$LT$T$GT$$u20$as$u20$core..ops..drop..Drop$GT$4drop17h9d6840b294dc4413E', symObjAddr: 0xC944, symBinAddr: 0x3B824, symSize: 0x30 }
  - { offset: 0xB384A, size: 0x8, addend: 0x0, symName: '__ZN72_$LT$pyo3..instance..Bound$LT$T$GT$$u20$as$u20$core..ops..drop..Drop$GT$4drop17h9e1a558b2f7fdb1bE', symObjAddr: 0xC974, symBinAddr: 0x3B854, symSize: 0x30 }
  - { offset: 0xB389B, size: 0x8, addend: 0x0, symName: '__ZN72_$LT$pyo3..instance..Bound$LT$T$GT$$u20$as$u20$core..ops..drop..Drop$GT$4drop17ha1d755686c411795E', symObjAddr: 0xC9A4, symBinAddr: 0x3B884, symSize: 0x30 }
  - { offset: 0xB38EC, size: 0x8, addend: 0x0, symName: '__ZN72_$LT$pyo3..instance..Bound$LT$T$GT$$u20$as$u20$core..ops..drop..Drop$GT$4drop17hdeaa1a1af5c29332E', symObjAddr: 0xCA04, symBinAddr: 0x3B8B4, symSize: 0x30 }
  - { offset: 0xB393D, size: 0x8, addend: 0x0, symName: '__ZN72_$LT$pyo3..instance..Bound$LT$T$GT$$u20$as$u20$core..ops..drop..Drop$GT$4drop17hf18c9d40c8d0064dE', symObjAddr: 0xCA64, symBinAddr: 0x3B8E4, symSize: 0x30 }
  - { offset: 0xB398E, size: 0x8, addend: 0x0, symName: '__ZN72_$LT$pyo3..instance..Bound$LT$T$GT$$u20$as$u20$core..ops..drop..Drop$GT$4drop17hff2ca89747c4f14fE', symObjAddr: 0xCA94, symBinAddr: 0x3B914, symSize: 0x30 }
  - { offset: 0xB39E5, size: 0x8, addend: 0x0, symName: '__ZN74_$LT$pyo3..instance..Bound$LT$T$GT$$u20$as$u20$core..ops..deref..Deref$GT$5deref17h00be6a3cfc8f876dE', symObjAddr: 0xCAC4, symBinAddr: 0x3B944, symSize: 0x24 }
  - { offset: 0xB3A1C, size: 0x8, addend: 0x0, symName: '__ZN74_$LT$pyo3..instance..Bound$LT$T$GT$$u20$as$u20$core..ops..deref..Deref$GT$5deref17h2c6ef862b6e3b99fE', symObjAddr: 0xCAE8, symBinAddr: 0x3B968, symSize: 0x24 }
  - { offset: 0xB3A53, size: 0x8, addend: 0x0, symName: '__ZN74_$LT$pyo3..instance..Bound$LT$T$GT$$u20$as$u20$core..ops..deref..Deref$GT$5deref17h82d546dbb6c49a63E', symObjAddr: 0xCB78, symBinAddr: 0x3B98C, symSize: 0x24 }
  - { offset: 0xB3A8A, size: 0x8, addend: 0x0, symName: '__ZN74_$LT$pyo3..instance..Bound$LT$T$GT$$u20$as$u20$core..ops..deref..Deref$GT$5deref17h9dc826382072a20fE', symObjAddr: 0xCBC0, symBinAddr: 0x3B9B0, symSize: 0x24 }
  - { offset: 0xB3AC7, size: 0x8, addend: 0x0, symName: '__ZN77_$LT$pyo3..instance..Borrowed$LT$T$GT$$u20$as$u20$core..ops..deref..Deref$GT$5deref17h02013580c61f860aE', symObjAddr: 0xCC78, symBinAddr: 0x3B9D4, symSize: 0x74 }
  - { offset: 0xB3AFE, size: 0x8, addend: 0x0, symName: '__ZN77_$LT$pyo3..instance..Borrowed$LT$T$GT$$u20$as$u20$core..ops..deref..Deref$GT$5deref17h510a44277327121fE', symObjAddr: 0xCD60, symBinAddr: 0x3BA48, symSize: 0x74 }
  - { offset: 0xB3B35, size: 0x8, addend: 0x0, symName: '__ZN77_$LT$pyo3..instance..Borrowed$LT$T$GT$$u20$as$u20$core..ops..deref..Deref$GT$5deref17h7c0e155a40c2b248E', symObjAddr: 0xCF30, symBinAddr: 0x3BABC, symSize: 0x74 }
  - { offset: 0xB3B6C, size: 0x8, addend: 0x0, symName: '__ZN77_$LT$pyo3..instance..Borrowed$LT$T$GT$$u20$as$u20$core..ops..deref..Deref$GT$5deref17hb390528926314647E', symObjAddr: 0xCFA4, symBinAddr: 0x3BB30, symSize: 0x74 }
  - { offset: 0xB3BA3, size: 0x8, addend: 0x0, symName: '__ZN77_$LT$pyo3..instance..Borrowed$LT$T$GT$$u20$as$u20$core..ops..deref..Deref$GT$5deref17hec1f81f925b9909bE', symObjAddr: 0xD018, symBinAddr: 0x3BBA4, symSize: 0x74 }
  - { offset: 0xB3BE0, size: 0x8, addend: 0x0, symName: '__ZN80_$LT$pyo3..instance..Bound$LT$T$GT$$u20$as$u20$pyo3..conversion..AsPyPointer$GT$6as_ptr17he7756e61a1fd814bE', symObjAddr: 0xD0B0, symBinAddr: 0x3BC3C, symSize: 0x2C }
  - { offset: 0xB3C1D, size: 0x8, addend: 0x0, symName: '__ZN87_$LT$pyo3..instance..Bound$LT$T$GT$$u20$as$u20$pyo3..instance..BoundObject$LT$T$GT$$GT$10into_bound17h20eae60bd318ea1eE', symObjAddr: 0xD264, symBinAddr: 0x3BD00, symSize: 0x14 }
  - { offset: 0xB3C54, size: 0x8, addend: 0x0, symName: '__ZN87_$LT$pyo3..instance..Bound$LT$T$GT$$u20$as$u20$pyo3..instance..BoundObject$LT$T$GT$$GT$11as_borrowed17h027abfd61a527848E', symObjAddr: 0xD278, symBinAddr: 0x3BD14, symSize: 0x24 }
  - { offset: 0xB3C8B, size: 0x8, addend: 0x0, symName: '__ZN87_$LT$pyo3..instance..Bound$LT$T$GT$$u20$as$u20$pyo3..instance..BoundObject$LT$T$GT$$GT$11as_borrowed17h67f942f21a7fd581E', symObjAddr: 0xD29C, symBinAddr: 0x3BD38, symSize: 0x24 }
  - { offset: 0xB3CC2, size: 0x8, addend: 0x0, symName: '__ZN87_$LT$pyo3..instance..Bound$LT$T$GT$$u20$as$u20$pyo3..instance..BoundObject$LT$T$GT$$GT$6unbind17h73058699fec96605E', symObjAddr: 0xD308, symBinAddr: 0x3BD5C, symSize: 0x24 }
  - { offset: 0xB3CF9, size: 0x8, addend: 0x0, symName: '__ZN87_$LT$pyo3..instance..Bound$LT$T$GT$$u20$as$u20$pyo3..instance..BoundObject$LT$T$GT$$GT$8into_any17h01821353c7c86963E', symObjAddr: 0xD32C, symBinAddr: 0x3BD80, symSize: 0x24 }
  - { offset: 0xB3D30, size: 0x8, addend: 0x0, symName: '__ZN87_$LT$pyo3..instance..Bound$LT$T$GT$$u20$as$u20$pyo3..instance..BoundObject$LT$T$GT$$GT$8into_any17h226555a5d22123d0E', symObjAddr: 0xD350, symBinAddr: 0x3BDA4, symSize: 0x24 }
  - { offset: 0xB3D67, size: 0x8, addend: 0x0, symName: '__ZN87_$LT$pyo3..instance..Bound$LT$T$GT$$u20$as$u20$pyo3..instance..BoundObject$LT$T$GT$$GT$8into_any17h4870631838eed973E', symObjAddr: 0xD374, symBinAddr: 0x3BDC8, symSize: 0x24 }
  - { offset: 0xB3D9E, size: 0x8, addend: 0x0, symName: '__ZN87_$LT$pyo3..instance..Bound$LT$T$GT$$u20$as$u20$pyo3..instance..BoundObject$LT$T$GT$$GT$8into_any17hb52bb26663b89412E', symObjAddr: 0xD398, symBinAddr: 0x3BDEC, symSize: 0x24 }
  - { offset: 0xB3DD5, size: 0x8, addend: 0x0, symName: '__ZN87_$LT$pyo3..instance..Bound$LT$T$GT$$u20$as$u20$pyo3..instance..BoundObject$LT$T$GT$$GT$8into_any17hb9ffd3f17495d848E', symObjAddr: 0xD3BC, symBinAddr: 0x3BE10, symSize: 0x24 }
  - { offset: 0xB3E12, size: 0x8, addend: 0x0, symName: '__ZN90_$LT$pyo3..instance..Borrowed$LT$T$GT$$u20$as$u20$pyo3..instance..BoundObject$LT$T$GT$$GT$11as_borrowed17h5075c5beb2066f30E', symObjAddr: 0xD40C, symBinAddr: 0x3BE34, symSize: 0x18 }
  - { offset: 0xB3E49, size: 0x8, addend: 0x0, symName: '__ZN90_$LT$pyo3..instance..Borrowed$LT$T$GT$$u20$as$u20$pyo3..instance..BoundObject$LT$T$GT$$GT$11as_borrowed17h85deb9c22b024d4aE', symObjAddr: 0xD424, symBinAddr: 0x3BE4C, symSize: 0x18 }
  - { offset: 0xB3E80, size: 0x8, addend: 0x0, symName: '__ZN90_$LT$pyo3..instance..Borrowed$LT$T$GT$$u20$as$u20$pyo3..instance..BoundObject$LT$T$GT$$GT$8into_any17h0f088dcd66664b3fE', symObjAddr: 0xD464, symBinAddr: 0x3BE64, symSize: 0x24 }
  - { offset: 0xB3EB7, size: 0x8, addend: 0x0, symName: '__ZN90_$LT$pyo3..instance..Borrowed$LT$T$GT$$u20$as$u20$pyo3..instance..BoundObject$LT$T$GT$$GT$8into_any17h3ada5ed30caf974fE', symObjAddr: 0xD4AC, symBinAddr: 0x3BE88, symSize: 0x24 }
  - { offset: 0xB3EEE, size: 0x8, addend: 0x0, symName: '__ZN90_$LT$pyo3..instance..Borrowed$LT$T$GT$$u20$as$u20$pyo3..instance..BoundObject$LT$T$GT$$GT$8into_any17he03a649cddd07f34E', symObjAddr: 0xD4F4, symBinAddr: 0x3BEAC, symSize: 0x24 }
  - { offset: 0xB3F36, size: 0x8, addend: 0x0, symName: '__ZN196_$LT$$RF$pyo3..instance..Bound$LT$pyo3..types..module..PyModule$GT$$u20$as$u20$pyo3..impl_..pyfunction..WrapPyFunctionArg$LT$pyo3..instance..Bound$LT$pyo3..types..function..PyCFunction$GT$$GT$$GT$15wrap_pyfunction17hb79a1dca3c744c0aE', symObjAddr: 0x6830, symBinAddr: 0x38FA0, symSize: 0x44 }
  - { offset: 0xB4056, size: 0x8, addend: 0x0, symName: '__ZN47_$LT$T$u20$as$u20$pyo3..err..PyErrArguments$GT$9arguments17he7f254fae4df577eE', symObjAddr: 0x6A08, symBinAddr: 0x39098, symSize: 0x3C }
  - { offset: 0xB4236, size: 0x8, addend: 0x0, symName: __ZN4pyo310conversion15IntoPyObjectExt22into_pyobject_or_pyerr17h0beec22b39b14197E, symObjAddr: 0x6F2C, symBinAddr: 0x3913C, symSize: 0x48 }
  - { offset: 0xB42A6, size: 0x8, addend: 0x0, symName: __ZN4pyo310conversion15IntoPyObjectExt22into_pyobject_or_pyerr17h4c5f12521c06b7a6E, symObjAddr: 0x7118, symBinAddr: 0x39184, symSize: 0x48 }
  - { offset: 0xB4316, size: 0x8, addend: 0x0, symName: __ZN4pyo310conversion15IntoPyObjectExt22into_pyobject_or_pyerr17h4e4b6619f3e3dc00E, symObjAddr: 0x7160, symBinAddr: 0x391CC, symSize: 0x48 }
  - { offset: 0xB4386, size: 0x8, addend: 0x0, symName: __ZN4pyo310conversion15IntoPyObjectExt22into_pyobject_or_pyerr17h668932073f586484E, symObjAddr: 0x71A8, symBinAddr: 0x39214, symSize: 0x48 }
  - { offset: 0xB43F6, size: 0x8, addend: 0x0, symName: __ZN4pyo310conversion15IntoPyObjectExt22into_pyobject_or_pyerr17hbd080b4e188b12b5E, symObjAddr: 0x71F0, symBinAddr: 0x3925C, symSize: 0x48 }
  - { offset: 0xB4466, size: 0x8, addend: 0x0, symName: __ZN4pyo310conversion15IntoPyObjectExt22into_pyobject_or_pyerr17hca7828bb44b8a9f5E, symObjAddr: 0x7308, symBinAddr: 0x392A4, symSize: 0x48 }
  - { offset: 0xB44DC, size: 0x8, addend: 0x0, symName: '__ZN78_$LT$pyo3..instance..Py$LT$T$GT$$u20$as$u20$pyo3..conversion..IntoPyObject$GT$13into_pyobject17h259dde9c4fdcf12dE', symObjAddr: 0xD08C, symBinAddr: 0x3BC18, symSize: 0x24 }
  - { offset: 0xB4534, size: 0x8, addend: 0x0, symName: '__ZN81_$LT$pyo3..instance..Bound$LT$T$GT$$u20$as$u20$pyo3..conversion..IntoPyObject$GT$13into_pyobject17h60bee7a3b0c154ecE', symObjAddr: 0xD128, symBinAddr: 0x3BC68, symSize: 0x14 }
  - { offset: 0xB4586, size: 0x8, addend: 0x0, symName: '__ZN81_$LT$pyo3..instance..Bound$LT$T$GT$$u20$as$u20$pyo3..conversion..IntoPyObject$GT$13into_pyobject17h8e02b0320f92b644E', symObjAddr: 0xD13C, symBinAddr: 0x3BC7C, symSize: 0x14 }
  - { offset: 0xB45DE, size: 0x8, addend: 0x0, symName: '__ZN84_$LT$pyo3..instance..Borrowed$LT$T$GT$$u20$as$u20$pyo3..conversion..IntoPyObject$GT$13into_pyobject17h7b412a609f02195fE', symObjAddr: 0xD188, symBinAddr: 0x3BC90, symSize: 0x14 }
  - { offset: 0xB4630, size: 0x8, addend: 0x0, symName: '__ZN84_$LT$pyo3..instance..Borrowed$LT$T$GT$$u20$as$u20$pyo3..conversion..IntoPyObject$GT$13into_pyobject17h89b2873d5e6dffcaE', symObjAddr: 0xD19C, symBinAddr: 0x3BCA4, symSize: 0x14 }
  - { offset: 0xB4688, size: 0x8, addend: 0x0, symName: '__ZN85_$LT$$RF$pyo3..instance..Bound$LT$T$GT$$u20$as$u20$pyo3..conversion..IntoPyObject$GT$13into_pyobject17h1346d267fcd4321bE', symObjAddr: 0xD1B0, symBinAddr: 0x3BCB8, symSize: 0x24 }
  - { offset: 0xB46DA, size: 0x8, addend: 0x0, symName: '__ZN85_$LT$$RF$pyo3..instance..Bound$LT$T$GT$$u20$as$u20$pyo3..conversion..IntoPyObject$GT$13into_pyobject17h7a8117f7e5a04b5bE', symObjAddr: 0xD1F8, symBinAddr: 0x3BCDC, symSize: 0x24 }
  - { offset: 0xB4AD6, size: 0x8, addend: 0x0, symName: '__ZN4pyo35types5bytes77_$LT$impl$u20$pyo3..instance..Borrowed$LT$pyo3..types..bytes..PyBytes$GT$$GT$8as_bytes17hb07dba48bb13c6eaE', symObjAddr: 0x77DC, symBinAddr: 0x392EC, symSize: 0x90 }
  - { offset: 0xB4B2F, size: 0x8, addend: 0x0, symName: '__ZN4pyo35types5tuple77_$LT$impl$u20$pyo3..instance..Borrowed$LT$pyo3..types..tuple..PyTuple$GT$$GT$13iter_borrowed17hf7ca37e986af0855E', symObjAddr: 0x87DC, symBinAddr: 0x3937C, symSize: 0x24 }
  - { offset: 0xB4B5F, size: 0x8, addend: 0x0, symName: '__ZN4pyo35types5tuple77_$LT$impl$u20$pyo3..instance..Borrowed$LT$pyo3..types..tuple..PyTuple$GT$$GT$17get_borrowed_item17h63f380cd602f2e30E', symObjAddr: 0x8800, symBinAddr: 0x393A0, symSize: 0x60 }
  - { offset: 0xB4BBC, size: 0x8, addend: 0x0, symName: '__ZN4pyo35types6string79_$LT$impl$u20$pyo3..instance..Borrowed$LT$pyo3..types..string..PyString$GT$$GT$15to_string_lossy17h4a9bcbf51d82a7d1E', symObjAddr: 0x89FC, symBinAddr: 0x39400, symSize: 0x174 }
  - { offset: 0xB4C38, size: 0x8, addend: 0x0, symName: '__ZN4pyo35types6string79_$LT$impl$u20$pyo3..instance..Borrowed$LT$pyo3..types..string..PyString$GT$$GT$6to_cow17hfa847ab2aabd9707E', symObjAddr: 0x8B70, symBinAddr: 0x39574, symSize: 0x3C }
  - { offset: 0xB4C5B, size: 0x8, addend: 0x0, symName: '__ZN4pyo35types6string79_$LT$impl$u20$pyo3..instance..Borrowed$LT$pyo3..types..string..PyString$GT$$GT$6to_str17h4feb1c6c7d1cac59E', symObjAddr: 0x8BAC, symBinAddr: 0x395B0, symSize: 0xD0 }
  - { offset: 0xB4CFF, size: 0x8, addend: 0x0, symName: '__ZN4pyo38instance11Py$LT$T$GT$10into_bound17h633cc2c2ef04b160E', symObjAddr: 0x9074, symBinAddr: 0x39680, symSize: 0x1C }
  - { offset: 0xB4D46, size: 0x8, addend: 0x0, symName: '__ZN4pyo38instance11Py$LT$T$GT$13from_non_null17h0d11279177dbf7e6E', symObjAddr: 0x90F4, symBinAddr: 0x3969C, symSize: 0x14 }
  - { offset: 0xB4D72, size: 0x8, addend: 0x0, symName: '__ZN4pyo38instance11Py$LT$T$GT$13from_non_null17h11cf730590bf4221E', symObjAddr: 0x9108, symBinAddr: 0x396B0, symSize: 0x14 }
  - { offset: 0xB4D9E, size: 0x8, addend: 0x0, symName: '__ZN4pyo38instance11Py$LT$T$GT$13from_non_null17h226b5358bc2ebcb8E', symObjAddr: 0x911C, symBinAddr: 0x396C4, symSize: 0x14 }
  - { offset: 0xB4DCA, size: 0x8, addend: 0x0, symName: '__ZN4pyo38instance11Py$LT$T$GT$13from_non_null17h6d8674166863ff89E', symObjAddr: 0x9158, symBinAddr: 0x396D8, symSize: 0x14 }
  - { offset: 0xB4DF6, size: 0x8, addend: 0x0, symName: '__ZN4pyo38instance11Py$LT$T$GT$13from_non_null17h760f270841300019E', symObjAddr: 0x9180, symBinAddr: 0x396EC, symSize: 0x14 }
  - { offset: 0xB4E22, size: 0x8, addend: 0x0, symName: '__ZN4pyo38instance11Py$LT$T$GT$13from_non_null17h7d72728c101b4162E', symObjAddr: 0x9194, symBinAddr: 0x39700, symSize: 0x14 }
  - { offset: 0xB4E4E, size: 0x8, addend: 0x0, symName: '__ZN4pyo38instance11Py$LT$T$GT$13from_non_null17hb892067d84344617E', symObjAddr: 0x91BC, symBinAddr: 0x39714, symSize: 0x14 }
  - { offset: 0xB4E7A, size: 0x8, addend: 0x0, symName: '__ZN4pyo38instance11Py$LT$T$GT$13from_non_null17hba2be3cd387eafbbE', symObjAddr: 0x91D0, symBinAddr: 0x39728, symSize: 0x14 }
  - { offset: 0xB4EA6, size: 0x8, addend: 0x0, symName: '__ZN4pyo38instance11Py$LT$T$GT$13from_non_null17hbc0a1e2f3322e5dcE', symObjAddr: 0x91E4, symBinAddr: 0x3973C, symSize: 0x14 }
  - { offset: 0xB4ED2, size: 0x8, addend: 0x0, symName: '__ZN4pyo38instance11Py$LT$T$GT$13from_non_null17hd9667703c1049136E', symObjAddr: 0x9220, symBinAddr: 0x39750, symSize: 0x14 }
  - { offset: 0xB4EFE, size: 0x8, addend: 0x0, symName: '__ZN4pyo38instance11Py$LT$T$GT$13from_non_null17hde071caab5db66d1E', symObjAddr: 0x9234, symBinAddr: 0x39764, symSize: 0x14 }
  - { offset: 0xB4F62, size: 0x8, addend: 0x0, symName: '__ZN4pyo38instance11Py$LT$T$GT$14from_owned_ptr17hd2d2a49dfc765cb0E', symObjAddr: 0x9298, symBinAddr: 0x39778, symSize: 0x50 }
  - { offset: 0xB4FA9, size: 0x8, addend: 0x0, symName: '__ZN4pyo38instance11Py$LT$T$GT$21from_owned_ptr_or_err17h53f99d690ad7f77bE', symObjAddr: 0x92E8, symBinAddr: 0x397C8, symSize: 0x94 }
  - { offset: 0xB500E, size: 0x8, addend: 0x0, symName: '__ZN4pyo38instance11Py$LT$T$GT$21from_owned_ptr_or_err17h7f5a0a8fa2960db1E', symObjAddr: 0x937C, symBinAddr: 0x3985C, symSize: 0x94 }
  - { offset: 0xB5073, size: 0x8, addend: 0x0, symName: '__ZN4pyo38instance11Py$LT$T$GT$21from_owned_ptr_or_err17ha78ce107b076b94dE', symObjAddr: 0x9410, symBinAddr: 0x398F0, symSize: 0x94 }
  - { offset: 0xB50D8, size: 0x8, addend: 0x0, symName: '__ZN4pyo38instance11Py$LT$T$GT$21from_owned_ptr_or_opt17hcd0ce32b268f7331E', symObjAddr: 0x94A4, symBinAddr: 0x39984, symSize: 0x28 }
  - { offset: 0xB5146, size: 0x8, addend: 0x0, symName: '__ZN4pyo38instance11Py$LT$T$GT$4bind17h7b04267bcc03fb17E', symObjAddr: 0x9580, symBinAddr: 0x399C0, symSize: 0x74 }
  - { offset: 0xB518D, size: 0x8, addend: 0x0, symName: '__ZN4pyo38instance11Py$LT$T$GT$4bind17h88a19e8bf615bcb3E', symObjAddr: 0x9668, symBinAddr: 0x39A34, symSize: 0x74 }
  - { offset: 0xB51EE, size: 0x8, addend: 0x0, symName: '__ZN4pyo38instance11Py$LT$T$GT$4bind17ha1888cc4dfc5913fE', symObjAddr: 0x96DC, symBinAddr: 0x39AA8, symSize: 0x74 }
  - { offset: 0xB524F, size: 0x8, addend: 0x0, symName: '__ZN4pyo38instance11Py$LT$T$GT$4bind17hab216635108d1d6aE', symObjAddr: 0x9750, symBinAddr: 0x39B1C, symSize: 0x74 }
  - { offset: 0xB5296, size: 0x8, addend: 0x0, symName: '__ZN4pyo38instance11Py$LT$T$GT$6as_ptr17h0acc3b34ff1dd09eE', symObjAddr: 0x9838, symBinAddr: 0x39B90, symSize: 0x1C }
  - { offset: 0xB52CF, size: 0x8, addend: 0x0, symName: '__ZN4pyo38instance11Py$LT$T$GT$6as_ptr17h2140a71bc6b18b42E', symObjAddr: 0x9870, symBinAddr: 0x39BAC, symSize: 0x1C }
  - { offset: 0xB52FB, size: 0x8, addend: 0x0, symName: '__ZN4pyo38instance11Py$LT$T$GT$6as_ptr17h3efe4cf6ff5312cdE', symObjAddr: 0x98C4, symBinAddr: 0x39BC8, symSize: 0x1C }
  - { offset: 0xB5334, size: 0x8, addend: 0x0, symName: '__ZN4pyo38instance11Py$LT$T$GT$6as_ptr17h4e1a8baf0b7ccf9dE', symObjAddr: 0x98FC, symBinAddr: 0x39BE4, symSize: 0x1C }
  - { offset: 0xB536D, size: 0x8, addend: 0x0, symName: '__ZN4pyo38instance11Py$LT$T$GT$6as_ptr17h51c222c8b6eddecdE', symObjAddr: 0x9934, symBinAddr: 0x39C00, symSize: 0x1C }
  - { offset: 0xB53A6, size: 0x8, addend: 0x0, symName: '__ZN4pyo38instance11Py$LT$T$GT$6as_ptr17h7c6bcd6b9b05a0bfE', symObjAddr: 0x99DC, symBinAddr: 0x39C1C, symSize: 0x1C }
  - { offset: 0xB53DF, size: 0x8, addend: 0x0, symName: '__ZN4pyo38instance11Py$LT$T$GT$6as_ptr17h8e26e5420f38e969E', symObjAddr: 0x99F8, symBinAddr: 0x39C38, symSize: 0x1C }
  - { offset: 0xB5418, size: 0x8, addend: 0x0, symName: '__ZN4pyo38instance11Py$LT$T$GT$6as_ptr17ha96fbdf2d777af49E', symObjAddr: 0x9A4C, symBinAddr: 0x39C54, symSize: 0x1C }
  - { offset: 0xB5444, size: 0x8, addend: 0x0, symName: '__ZN4pyo38instance11Py$LT$T$GT$6as_ptr17hbb0fb5a8097d387bE', symObjAddr: 0x9A84, symBinAddr: 0x39C70, symSize: 0x1C }
  - { offset: 0xB5470, size: 0x8, addend: 0x0, symName: '__ZN4pyo38instance11Py$LT$T$GT$6as_ptr17hcb361baa77e597e5E', symObjAddr: 0x9AA0, symBinAddr: 0x39C8C, symSize: 0x1C }
  - { offset: 0xB549C, size: 0x8, addend: 0x0, symName: '__ZN4pyo38instance11Py$LT$T$GT$6as_ptr17hd6f627d1cff40658E', symObjAddr: 0x9ABC, symBinAddr: 0x39CA8, symSize: 0x1C }
  - { offset: 0xB54C8, size: 0x8, addend: 0x0, symName: '__ZN4pyo38instance11Py$LT$T$GT$6as_ptr17hddc08b3ef5975328E', symObjAddr: 0x9AD8, symBinAddr: 0x39CC4, symSize: 0x1C }
  - { offset: 0xB54F4, size: 0x8, addend: 0x0, symName: '__ZN4pyo38instance11Py$LT$T$GT$8into_any17h0189d4b07a455b54E', symObjAddr: 0x9B94, symBinAddr: 0x39CE0, symSize: 0x3C }
  - { offset: 0xB5520, size: 0x8, addend: 0x0, symName: '__ZN4pyo38instance11Py$LT$T$GT$8into_any17h45b8c7f8f8282f48E', symObjAddr: 0x9BD0, symBinAddr: 0x39D1C, symSize: 0x3C }
  - { offset: 0xB554C, size: 0x8, addend: 0x0, symName: '__ZN4pyo38instance11Py$LT$T$GT$8into_any17h4e570826172dc27bE', symObjAddr: 0x9C0C, symBinAddr: 0x39D58, symSize: 0x3C }
  - { offset: 0xB5578, size: 0x8, addend: 0x0, symName: '__ZN4pyo38instance11Py$LT$T$GT$8into_any17hb3033c94d621897aE', symObjAddr: 0x9C84, symBinAddr: 0x39D94, symSize: 0x3C }
  - { offset: 0xB55A4, size: 0x8, addend: 0x0, symName: '__ZN4pyo38instance11Py$LT$T$GT$8into_any17hb65e10591e325230E', symObjAddr: 0x9CC0, symBinAddr: 0x39DD0, symSize: 0x3C }
  - { offset: 0xB55D0, size: 0x8, addend: 0x0, symName: '__ZN4pyo38instance11Py$LT$T$GT$8into_any17hb7eac84f2a2ba657E', symObjAddr: 0x9CFC, symBinAddr: 0x39E0C, symSize: 0x3C }
  - { offset: 0xB55FC, size: 0x8, addend: 0x0, symName: '__ZN4pyo38instance11Py$LT$T$GT$8into_any17hd48046672af118ecE', symObjAddr: 0x9D74, symBinAddr: 0x39E48, symSize: 0x3C }
  - { offset: 0xB5628, size: 0x8, addend: 0x0, symName: '__ZN4pyo38instance11Py$LT$T$GT$8into_any17hdb1c3a118f1439bcE', symObjAddr: 0x9DB0, symBinAddr: 0x39E84, symSize: 0x3C }
  - { offset: 0xB5654, size: 0x8, addend: 0x0, symName: '__ZN4pyo38instance11Py$LT$T$GT$8into_any17hfd4e9833a2e4d7e8E', symObjAddr: 0x9DEC, symBinAddr: 0x39EC0, symSize: 0x3C }
  - { offset: 0xB5680, size: 0x8, addend: 0x0, symName: '__ZN4pyo38instance11Py$LT$T$GT$8into_ptr17h9e6c983a8abe2ae9E', symObjAddr: 0x9E58, symBinAddr: 0x39EFC, symSize: 0x30 }
  - { offset: 0xB56AC, size: 0x8, addend: 0x0, symName: '__ZN4pyo38instance11Py$LT$T$GT$9clone_ref17h0bc22c54c00e32e7E', symObjAddr: 0x9E88, symBinAddr: 0x39F2C, symSize: 0x40 }
  - { offset: 0xB5711, size: 0x8, addend: 0x0, symName: '__ZN4pyo38instance11Py$LT$T$GT$9clone_ref17h8508dd5f3cb94ac0E', symObjAddr: 0x9F48, symBinAddr: 0x39F6C, symSize: 0x40 }
  - { offset: 0xB5776, size: 0x8, addend: 0x0, symName: '__ZN4pyo38instance11Py$LT$T$GT$9clone_ref17h9405aa51bd75e69aE', symObjAddr: 0x9F88, symBinAddr: 0x39FAC, symSize: 0x40 }
  - { offset: 0xB57DB, size: 0x8, addend: 0x0, symName: '__ZN4pyo38instance11Py$LT$T$GT$9clone_ref17hab1a5afb48523081E', symObjAddr: 0xA008, symBinAddr: 0x39FEC, symSize: 0x40 }
  - { offset: 0xB5840, size: 0x8, addend: 0x0, symName: '__ZN4pyo38instance11Py$LT$T$GT$9clone_ref17hf4835df751caffd4E', symObjAddr: 0xA1C8, symBinAddr: 0x3A02C, symSize: 0x40 }
  - { offset: 0xB58A5, size: 0x8, addend: 0x0, symName: '__ZN4pyo38instance14Bound$LT$T$GT$11as_borrowed17h37513d1e388e682eE', symObjAddr: 0xA500, symBinAddr: 0x3A364, symSize: 0x48 }
  - { offset: 0xB58DE, size: 0x8, addend: 0x0, symName: '__ZN4pyo38instance14Bound$LT$T$GT$11as_borrowed17h3b23899b4ff4f3f2E', symObjAddr: 0xA590, symBinAddr: 0x3A3AC, symSize: 0x48 }
  - { offset: 0xB590A, size: 0x8, addend: 0x0, symName: '__ZN4pyo38instance14Bound$LT$T$GT$11as_borrowed17h610e9808e6c766c4E', symObjAddr: 0xA5D8, symBinAddr: 0x3A3F4, symSize: 0x48 }
  - { offset: 0xB5943, size: 0x8, addend: 0x0, symName: '__ZN4pyo38instance14Bound$LT$T$GT$11as_borrowed17h70917cae60288a3aE', symObjAddr: 0xA668, symBinAddr: 0x3A43C, symSize: 0x48 }
  - { offset: 0xB5989, size: 0x8, addend: 0x0, symName: '__ZN4pyo38instance14Bound$LT$T$GT$2py17h14333c8a50e31932E', symObjAddr: 0xA7A8, symBinAddr: 0x3A484, symSize: 0x10 }
  - { offset: 0xB59B5, size: 0x8, addend: 0x0, symName: '__ZN4pyo38instance14Bound$LT$T$GT$2py17h2ea1640047f6a074E', symObjAddr: 0xA7C8, symBinAddr: 0x3A494, symSize: 0x10 }
  - { offset: 0xB59E1, size: 0x8, addend: 0x0, symName: '__ZN4pyo38instance14Bound$LT$T$GT$2py17h5dcba8e3f2eaafd3E', symObjAddr: 0xA808, symBinAddr: 0x3A4A4, symSize: 0x10 }
  - { offset: 0xB5A0D, size: 0x8, addend: 0x0, symName: '__ZN4pyo38instance14Bound$LT$T$GT$2py17h93a9836d0222a0efE', symObjAddr: 0xA838, symBinAddr: 0x3A4B4, symSize: 0x10 }
  - { offset: 0xB5A39, size: 0x8, addend: 0x0, symName: '__ZN4pyo38instance14Bound$LT$T$GT$2py17haf74e10425f648e0E', symObjAddr: 0xA868, symBinAddr: 0x3A4C4, symSize: 0x10 }
  - { offset: 0xB5A65, size: 0x8, addend: 0x0, symName: '__ZN4pyo38instance14Bound$LT$T$GT$2py17hbac2a0ea11578493E', symObjAddr: 0xA878, symBinAddr: 0x3A4D4, symSize: 0x10 }
  - { offset: 0xB5A91, size: 0x8, addend: 0x0, symName: '__ZN4pyo38instance14Bound$LT$T$GT$2py17hbbc7605ce98cae69E', symObjAddr: 0xA888, symBinAddr: 0x3A4E4, symSize: 0x10 }
  - { offset: 0xB5ABD, size: 0x8, addend: 0x0, symName: '__ZN4pyo38instance14Bound$LT$T$GT$2py17hcff3506d05a9be32E', symObjAddr: 0xA898, symBinAddr: 0x3A4F4, symSize: 0x10 }
  - { offset: 0xB5AE9, size: 0x8, addend: 0x0, symName: '__ZN4pyo38instance14Bound$LT$T$GT$6as_any17h15420ef074be3f05E', symObjAddr: 0xA8B8, symBinAddr: 0x3A504, symSize: 0x74 }
  - { offset: 0xB5B15, size: 0x8, addend: 0x0, symName: '__ZN4pyo38instance14Bound$LT$T$GT$6as_any17h1589b8bc84064159E', symObjAddr: 0xA92C, symBinAddr: 0x3A578, symSize: 0x74 }
  - { offset: 0xB5B4E, size: 0x8, addend: 0x0, symName: '__ZN4pyo38instance14Bound$LT$T$GT$6as_any17h263ed5883848948dE', symObjAddr: 0xAA14, symBinAddr: 0x3A5EC, symSize: 0x74 }
  - { offset: 0xB5B7A, size: 0x8, addend: 0x0, symName: '__ZN4pyo38instance14Bound$LT$T$GT$6as_any17h4207c245c9efc38aE', symObjAddr: 0xAAFC, symBinAddr: 0x3A660, symSize: 0x74 }
  - { offset: 0xB5BA6, size: 0x8, addend: 0x0, symName: '__ZN4pyo38instance14Bound$LT$T$GT$6as_any17h61dbca09c76aad88E', symObjAddr: 0xABE4, symBinAddr: 0x3A6D4, symSize: 0x74 }
  - { offset: 0xB5BD2, size: 0x8, addend: 0x0, symName: '__ZN4pyo38instance14Bound$LT$T$GT$6as_any17h7fb87d3e84a4981bE', symObjAddr: 0xAD40, symBinAddr: 0x3A748, symSize: 0x74 }
  - { offset: 0xB5BFE, size: 0x8, addend: 0x0, symName: '__ZN4pyo38instance14Bound$LT$T$GT$6as_any17hdf12ec3bacec6ca7E', symObjAddr: 0xAE9C, symBinAddr: 0x3A7BC, symSize: 0x74 }
  - { offset: 0xB5C2A, size: 0x8, addend: 0x0, symName: '__ZN4pyo38instance14Bound$LT$T$GT$6as_ptr17h02a79185ee7e89c9E', symObjAddr: 0xAF10, symBinAddr: 0x3A830, symSize: 0x2C }
  - { offset: 0xB5C56, size: 0x8, addend: 0x0, symName: '__ZN4pyo38instance14Bound$LT$T$GT$6as_ptr17h04312c2162f12342E', symObjAddr: 0xAF3C, symBinAddr: 0x3A85C, symSize: 0x2C }
  - { offset: 0xB5C82, size: 0x8, addend: 0x0, symName: '__ZN4pyo38instance14Bound$LT$T$GT$6as_ptr17h4e7b3f562a47c5e6E', symObjAddr: 0xB018, symBinAddr: 0x3A888, symSize: 0x2C }
  - { offset: 0xB5CAE, size: 0x8, addend: 0x0, symName: '__ZN4pyo38instance14Bound$LT$T$GT$6as_ptr17h50f5e3e4055047b1E', symObjAddr: 0xB044, symBinAddr: 0x3A8B4, symSize: 0x2C }
  - { offset: 0xB5CDA, size: 0x8, addend: 0x0, symName: '__ZN4pyo38instance14Bound$LT$T$GT$6as_ptr17h65fbc0b04682db4bE', symObjAddr: 0xB0F4, symBinAddr: 0x3A8E0, symSize: 0x2C }
  - { offset: 0xB5D06, size: 0x8, addend: 0x0, symName: '__ZN4pyo38instance14Bound$LT$T$GT$6as_ptr17h7e44eaf6ef4c826bE', symObjAddr: 0xB14C, symBinAddr: 0x3A90C, symSize: 0x2C }
  - { offset: 0xB5D32, size: 0x8, addend: 0x0, symName: '__ZN4pyo38instance14Bound$LT$T$GT$6as_ptr17h85234fc2d9a1c0cdE', symObjAddr: 0xB178, symBinAddr: 0x3A938, symSize: 0x2C }
  - { offset: 0xB5D6B, size: 0x8, addend: 0x0, symName: '__ZN4pyo38instance14Bound$LT$T$GT$6as_ptr17hb2144192a28abb55E', symObjAddr: 0xB1D0, symBinAddr: 0x3A964, symSize: 0x2C }
  - { offset: 0xB5D97, size: 0x8, addend: 0x0, symName: '__ZN4pyo38instance14Bound$LT$T$GT$6as_ptr17hb223e7ec99fa829bE', symObjAddr: 0xB1FC, symBinAddr: 0x3A990, symSize: 0x2C }
  - { offset: 0xB5DD0, size: 0x8, addend: 0x0, symName: '__ZN4pyo38instance14Bound$LT$T$GT$6as_ptr17hbfcf44595b019689E', symObjAddr: 0xB2D8, symBinAddr: 0x3A9BC, symSize: 0x2C }
  - { offset: 0xB5DFC, size: 0x8, addend: 0x0, symName: '__ZN4pyo38instance14Bound$LT$T$GT$6as_ptr17hbff13610f474460eE', symObjAddr: 0xB304, symBinAddr: 0x3A9E8, symSize: 0x2C }
  - { offset: 0xB5E28, size: 0x8, addend: 0x0, symName: '__ZN4pyo38instance14Bound$LT$T$GT$6unbind17h0a766ae6421dcd79E', symObjAddr: 0xB388, symBinAddr: 0x3AA14, symSize: 0x48 }
  - { offset: 0xB5E72, size: 0x8, addend: 0x0, symName: '__ZN4pyo38instance14Bound$LT$T$GT$6unbind17h1b35fd0fc3cc7604E', symObjAddr: 0xB3D0, symBinAddr: 0x3AA5C, symSize: 0x48 }
  - { offset: 0xB5EBC, size: 0x8, addend: 0x0, symName: '__ZN4pyo38instance14Bound$LT$T$GT$6unbind17h339bbb74c54e9148E', symObjAddr: 0xB418, symBinAddr: 0x3AAA4, symSize: 0x48 }
  - { offset: 0xB5F06, size: 0x8, addend: 0x0, symName: '__ZN4pyo38instance14Bound$LT$T$GT$6unbind17h4068fdee0ed5eb12E', symObjAddr: 0xB460, symBinAddr: 0x3AAEC, symSize: 0x48 }
  - { offset: 0xB5F50, size: 0x8, addend: 0x0, symName: '__ZN4pyo38instance14Bound$LT$T$GT$6unbind17h4dd2a5a85bdcbaf7E', symObjAddr: 0xB4A8, symBinAddr: 0x3AB34, symSize: 0x48 }
  - { offset: 0xB5F9A, size: 0x8, addend: 0x0, symName: '__ZN4pyo38instance14Bound$LT$T$GT$6unbind17h57dc49c8757f5d70E', symObjAddr: 0xB4F0, symBinAddr: 0x3AB7C, symSize: 0x48 }
  - { offset: 0xB5FE4, size: 0x8, addend: 0x0, symName: '__ZN4pyo38instance14Bound$LT$T$GT$6unbind17h6540d71ab754acb7E', symObjAddr: 0xB538, symBinAddr: 0x3ABC4, symSize: 0x48 }
  - { offset: 0xB602E, size: 0x8, addend: 0x0, symName: '__ZN4pyo38instance14Bound$LT$T$GT$6unbind17h6e5a5d0acbe78791E', symObjAddr: 0xB5C8, symBinAddr: 0x3AC0C, symSize: 0x48 }
  - { offset: 0xB6078, size: 0x8, addend: 0x0, symName: '__ZN4pyo38instance14Bound$LT$T$GT$6unbind17hc0cb8a5eb9d35747E', symObjAddr: 0xB610, symBinAddr: 0x3AC54, symSize: 0x48 }
  - { offset: 0xB60C2, size: 0x8, addend: 0x0, symName: '__ZN4pyo38instance14Bound$LT$T$GT$6unbind17hdc31b83a1fffcceeE', symObjAddr: 0xB6A0, symBinAddr: 0x3AC9C, symSize: 0x48 }
  - { offset: 0xB610C, size: 0x8, addend: 0x0, symName: '__ZN4pyo38instance14Bound$LT$T$GT$8into_any17h0f65d7d26f957830E', symObjAddr: 0xB6E8, symBinAddr: 0x3ACE4, symSize: 0x30 }
  - { offset: 0xB6138, size: 0x8, addend: 0x0, symName: '__ZN4pyo38instance14Bound$LT$T$GT$8into_any17h170d73b5d31abe68E', symObjAddr: 0xB718, symBinAddr: 0x3AD14, symSize: 0x30 }
  - { offset: 0xB6164, size: 0x8, addend: 0x0, symName: '__ZN4pyo38instance14Bound$LT$T$GT$8into_any17h49afb694ff6fc2f9E', symObjAddr: 0xB748, symBinAddr: 0x3AD44, symSize: 0x30 }
  - { offset: 0xB6190, size: 0x8, addend: 0x0, symName: '__ZN4pyo38instance14Bound$LT$T$GT$8into_any17h61b23156b2e0bc63E', symObjAddr: 0xB778, symBinAddr: 0x3AD74, symSize: 0x30 }
  - { offset: 0xB61BC, size: 0x8, addend: 0x0, symName: '__ZN4pyo38instance14Bound$LT$T$GT$8into_any17h6a92b719212a3253E', symObjAddr: 0xB7A8, symBinAddr: 0x3ADA4, symSize: 0x30 }
  - { offset: 0xB61E8, size: 0x8, addend: 0x0, symName: '__ZN4pyo38instance14Bound$LT$T$GT$8into_any17hb9c136872ae557caE', symObjAddr: 0xB7D8, symBinAddr: 0x3ADD4, symSize: 0x30 }
  - { offset: 0xB6214, size: 0x8, addend: 0x0, symName: '__ZN4pyo38instance14Bound$LT$T$GT$8into_any17hb9c275961863747bE', symObjAddr: 0xB808, symBinAddr: 0x3AE04, symSize: 0x30 }
  - { offset: 0xB6240, size: 0x8, addend: 0x0, symName: '__ZN4pyo38instance14Bound$LT$T$GT$8into_any17hda6543328f7982d7E', symObjAddr: 0xB898, symBinAddr: 0x3AE34, symSize: 0x30 }
  - { offset: 0xB626C, size: 0x8, addend: 0x0, symName: '__ZN4pyo38instance14Bound$LT$T$GT$8into_any17hfe98b38cc5e3068fE', symObjAddr: 0xB8C8, symBinAddr: 0x3AE64, symSize: 0x30 }
  - { offset: 0xB6298, size: 0x8, addend: 0x0, symName: '__ZN4pyo38instance14Bound$LT$T$GT$8into_ptr17hfea322ef3709901aE', symObjAddr: 0xB8F8, symBinAddr: 0x3AE94, symSize: 0x40 }
  - { offset: 0xB62C4, size: 0x8, addend: 0x0, symName: '__ZN4pyo38instance17Borrowed$LT$T$GT$6as_ptr17h73a8c9019707e973E', symObjAddr: 0xB970, symBinAddr: 0x3AED4, symSize: 0x1C }
  - { offset: 0xB62F0, size: 0x8, addend: 0x0, symName: '__ZN4pyo38instance17Borrowed$LT$T$GT$6as_ptr17ha6cb4510aa3b09d3E', symObjAddr: 0xB98C, symBinAddr: 0x3AEF0, symSize: 0x1C }
  - { offset: 0xB631C, size: 0x8, addend: 0x0, symName: '__ZN4pyo38instance17Borrowed$LT$T$GT$6as_ptr17hda3fabf98a3ed76eE', symObjAddr: 0xB9A8, symBinAddr: 0x3AF0C, symSize: 0x1C }
  - { offset: 0xB6348, size: 0x8, addend: 0x0, symName: '__ZN4pyo38instance17Borrowed$LT$T$GT$6as_ptr17hdc9f9882c41be47dE', symObjAddr: 0xB9C4, symBinAddr: 0x3AF28, symSize: 0x1C }
  - { offset: 0xB6374, size: 0x8, addend: 0x0, symName: '__ZN4pyo38instance17Borrowed$LT$T$GT$6to_any17h483a33dc2470f80aE', symObjAddr: 0xB9E0, symBinAddr: 0x3AF44, symSize: 0x14 }
  - { offset: 0xB63A0, size: 0x8, addend: 0x0, symName: '__ZN4pyo38instance17Borrowed$LT$T$GT$6to_any17hc4b4447b444aedf6E', symObjAddr: 0xBA08, symBinAddr: 0x3AF58, symSize: 0x14 }
  - { offset: 0xB63CC, size: 0x8, addend: 0x0, symName: '__ZN4pyo38instance17Borrowed$LT$T$GT$6to_any17hfaadce807fcd0dc6E', symObjAddr: 0xBA30, symBinAddr: 0x3AF6C, symSize: 0x14 }
  - { offset: 0xB63F8, size: 0x8, addend: 0x0, symName: '__ZN4pyo38instance17Borrowed$LT$T$GT$8to_owned17hae365fc35a6266b1E', symObjAddr: 0xBA44, symBinAddr: 0x3AF80, symSize: 0x2C }
  - { offset: 0xB6424, size: 0x8, addend: 0x0, symName: '__ZN4pyo38instance17Borrowed$LT$T$GT$8to_owned17he069e2f7c0202208E', symObjAddr: 0xBA70, symBinAddr: 0x3AFAC, symSize: 0x2C }
  - { offset: 0xB6450, size: 0x8, addend: 0x0, symName: '__ZN4pyo38instance17Borrowed$LT$T$GT$8to_owned17hf8a4c3328b24439aE', symObjAddr: 0xBA9C, symBinAddr: 0x3AFD8, symSize: 0x2C }
  - { offset: 0xB6489, size: 0x8, addend: 0x0, symName: '__ZN4pyo38instance36Bound$LT$pyo3..types..any..PyAny$GT$14from_owned_ptr17hf62262f298e265acE', symObjAddr: 0xBB3C, symBinAddr: 0x3B004, symSize: 0x2C }
  - { offset: 0xB64D1, size: 0x8, addend: 0x0, symName: '__ZN4pyo38instance36Bound$LT$pyo3..types..any..PyAny$GT$21from_owned_ptr_or_err17h45572f04f150b671E', symObjAddr: 0xBBDC, symBinAddr: 0x3B030, symSize: 0x40 }
  - { offset: 0xB650C, size: 0x8, addend: 0x0, symName: '__ZN4pyo38instance36Bound$LT$pyo3..types..any..PyAny$GT$21from_owned_ptr_or_opt17h131771f4687eaf73E', symObjAddr: 0xBC44, symBinAddr: 0x3B098, symSize: 0x2C }
  - { offset: 0xB6547, size: 0x8, addend: 0x0, symName: '__ZN4pyo38instance39Borrowed$LT$pyo3..types..any..PyAny$GT$15from_ptr_or_err17hc95ac7111dc5fb65E', symObjAddr: 0xBCC4, symBinAddr: 0x3B0EC, symSize: 0x38 }
  - { offset: 0xB6585, size: 0x8, addend: 0x0, symName: '__ZN4pyo38instance39Borrowed$LT$pyo3..types..any..PyAny$GT$18downcast_unchecked17h1efefaca5045e6e8E', symObjAddr: 0xBD74, symBinAddr: 0x3B19C, symSize: 0x14 }
  - { offset: 0xB65B1, size: 0x8, addend: 0x0, symName: '__ZN4pyo38instance39Borrowed$LT$pyo3..types..any..PyAny$GT$18downcast_unchecked17h6f3ad762219151afE', symObjAddr: 0xBD9C, symBinAddr: 0x3B1B0, symSize: 0x14 }
  - { offset: 0xB65DD, size: 0x8, addend: 0x0, symName: '__ZN4pyo38instance39Borrowed$LT$pyo3..types..any..PyAny$GT$18downcast_unchecked17hb0bf6b5acfe2d812E', symObjAddr: 0xBDB0, symBinAddr: 0x3B1C4, symSize: 0x14 }
  - { offset: 0xB6609, size: 0x8, addend: 0x0, symName: '__ZN4pyo38instance39Borrowed$LT$pyo3..types..any..PyAny$GT$18downcast_unchecked17hea851d3c03dd294fE', symObjAddr: 0xBDC4, symBinAddr: 0x3B1D8, symSize: 0x14 }
  - { offset: 0xB6635, size: 0x8, addend: 0x0, symName: '__ZN4pyo38instance39Borrowed$LT$pyo3..types..any..PyAny$GT$18from_ptr_unchecked17h1736d7dc5986279aE', symObjAddr: 0xBDD8, symBinAddr: 0x3B1EC, symSize: 0x2C }
  - { offset: 0xB6673, size: 0x8, addend: 0x0, symName: '__ZN4pyo38instance39Borrowed$LT$pyo3..types..any..PyAny$GT$8downcast17h932b2a8c145f02ffE', symObjAddr: 0xBE8C, symBinAddr: 0x3B218, symSize: 0x88 }
  - { offset: 0xB669F, size: 0x8, addend: 0x0, symName: '__ZN4pyo38instance39Borrowed$LT$pyo3..types..any..PyAny$GT$8downcast17hb6d9d27c028d2a1fE', symObjAddr: 0xBF14, symBinAddr: 0x3B2A0, symSize: 0x88 }
  - { offset: 0xB66CB, size: 0x8, addend: 0x0, symName: '__ZN4pyo38instance39Borrowed$LT$pyo3..types..any..PyAny$GT$8from_ptr17h260f0b3ab8b6bcebE', symObjAddr: 0xBF9C, symBinAddr: 0x3B328, symSize: 0x34 }
  - { offset: 0xB7009, size: 0x8, addend: 0x0, symName: '__ZN153_$LT$core..result..Result$LT$T$C$F$GT$$u20$as$u20$core..ops..try_trait..FromResidual$LT$core..result..Result$LT$core..convert..Infallible$C$E$GT$$GT$$GT$13from_residual17h07f7971598959f50E', symObjAddr: 0x408, symBinAddr: 0x3BF50, symSize: 0x6C }
  - { offset: 0xB708F, size: 0x8, addend: 0x0, symName: '__ZN153_$LT$core..result..Result$LT$T$C$F$GT$$u20$as$u20$core..ops..try_trait..FromResidual$LT$core..result..Result$LT$core..convert..Infallible$C$E$GT$$GT$$GT$13from_residual17h0b1c689c3072a884E', symObjAddr: 0x474, symBinAddr: 0x3BFBC, symSize: 0x6C }
  - { offset: 0xB7115, size: 0x8, addend: 0x0, symName: '__ZN153_$LT$core..result..Result$LT$T$C$F$GT$$u20$as$u20$core..ops..try_trait..FromResidual$LT$core..result..Result$LT$core..convert..Infallible$C$E$GT$$GT$$GT$13from_residual17h29fabd30a4815569E', symObjAddr: 0x680, symBinAddr: 0x3C028, symSize: 0x64 }
  - { offset: 0xB717D, size: 0x8, addend: 0x0, symName: '__ZN153_$LT$core..result..Result$LT$T$C$F$GT$$u20$as$u20$core..ops..try_trait..FromResidual$LT$core..result..Result$LT$core..convert..Infallible$C$E$GT$$GT$$GT$13from_residual17h3f1083784441883aE', symObjAddr: 0x9B0, symBinAddr: 0x3C08C, symSize: 0x64 }
  - { offset: 0xB71E5, size: 0x8, addend: 0x0, symName: '__ZN153_$LT$core..result..Result$LT$T$C$F$GT$$u20$as$u20$core..ops..try_trait..FromResidual$LT$core..result..Result$LT$core..convert..Infallible$C$E$GT$$GT$$GT$13from_residual17h4b26aa3cce24fcbcE', symObjAddr: 0xAE4, symBinAddr: 0x3C0F0, symSize: 0x6C }
  - { offset: 0xB726B, size: 0x8, addend: 0x0, symName: '__ZN153_$LT$core..result..Result$LT$T$C$F$GT$$u20$as$u20$core..ops..try_trait..FromResidual$LT$core..result..Result$LT$core..convert..Infallible$C$E$GT$$GT$$GT$13from_residual17h4d1d1f160f03c68eE', symObjAddr: 0xB50, symBinAddr: 0x3C15C, symSize: 0x6C }
  - { offset: 0xB72F1, size: 0x8, addend: 0x0, symName: '__ZN153_$LT$core..result..Result$LT$T$C$F$GT$$u20$as$u20$core..ops..try_trait..FromResidual$LT$core..result..Result$LT$core..convert..Infallible$C$E$GT$$GT$$GT$13from_residual17h5d1d99c2485029beE', symObjAddr: 0xD6C, symBinAddr: 0x3C1C8, symSize: 0x6C }
  - { offset: 0xB7377, size: 0x8, addend: 0x0, symName: '__ZN153_$LT$core..result..Result$LT$T$C$F$GT$$u20$as$u20$core..ops..try_trait..FromResidual$LT$core..result..Result$LT$core..convert..Infallible$C$E$GT$$GT$$GT$13from_residual17h62affe1bcdae76cbE', symObjAddr: 0xE44, symBinAddr: 0x3C234, symSize: 0x6C }
  - { offset: 0xB73FD, size: 0x8, addend: 0x0, symName: '__ZN153_$LT$core..result..Result$LT$T$C$F$GT$$u20$as$u20$core..ops..try_trait..FromResidual$LT$core..result..Result$LT$core..convert..Infallible$C$E$GT$$GT$$GT$13from_residual17h7b85534a9a06180bE', symObjAddr: 0x127C, symBinAddr: 0x3C2A0, symSize: 0x64 }
  - { offset: 0xB7465, size: 0x8, addend: 0x0, symName: '__ZN153_$LT$core..result..Result$LT$T$C$F$GT$$u20$as$u20$core..ops..try_trait..FromResidual$LT$core..result..Result$LT$core..convert..Infallible$C$E$GT$$GT$$GT$13from_residual17h995c7f8da4187d39E', symObjAddr: 0x1640, symBinAddr: 0x3C304, symSize: 0x6C }
  - { offset: 0xB74EB, size: 0x8, addend: 0x0, symName: '__ZN153_$LT$core..result..Result$LT$T$C$F$GT$$u20$as$u20$core..ops..try_trait..FromResidual$LT$core..result..Result$LT$core..convert..Infallible$C$E$GT$$GT$$GT$13from_residual17hb26f22f8ac72b96fE', symObjAddr: 0x1784, symBinAddr: 0x3C370, symSize: 0x14 }
  - { offset: 0xB7534, size: 0x8, addend: 0x0, symName: '__ZN153_$LT$core..result..Result$LT$T$C$F$GT$$u20$as$u20$core..ops..try_trait..FromResidual$LT$core..result..Result$LT$core..convert..Infallible$C$E$GT$$GT$$GT$13from_residual17hcbd9b56a318eea35E', symObjAddr: 0x1BC0, symBinAddr: 0x3C384, symSize: 0x6C }
  - { offset: 0xB75BA, size: 0x8, addend: 0x0, symName: '__ZN153_$LT$core..result..Result$LT$T$C$F$GT$$u20$as$u20$core..ops..try_trait..FromResidual$LT$core..result..Result$LT$core..convert..Infallible$C$E$GT$$GT$$GT$13from_residual17hd0f224aea9a691daE', symObjAddr: 0x1D04, symBinAddr: 0x3C3F0, symSize: 0x6C }
  - { offset: 0xB7640, size: 0x8, addend: 0x0, symName: '__ZN153_$LT$core..result..Result$LT$T$C$F$GT$$u20$as$u20$core..ops..try_trait..FromResidual$LT$core..result..Result$LT$core..convert..Infallible$C$E$GT$$GT$$GT$13from_residual17he178874ac9ff1706E', symObjAddr: 0x2054, symBinAddr: 0x3C45C, symSize: 0x6C }
  - { offset: 0xB97B3, size: 0x8, addend: 0x0, symName: '__ZN79_$LT$core..result..Result$LT$T$C$E$GT$$u20$as$u20$core..ops..try_trait..Try$GT$6branch17h02ae4d552d429f18E', symObjAddr: 0x55E4, symBinAddr: 0x3CF10, symSize: 0xA0 }
  - { offset: 0xB9830, size: 0x8, addend: 0x0, symName: '__ZN79_$LT$core..result..Result$LT$T$C$E$GT$$u20$as$u20$core..ops..try_trait..Try$GT$6branch17h1bfcc7200fac0d62E', symObjAddr: 0x5B5C, symBinAddr: 0x3CFB0, symSize: 0xA0 }
  - { offset: 0xB98AD, size: 0x8, addend: 0x0, symName: '__ZN79_$LT$core..result..Result$LT$T$C$E$GT$$u20$as$u20$core..ops..try_trait..Try$GT$6branch17h220103c0d2561a2bE', symObjAddr: 0x5BFC, symBinAddr: 0x3D050, symSize: 0xA0 }
  - { offset: 0xB992A, size: 0x8, addend: 0x0, symName: '__ZN79_$LT$core..result..Result$LT$T$C$E$GT$$u20$as$u20$core..ops..try_trait..Try$GT$6branch17h2288ac9ac329ca9bE', symObjAddr: 0x5C9C, symBinAddr: 0x3D0F0, symSize: 0x28 }
  - { offset: 0xB9988, size: 0x8, addend: 0x0, symName: '__ZN79_$LT$core..result..Result$LT$T$C$E$GT$$u20$as$u20$core..ops..try_trait..Try$GT$6branch17h29a57f799ba3dd41E', symObjAddr: 0x5CC4, symBinAddr: 0x3D118, symSize: 0xA0 }
  - { offset: 0xB9A05, size: 0x8, addend: 0x0, symName: '__ZN79_$LT$core..result..Result$LT$T$C$E$GT$$u20$as$u20$core..ops..try_trait..Try$GT$6branch17h2cf50b442fb6e16fE', symObjAddr: 0x5D64, symBinAddr: 0x3D1B8, symSize: 0xA0 }
  - { offset: 0xB9A82, size: 0x8, addend: 0x0, symName: '__ZN79_$LT$core..result..Result$LT$T$C$E$GT$$u20$as$u20$core..ops..try_trait..Try$GT$6branch17h313861a1dcbefebdE', symObjAddr: 0x5E04, symBinAddr: 0x3D258, symSize: 0xA0 }
  - { offset: 0xB9AFF, size: 0x8, addend: 0x0, symName: '__ZN79_$LT$core..result..Result$LT$T$C$E$GT$$u20$as$u20$core..ops..try_trait..Try$GT$6branch17h38b09323fea6a0d4E', symObjAddr: 0x5F54, symBinAddr: 0x3D2F8, symSize: 0x90 }
  - { offset: 0xB9B7C, size: 0x8, addend: 0x0, symName: '__ZN79_$LT$core..result..Result$LT$T$C$E$GT$$u20$as$u20$core..ops..try_trait..Try$GT$6branch17h3a272327c08d59c4E', symObjAddr: 0x6084, symBinAddr: 0x3D388, symSize: 0x88 }
  - { offset: 0xB9BFA, size: 0x8, addend: 0x0, symName: '__ZN79_$LT$core..result..Result$LT$T$C$E$GT$$u20$as$u20$core..ops..try_trait..Try$GT$6branch17h3e31ba27cb6df008E', symObjAddr: 0x610C, symBinAddr: 0x3D410, symSize: 0xA0 }
  - { offset: 0xB9C77, size: 0x8, addend: 0x0, symName: '__ZN79_$LT$core..result..Result$LT$T$C$E$GT$$u20$as$u20$core..ops..try_trait..Try$GT$6branch17h46ef5083e399eab2E', symObjAddr: 0x624C, symBinAddr: 0x3D4B0, symSize: 0xAC }
  - { offset: 0xB9CF4, size: 0x8, addend: 0x0, symName: '__ZN79_$LT$core..result..Result$LT$T$C$E$GT$$u20$as$u20$core..ops..try_trait..Try$GT$6branch17h6d769b361f8aea84E', symObjAddr: 0x6568, symBinAddr: 0x3D55C, symSize: 0xA0 }
  - { offset: 0xB9D71, size: 0x8, addend: 0x0, symName: '__ZN79_$LT$core..result..Result$LT$T$C$E$GT$$u20$as$u20$core..ops..try_trait..Try$GT$6branch17h8adde2e4b5f6a815E', symObjAddr: 0x6938, symBinAddr: 0x3D5FC, symSize: 0x28 }
  - { offset: 0xB9DCF, size: 0x8, addend: 0x0, symName: '__ZN79_$LT$core..result..Result$LT$T$C$E$GT$$u20$as$u20$core..ops..try_trait..Try$GT$6branch17h8e971587084a20afE', symObjAddr: 0x6960, symBinAddr: 0x3D624, symSize: 0x14 }
  - { offset: 0xB9E0B, size: 0x8, addend: 0x0, symName: '__ZN79_$LT$core..result..Result$LT$T$C$E$GT$$u20$as$u20$core..ops..try_trait..Try$GT$6branch17hc02138a48492bf9aE', symObjAddr: 0x7058, symBinAddr: 0x3D638, symSize: 0x44 }
  - { offset: 0xB9E87, size: 0x8, addend: 0x0, symName: '__ZN79_$LT$core..result..Result$LT$T$C$E$GT$$u20$as$u20$core..ops..try_trait..Try$GT$6branch17hd31967b2812c8dc8E', symObjAddr: 0x709C, symBinAddr: 0x3D67C, symSize: 0xA0 }
  - { offset: 0xB9F04, size: 0x8, addend: 0x0, symName: '__ZN79_$LT$core..result..Result$LT$T$C$E$GT$$u20$as$u20$core..ops..try_trait..Try$GT$6branch17hdc62a0d3cc8b70dbE', symObjAddr: 0x713C, symBinAddr: 0x3D71C, symSize: 0x38 }
  - { offset: 0xB9F80, size: 0x8, addend: 0x0, symName: '__ZN79_$LT$core..result..Result$LT$T$C$E$GT$$u20$as$u20$core..ops..try_trait..Try$GT$6branch17hdcf0dd8c42e73305E', symObjAddr: 0x7174, symBinAddr: 0x3D754, symSize: 0x88 }
  - { offset: 0xB9FFE, size: 0x8, addend: 0x0, symName: '__ZN79_$LT$core..result..Result$LT$T$C$E$GT$$u20$as$u20$core..ops..try_trait..Try$GT$6branch17hdfba4b38cb817e6eE', symObjAddr: 0x7264, symBinAddr: 0x3D7DC, symSize: 0x88 }
  - { offset: 0xBA07C, size: 0x8, addend: 0x0, symName: '__ZN79_$LT$core..result..Result$LT$T$C$E$GT$$u20$as$u20$core..ops..try_trait..Try$GT$6branch17he215d1bffad44d1dE', symObjAddr: 0x738C, symBinAddr: 0x3D864, symSize: 0xA0 }
  - { offset: 0xBBF78, size: 0x8, addend: 0x0, symName: '__ZN152_$LT$core..result..Result$LT$pyo3..instance..Bound$LT$pyo3..types..any..PyAny$GT$$C$pyo3..err..PyErr$GT$$u20$as$u20$pyo3..py_result_ext..PyResultExt$GT$23downcast_into_unchecked17h237afe6d6979325aE', symObjAddr: 0x140, symBinAddr: 0x3BED0, symSize: 0x40 }
  - { offset: 0xBBFAE, size: 0x8, addend: 0x0, symName: '__ZN152_$LT$core..result..Result$LT$pyo3..instance..Bound$LT$pyo3..types..any..PyAny$GT$$C$pyo3..err..PyErr$GT$$u20$as$u20$pyo3..py_result_ext..PyResultExt$GT$23downcast_into_unchecked17h8bfe42790e54d474E', symObjAddr: 0x2C0, symBinAddr: 0x3BF10, symSize: 0x40 }
  - { offset: 0xBC695, size: 0x8, addend: 0x0, symName: '__ZN4core6result19Result$LT$T$C$E$GT$14unwrap_or_else17hb8bdd77749bff79aE', symObjAddr: 0x2434, symBinAddr: 0x3C4C8, symSize: 0x8C }
  - { offset: 0xBC726, size: 0x8, addend: 0x0, symName: '__ZN4core6result19Result$LT$T$C$E$GT$3map17h2cd7e103c2ec4373E', symObjAddr: 0x2758, symBinAddr: 0x3C554, symSize: 0xA8 }
  - { offset: 0xBC7C7, size: 0x8, addend: 0x0, symName: '__ZN4core6result19Result$LT$T$C$E$GT$3map17h3a59ee9417d2ee3bE', symObjAddr: 0x2890, symBinAddr: 0x3C5FC, symSize: 0x9C }
  - { offset: 0xBC861, size: 0x8, addend: 0x0, symName: '__ZN4core6result19Result$LT$T$C$E$GT$3map17h88febdfed1e352eeE', symObjAddr: 0x2C8C, symBinAddr: 0x3C698, symSize: 0xA0 }
  - { offset: 0xBC919, size: 0x8, addend: 0x0, symName: '__ZN4core6result19Result$LT$T$C$E$GT$3map17h8f0deb4acfe654cbE', symObjAddr: 0x2DBC, symBinAddr: 0x3C738, symSize: 0x9C }
  - { offset: 0xBC9DC, size: 0x8, addend: 0x0, symName: '__ZN4core6result19Result$LT$T$C$E$GT$3map17ha1c6ecc95d4ffc05E', symObjAddr: 0x2FA4, symBinAddr: 0x3C7D4, symSize: 0x90 }
  - { offset: 0xBCA6F, size: 0x8, addend: 0x0, symName: '__ZN4core6result19Result$LT$T$C$E$GT$3map17hcd74743a3dc97697E', symObjAddr: 0x3280, symBinAddr: 0x3C864, symSize: 0x90 }
  - { offset: 0xBCB02, size: 0x8, addend: 0x0, symName: '__ZN4core6result19Result$LT$T$C$E$GT$6expect17h5fad31ff514d9e6aE', symObjAddr: 0x3578, symBinAddr: 0x3C8F4, symSize: 0x78 }
  - { offset: 0xBCB64, size: 0x8, addend: 0x0, symName: '__ZN4core6result19Result$LT$T$C$E$GT$6expect17h6bdaa83b0c6ddb5eE', symObjAddr: 0x35F0, symBinAddr: 0x3C96C, symSize: 0xB0 }
  - { offset: 0xBCBC7, size: 0x8, addend: 0x0, symName: '__ZN4core6result19Result$LT$T$C$E$GT$6expect17h9b37367b0cb47731E', symObjAddr: 0x36A0, symBinAddr: 0x3CA1C, symSize: 0xA4 }
  - { offset: 0xBCC2A, size: 0x8, addend: 0x0, symName: '__ZN4core6result19Result$LT$T$C$E$GT$6expect17hb8df29e4c0ca0fedE', symObjAddr: 0x3744, symBinAddr: 0x3CAC0, symSize: 0x84 }
  - { offset: 0xBCC8C, size: 0x8, addend: 0x0, symName: '__ZN4core6result19Result$LT$T$C$E$GT$6expect17hbc0ac29ba19d09beE', symObjAddr: 0x37C8, symBinAddr: 0x3CB44, symSize: 0x84 }
  - { offset: 0xBCCEE, size: 0x8, addend: 0x0, symName: '__ZN4core6result19Result$LT$T$C$E$GT$6expect17hc5188a2817184010E', symObjAddr: 0x38FC, symBinAddr: 0x3CBC8, symSize: 0xB0 }
  - { offset: 0xBCD76, size: 0x8, addend: 0x0, symName: '__ZN4core6result19Result$LT$T$C$E$GT$7map_err17h12dd492d0cedea60E', symObjAddr: 0x3E30, symBinAddr: 0x3CC78, symSize: 0xB0 }
  - { offset: 0xBCE44, size: 0x8, addend: 0x0, symName: '__ZN4core6result19Result$LT$T$C$E$GT$7map_err17hcbc0346b4d2a3705E', symObjAddr: 0x4B9C, symBinAddr: 0x3CD28, symSize: 0x84 }
  - { offset: 0xBCEE4, size: 0x8, addend: 0x0, symName: '__ZN4core6result19Result$LT$T$C$E$GT$7map_err17hd5a677faf4d18971E', symObjAddr: 0x4C20, symBinAddr: 0x3CDAC, symSize: 0x30 }
  - { offset: 0xBCF9A, size: 0x8, addend: 0x0, symName: '__ZN4core6result19Result$LT$T$C$E$GT$9unwrap_or17h607b30cb66a0d30eE', symObjAddr: 0x5388, symBinAddr: 0x3CDDC, symSize: 0x70 }
  - { offset: 0xBCFDE, size: 0x8, addend: 0x0, symName: '__ZN4core6result19Result$LT$T$C$E$GT$9unwrap_or17hc17689bb4609f564E', symObjAddr: 0x53F8, symBinAddr: 0x3CE4C, symSize: 0xC4 }
  - { offset: 0xBD70B, size: 0x8, addend: 0x0, symName: '__ZN9hashbrown3raw13RawTableInner14prepare_resize28_$u7b$$u7b$closure$u7d$$u7d$17h159d0051e41b0af0E', symObjAddr: 0x28C, symBinAddr: 0x3DB24, symSize: 0xB0 }
  - { offset: 0xBD8BF, size: 0x8, addend: 0x0, symName: '__ZN9hashbrown3raw13RawTableInner15rehash_in_place28_$u7b$$u7b$closure$u7d$$u7d$17hfa2ae189bf7c94d8E', symObjAddr: 0x758, symBinAddr: 0x3DBD4, symSize: 0x1F8 }
  - { offset: 0xBDD2D, size: 0x8, addend: 0x0, symName: __ZN9hashbrown3raw19capacity_to_buckets17he565aee37cc854bbE, symObjAddr: 0x13EC, symBinAddr: 0x3E298, symSize: 0x2C8 }
  - { offset: 0xC0295, size: 0x8, addend: 0x0, symName: __ZN9hashbrown3raw11TableLayout20calculate_layout_for17hb553ae424b280baaE, symObjAddr: 0x3C, symBinAddr: 0x3D904, symSize: 0x220 }
  - { offset: 0xC091E, size: 0x8, addend: 0x0, symName: __ZN9hashbrown3raw13RawTableInner17new_uninitialized17ha04db434ea8fa743E, symObjAddr: 0xBFC, symBinAddr: 0x3DDCC, symSize: 0x2AC }
  - { offset: 0xC0C4B, size: 0x8, addend: 0x0, symName: __ZN9hashbrown3raw13RawTableInner22fallible_with_capacity17h68cc4bc0e1205109E, symObjAddr: 0xEA8, symBinAddr: 0x3E078, symSize: 0x220 }
  - { offset: 0xC2BAC, size: 0x8, addend: 0x0, symName: '__ZN5alloc3vec16Vec$LT$T$C$A$GT$7set_len18precondition_check17hf8d216411196c63dE', symObjAddr: 0x2080, symBinAddr: 0x3EE68, symSize: 0x60 }
  - { offset: 0xC2C0B, size: 0x8, addend: 0x0, symName: '__ZN111_$LT$alloc..vec..Vec$LT$T$GT$$u20$as$u20$alloc..vec..spec_from_iter_nested..SpecFromIterNested$LT$T$C$I$GT$$GT$9from_iter17h840bf80d5dc3029fE', symObjAddr: 0x554, symBinAddr: 0x3E560, symSize: 0x24C }
  - { offset: 0xC2E6A, size: 0x8, addend: 0x0, symName: '__ZN111_$LT$alloc..vec..Vec$LT$T$GT$$u20$as$u20$alloc..vec..spec_from_iter_nested..SpecFromIterNested$LT$T$C$I$GT$$GT$9from_iter17hef77d453c8e72c53E', symObjAddr: 0x7A0, symBinAddr: 0x3E7AC, symSize: 0x24C }
  - { offset: 0xC342A, size: 0x8, addend: 0x0, symName: '__ZN72_$LT$alloc..vec..Vec$LT$T$C$A$GT$$u20$as$u20$core..ops..deref..Deref$GT$5deref17he11ac54ae6a8137eE', symObjAddr: 0x2B10, symBinAddr: 0x3F034, symSize: 0x20 }
  - { offset: 0xC34ED, size: 0x8, addend: 0x0, symName: '__ZN67_$LT$alloc..vec..Vec$LT$T$GT$$u20$as$u20$core..default..Default$GT$7default17h372937025fa20b53E', symObjAddr: 0x28D8, symBinAddr: 0x3EFD8, symSize: 0x14 }
  - { offset: 0xC350F, size: 0x8, addend: 0x0, symName: '__ZN67_$LT$alloc..vec..Vec$LT$T$GT$$u20$as$u20$core..default..Default$GT$7default17h372937025fa20b53E', symObjAddr: 0x28D8, symBinAddr: 0x3EFD8, symSize: 0x14 }
  - { offset: 0xC3530, size: 0x8, addend: 0x0, symName: '__ZN70_$LT$alloc..vec..Vec$LT$T$C$A$GT$$u20$as$u20$core..ops..drop..Drop$GT$4drop17h92e83026546f6ca3E', symObjAddr: 0x2A04, symBinAddr: 0x3EFEC, symSize: 0x24 }
  - { offset: 0xC35E0, size: 0x8, addend: 0x0, symName: '__ZN70_$LT$alloc..vec..Vec$LT$T$C$A$GT$$u20$as$u20$core..ops..drop..Drop$GT$4drop17hac72dd6d1ccbc4e6E', symObjAddr: 0x2A70, symBinAddr: 0x3F010, symSize: 0x24 }
  - { offset: 0xC3696, size: 0x8, addend: 0x0, symName: '__ZN90_$LT$alloc..vec..Vec$LT$T$C$A$GT$$u20$as$u20$core..iter..traits..collect..IntoIterator$GT$9into_iter17h57b9d1f9e900ec4fE', symObjAddr: 0x2BD8, symBinAddr: 0x3F054, symSize: 0xA8 }
  - { offset: 0xC3893, size: 0x8, addend: 0x0, symName: '__ZN95_$LT$alloc..vec..Vec$LT$T$GT$$u20$as$u20$core..iter..traits..collect..FromIterator$LT$T$GT$$GT$9from_iter17h095b0d226d2ed948E', symObjAddr: 0x2D30, symBinAddr: 0x3F0FC, symSize: 0x34 }
  - { offset: 0xC38D4, size: 0x8, addend: 0x0, symName: '__ZN95_$LT$alloc..vec..Vec$LT$T$GT$$u20$as$u20$core..iter..traits..collect..FromIterator$LT$T$GT$$GT$9from_iter17h4feb8d2a62827d46E', symObjAddr: 0x2D64, symBinAddr: 0x3F130, symSize: 0x34 }
  - { offset: 0xC3920, size: 0x8, addend: 0x0, symName: '__ZN97_$LT$alloc..vec..Vec$LT$T$C$A$GT$$u20$as$u20$alloc..vec..spec_extend..SpecExtend$LT$T$C$I$GT$$GT$11spec_extend17h3403bb37d66152d8E', symObjAddr: 0x2E28, symBinAddr: 0x3F164, symSize: 0x24 }
  - { offset: 0xC3972, size: 0x8, addend: 0x0, symName: '__ZN97_$LT$alloc..vec..Vec$LT$T$C$A$GT$$u20$as$u20$alloc..vec..spec_extend..SpecExtend$LT$T$C$I$GT$$GT$11spec_extend17h4f38072b6820ce69E', symObjAddr: 0x2E4C, symBinAddr: 0x3F188, symSize: 0x24 }
  - { offset: 0xC39D0, size: 0x8, addend: 0x0, symName: '__ZN98_$LT$alloc..vec..Vec$LT$T$GT$$u20$as$u20$alloc..vec..spec_from_iter..SpecFromIter$LT$T$C$I$GT$$GT$9from_iter17h66d7c5cedf835b91E', symObjAddr: 0x2EB8, symBinAddr: 0x3F1AC, symSize: 0x14 }
  - { offset: 0xC3A0F, size: 0x8, addend: 0x0, symName: '__ZN98_$LT$alloc..vec..Vec$LT$T$GT$$u20$as$u20$alloc..vec..spec_from_iter..SpecFromIter$LT$T$C$I$GT$$GT$9from_iter17hde38fb71e3312b28E', symObjAddr: 0x2EE0, symBinAddr: 0x3F1C0, symSize: 0x14 }
  - { offset: 0xC4621, size: 0x8, addend: 0x0, symName: '__ZN5alloc3vec12Vec$LT$T$GT$3new17h911a86b513c49100E', symObjAddr: 0xA58, symBinAddr: 0x3E9F8, symSize: 0x14 }
  - { offset: 0xC48E2, size: 0x8, addend: 0x0, symName: '__ZN5alloc3vec16Vec$LT$T$C$A$GT$16extend_desugared17h35651b8e5b784a14E', symObjAddr: 0xF40, symBinAddr: 0x3EA0C, symSize: 0x1C4 }
  - { offset: 0xC4CBF, size: 0x8, addend: 0x0, symName: '__ZN5alloc3vec16Vec$LT$T$C$A$GT$16extend_desugared17h3b205725a35d136dE', symObjAddr: 0x1104, symBinAddr: 0x3EBD0, symSize: 0x1C4 }
  - { offset: 0xC4F82, size: 0x8, addend: 0x0, symName: '__ZN5alloc3vec16Vec$LT$T$C$A$GT$4push17h955e2b25a36abaf3E', symObjAddr: 0x1D4C, symBinAddr: 0x3ED94, symSize: 0x2C }
  - { offset: 0xC50E9, size: 0x8, addend: 0x0, symName: '__ZN5alloc3vec16Vec$LT$T$C$A$GT$7reserve17h56b6ea84f56ddf59E', symObjAddr: 0x1E88, symBinAddr: 0x3EDC0, symSize: 0xA8 }
  - { offset: 0xC525C, size: 0x8, addend: 0x0, symName: '__ZN5alloc3vec16Vec$LT$T$C$A$GT$8is_empty17h743e46b245be043dE', symObjAddr: 0x2120, symBinAddr: 0x3EEC8, symSize: 0x20 }
  - { offset: 0xC52E1, size: 0x8, addend: 0x0, symName: '__ZN5alloc3vec16Vec$LT$T$C$A$GT$8is_empty17hfc05a8d5c322f0d3E', symObjAddr: 0x2160, symBinAddr: 0x3EEE8, symSize: 0x20 }
  - { offset: 0xC5462, size: 0x8, addend: 0x0, symName: '__ZN5alloc3vec16Vec$LT$T$C$A$GT$8push_mut17hac5cbad2ed28cc25E', symObjAddr: 0x24EC, symBinAddr: 0x3EF08, symSize: 0xD0 }
  - { offset: 0xC6A0D, size: 0x8, addend: 0x0, symName: '__ZN145_$LT$core..option..Option$LT$T$GT$$u20$as$u20$core..ops..try_trait..FromResidual$LT$core..option..Option$LT$core..convert..Infallible$GT$$GT$$GT$13from_residual17h4468af603d744918E', symObjAddr: 0x534, symBinAddr: 0x3F1D4, symSize: 0x10 }
  - { offset: 0xC7F4B, size: 0x8, addend: 0x0, symName: '__ZN66_$LT$core..option..Option$LT$T$GT$$u20$as$u20$core..fmt..Debug$GT$3fmt17h864b03ee140b811bE', symObjAddr: 0x39F4, symBinAddr: 0x407D4, symSize: 0x9C }
  - { offset: 0xC7FB5, size: 0x8, addend: 0x0, symName: '__ZN72_$LT$core..option..Option$LT$T$GT$$u20$as$u20$core..default..Default$GT$7default17h6161192e57d4abf4E', symObjAddr: 0x3C6C, symBinAddr: 0x4089C, symSize: 0x8 }
  - { offset: 0xC7FE3, size: 0x8, addend: 0x0, symName: '__ZN75_$LT$core..option..Option$LT$T$GT$$u20$as$u20$core..ops..try_trait..Try$GT$6branch17h5cf3e22c3fe7f28eE', symObjAddr: 0x3E6C, symBinAddr: 0x4092C, symSize: 0x40 }
  - { offset: 0xC9170, size: 0x8, addend: 0x0, symName: '__ZN48_$LT$A$u20$as$u20$core..slice..cmp..SliceOrd$GT$7compare17h27ff95c2ba31219eE', symObjAddr: 0xDF8, symBinAddr: 0x3F7C8, symSize: 0xE4 }
  - { offset: 0xC92BA, size: 0x8, addend: 0x0, symName: '__ZN55_$LT$A$u20$as$u20$core..slice..cmp..SlicePartialOrd$GT$15partial_compare17h00cb2e5a7aed6104E', symObjAddr: 0x3080, symBinAddr: 0x404C4, symSize: 0x34 }
  - { offset: 0xC9303, size: 0x8, addend: 0x0, symName: '__ZN73_$LT$$u5b$A$u5d$$u20$as$u20$core..slice..cmp..SlicePartialEq$LT$B$GT$$GT$5equal17he4fcfd3505b9f55eE', symObjAddr: 0x3D1C, symBinAddr: 0x408A4, symSize: 0x88 }
  - { offset: 0xC93E9, size: 0x8, addend: 0x0, symName: '__ZN4core5slice4iter87_$LT$impl$u20$core..iter..traits..collect..IntoIterator$u20$for$u20$$RF$$u5b$T$u5d$$GT$9into_iter17hc902e9945553351bE', symObjAddr: 0x13B8, symBinAddr: 0x3FACC, symSize: 0x50 }
  - { offset: 0xCA112, size: 0x8, addend: 0x0, symName: '__ZN66_$LT$std..thread..id..ThreadId$u20$as$u20$core..cmp..PartialEq$GT$2eq17h98176aab3b879137E', symObjAddr: 0x3AF8, symBinAddr: 0x40870, symSize: 0x2C }
  - { offset: 0xCA2C9, size: 0x8, addend: 0x0, symName: '__ZN3std6thread5local17LocalKey$LT$T$GT$4with17h315d570279795bd6E', symObjAddr: 0x554, symBinAddr: 0x3F1E4, symSize: 0x4C }
  - { offset: 0xCA341, size: 0x8, addend: 0x0, symName: '__ZN3std6thread5local17LocalKey$LT$T$GT$4with17h45ae22c808e0171dE', symObjAddr: 0x5A0, symBinAddr: 0x3F230, symSize: 0x48 }
  - { offset: 0xCA409, size: 0x8, addend: 0x0, symName: '__ZN3std6thread5local17LocalKey$LT$T$GT$4with17hc68c0e53437b4894E', symObjAddr: 0x63C, symBinAddr: 0x3F278, symSize: 0x50 }
  - { offset: 0xCA4C2, size: 0x8, addend: 0x0, symName: '__ZN3std6thread5local17LocalKey$LT$T$GT$8try_with17h15966fdde673ab93E', symObjAddr: 0x6D4, symBinAddr: 0x3F2C8, symSize: 0xD8 }
  - { offset: 0xCA644, size: 0x8, addend: 0x0, symName: '__ZN3std6thread5local17LocalKey$LT$T$GT$8try_with17ha89c2c28afecca26E', symObjAddr: 0x884, symBinAddr: 0x3F3A0, symSize: 0xCC }
  - { offset: 0xCA7CC, size: 0x8, addend: 0x0, symName: '__ZN3std6thread5local17LocalKey$LT$T$GT$8try_with17hb144c14cee36679bE', symObjAddr: 0x950, symBinAddr: 0x3F46C, symSize: 0xD0 }
  - { offset: 0xCA94E, size: 0x8, addend: 0x0, symName: '__ZN3std6thread5local17LocalKey$LT$T$GT$8try_with17hbe455ae66e46e57bE', symObjAddr: 0xA20, symBinAddr: 0x3F53C, symSize: 0xCC }
  - { offset: 0xCAADC, size: 0x8, addend: 0x0, symName: '__ZN3std6thread5local17LocalKey$LT$T$GT$8try_with17hfa7e38919456d5e6E', symObjAddr: 0xBD0, symBinAddr: 0x3F608, symSize: 0xE8 }
  - { offset: 0xCAC5E, size: 0x8, addend: 0x0, symName: '__ZN3std6thread5local17LocalKey$LT$T$GT$8try_with17hfeb929e222736249E', symObjAddr: 0xCB8, symBinAddr: 0x3F6F0, symSize: 0xD8 }
  - { offset: 0xCAFD5, size: 0x8, addend: 0x0, symName: '__ZN63_$LT$alloc..alloc..Global$u20$as$u20$core..alloc..Allocator$GT$10deallocate17h396e303d610cb2abE', symObjAddr: 0x3890, symBinAddr: 0x4073C, symSize: 0x58 }
  - { offset: 0xCB0A3, size: 0x8, addend: 0x0, symName: '__ZN63_$LT$alloc..alloc..Global$u20$as$u20$core..alloc..Allocator$GT$8allocate17haba0c6fd9df576efE', symObjAddr: 0x392C, symBinAddr: 0x40794, symSize: 0x40 }
  - { offset: 0xCB10F, size: 0x8, addend: 0x0, symName: __ZN5alloc5alloc15exchange_malloc17hd2fe50bc0a4119ceE, symObjAddr: 0x30E8, symBinAddr: 0x404F8, symSize: 0xB0 }
  - { offset: 0xCB40D, size: 0x8, addend: 0x0, symName: __ZN4core3fmt2rt8Argument11new_display17h21be8d47eb718015E, symObjAddr: 0x1030, symBinAddr: 0x3F8AC, symSize: 0x2C }
  - { offset: 0xCB452, size: 0x8, addend: 0x0, symName: __ZN4core3fmt2rt8Argument11new_display17h412b3a2c882e23a2E, symObjAddr: 0x105C, symBinAddr: 0x3F8D8, symSize: 0x2C }
  - { offset: 0xCB497, size: 0x8, addend: 0x0, symName: __ZN4core3fmt2rt8Argument11new_display17h52c2924b9baf4bc8E, symObjAddr: 0x1088, symBinAddr: 0x3F904, symSize: 0x2C }
  - { offset: 0xCB4CF, size: 0x8, addend: 0x0, symName: __ZN4core3fmt2rt8Argument11new_display17h627fdb6a451433dfE, symObjAddr: 0x10E0, symBinAddr: 0x3F930, symSize: 0x2C }
  - { offset: 0xCB507, size: 0x8, addend: 0x0, symName: __ZN4core3fmt2rt8Argument11new_display17h6ba3d185880532f7E, symObjAddr: 0x110C, symBinAddr: 0x3F95C, symSize: 0x2C }
  - { offset: 0xCB60D, size: 0x8, addend: 0x0, symName: __ZN4core3fmt2rt8Argument11new_display17hb2f694fee3dfcdc2E, symObjAddr: 0x1190, symBinAddr: 0x3F988, symSize: 0x2C }
  - { offset: 0xCB652, size: 0x8, addend: 0x0, symName: __ZN4core3fmt2rt8Argument11new_display17hc571e5e5fbf88ac3E, symObjAddr: 0x11BC, symBinAddr: 0x3F9B4, symSize: 0x2C }
  - { offset: 0xCB67D, size: 0x8, addend: 0x0, symName: __ZN4core3fmt2rt8Argument11new_display17hecc8e99464031494E, symObjAddr: 0x11E8, symBinAddr: 0x3F9E0, symSize: 0x2C }
  - { offset: 0xCB6B5, size: 0x8, addend: 0x0, symName: __ZN4core3fmt2rt8Argument11new_display17hf752ef5644140d12E, symObjAddr: 0x1214, symBinAddr: 0x3FA0C, symSize: 0x2C }
  - { offset: 0xCB6E0, size: 0x8, addend: 0x0, symName: '__ZN4core4cell13Cell$LT$T$GT$3get17ha26a6b8fbe144ccdE', symObjAddr: 0x1240, symBinAddr: 0x3FA38, symSize: 0x18 }
  - { offset: 0xCB734, size: 0x8, addend: 0x0, symName: '__ZN4core4cell13Cell$LT$T$GT$3set17h652a9cee0c2bb90dE', symObjAddr: 0x1258, symBinAddr: 0x3FA50, symSize: 0x1C }
  - { offset: 0xCB7F1, size: 0x8, addend: 0x0, symName: '__ZN4core4cell13Cell$LT$T$GT$4take17h3008ad621e3d31c0E', symObjAddr: 0x1274, symBinAddr: 0x3FA6C, symSize: 0x3C }
  - { offset: 0xCB858, size: 0x8, addend: 0x0, symName: '__ZN4core4cell13Cell$LT$T$GT$7replace17hec9a5d35826b2a1aE', symObjAddr: 0x12B0, symBinAddr: 0x3FAA8, symSize: 0x24 }
  - { offset: 0xCBA03, size: 0x8, addend: 0x0, symName: '__ZN4core6option15Option$LT$T$GT$11map_or_else17ha54905f5ba10603cE', symObjAddr: 0x15A4, symBinAddr: 0x3FB1C, symSize: 0xC0 }
  - { offset: 0xCBA93, size: 0x8, addend: 0x0, symName: '__ZN4core6option15Option$LT$T$GT$11map_or_else17hef73f6854e90a388E', symObjAddr: 0x1664, symBinAddr: 0x3FBDC, symSize: 0xC0 }
  - { offset: 0xCBB41, size: 0x8, addend: 0x0, symName: '__ZN4core6option15Option$LT$T$GT$14unwrap_or_else17h14ef30928e494cd7E', symObjAddr: 0x1724, symBinAddr: 0x3FC9C, symSize: 0x58 }
  - { offset: 0xCBCCF, size: 0x8, addend: 0x0, symName: '__ZN4core6option15Option$LT$T$GT$16unwrap_unchecked17h818c6ad1f8efdac7E', symObjAddr: 0x177C, symBinAddr: 0x3FCF4, symSize: 0x4C }
  - { offset: 0xCBD1D, size: 0x8, addend: 0x0, symName: '__ZN4core6option15Option$LT$T$GT$16unwrap_unchecked17h9405b267e4da09c0E', symObjAddr: 0x17C8, symBinAddr: 0x3FD40, symSize: 0x4C }
  - { offset: 0xCBD94, size: 0x8, addend: 0x0, symName: '__ZN4core6option15Option$LT$T$GT$3map17h426fe7104cc0d7a3E', symObjAddr: 0x18E4, symBinAddr: 0x3FD8C, symSize: 0x50 }
  - { offset: 0xCBDFF, size: 0x8, addend: 0x0, symName: '__ZN4core6option15Option$LT$T$GT$3map17h5460630ca9e64847E', symObjAddr: 0x1934, symBinAddr: 0x3FDDC, symSize: 0x5C }
  - { offset: 0xCBE82, size: 0x8, addend: 0x0, symName: '__ZN4core6option15Option$LT$T$GT$3map17h8df684131ddf2eb0E', symObjAddr: 0x1990, symBinAddr: 0x3FE38, symSize: 0x7C }
  - { offset: 0xCBEED, size: 0x8, addend: 0x0, symName: '__ZN4core6option15Option$LT$T$GT$3map17h9fae61d6fe78cc63E', symObjAddr: 0x1A0C, symBinAddr: 0x3FEB4, symSize: 0x84 }
  - { offset: 0xCBF71, size: 0x8, addend: 0x0, symName: '__ZN4core6option15Option$LT$T$GT$3map17hc2dabb8e37a28586E', symObjAddr: 0x1AE0, symBinAddr: 0x3FF38, symSize: 0x50 }
  - { offset: 0xCC00C, size: 0x8, addend: 0x0, symName: '__ZN4core6option15Option$LT$T$GT$3map17hf6034ca210862f93E', symObjAddr: 0x1C4C, symBinAddr: 0x3FF88, symSize: 0x50 }
  - { offset: 0xCC084, size: 0x8, addend: 0x0, symName: '__ZN4core6option15Option$LT$T$GT$4take17h2a6abdffe22ca24cE', symObjAddr: 0x1C9C, symBinAddr: 0x3FFD8, symSize: 0x20 }
  - { offset: 0xCC0DB, size: 0x8, addend: 0x0, symName: '__ZN4core6option15Option$LT$T$GT$4take17h493d84ee07762682E', symObjAddr: 0x1CDC, symBinAddr: 0x3FFF8, symSize: 0x3C }
  - { offset: 0xCC132, size: 0x8, addend: 0x0, symName: '__ZN4core6option15Option$LT$T$GT$4take17h4c47bd9e81cd7e1aE', symObjAddr: 0x1D18, symBinAddr: 0x40034, symSize: 0x20 }
  - { offset: 0xCC189, size: 0x8, addend: 0x0, symName: '__ZN4core6option15Option$LT$T$GT$4take17h7b26f4a4e6a97a0dE', symObjAddr: 0x1D38, symBinAddr: 0x40054, symSize: 0x20 }
  - { offset: 0xCC201, size: 0x8, addend: 0x0, symName: '__ZN4core6option15Option$LT$T$GT$4take17hc4fc3152c38daad2E', symObjAddr: 0x1DB4, symBinAddr: 0x40074, symSize: 0x20 }
  - { offset: 0xCC265, size: 0x8, addend: 0x0, symName: '__ZN4core6option15Option$LT$T$GT$6as_ref17h525f2fd5f7ffbb11E', symObjAddr: 0x1EA0, symBinAddr: 0x40094, symSize: 0x48 }
  - { offset: 0xCC2C9, size: 0x8, addend: 0x0, symName: '__ZN4core6option15Option$LT$T$GT$6as_ref17h58e8f841dbbfdf2dE', symObjAddr: 0x1EE8, symBinAddr: 0x400DC, symSize: 0x4C }
  - { offset: 0xCC32D, size: 0x8, addend: 0x0, symName: '__ZN4core6option15Option$LT$T$GT$6as_ref17h9096f2c1fe12c3a5E', symObjAddr: 0x1F34, symBinAddr: 0x40128, symSize: 0x4C }
  - { offset: 0xCC3B8, size: 0x8, addend: 0x0, symName: '__ZN4core6option15Option$LT$T$GT$6as_ref17hc66f90c04dc1ea99E', symObjAddr: 0x1F80, symBinAddr: 0x40174, symSize: 0x4C }
  - { offset: 0xCC402, size: 0x8, addend: 0x0, symName: '__ZN4core6option15Option$LT$T$GT$6expect17h242420e34386b41bE', symObjAddr: 0x1FCC, symBinAddr: 0x401C0, symSize: 0x5C }
  - { offset: 0xCC43D, size: 0x8, addend: 0x0, symName: '__ZN4core6option15Option$LT$T$GT$6expect17h4c115ea4da1b319fE', symObjAddr: 0x2028, symBinAddr: 0x4021C, symSize: 0x60 }
  - { offset: 0xCC491, size: 0x8, addend: 0x0, symName: '__ZN4core6option15Option$LT$T$GT$6map_or17h5bb213e7da74bd27E', symObjAddr: 0x2134, symBinAddr: 0x4027C, symSize: 0x9C }
  - { offset: 0xCC51B, size: 0x8, addend: 0x0, symName: '__ZN4core6option15Option$LT$T$GT$6map_or17h77eaac91ed2e261bE', symObjAddr: 0x21D0, symBinAddr: 0x40318, symSize: 0x9C }
  - { offset: 0xCC5A5, size: 0x8, addend: 0x0, symName: '__ZN4core6option15Option$LT$T$GT$6map_or17ha17445c51350046aE', symObjAddr: 0x2308, symBinAddr: 0x403B4, symSize: 0x9C }
  - { offset: 0xCC658, size: 0x8, addend: 0x0, symName: '__ZN4core6option15Option$LT$T$GT$7is_none17h6974fccc682cbfe7E', symObjAddr: 0x244C, symBinAddr: 0x40450, symSize: 0x28 }
  - { offset: 0xCC6AF, size: 0x8, addend: 0x0, symName: '__ZN4core6option15Option$LT$T$GT$7is_some17hcb7aee435f817158E', symObjAddr: 0x24EC, symBinAddr: 0x40478, symSize: 0x28 }
  - { offset: 0xCC6E8, size: 0x8, addend: 0x0, symName: '__ZN4core6option15Option$LT$T$GT$7replace17h1e0bf293ad520111E', symObjAddr: 0x2514, symBinAddr: 0x404A0, symSize: 0x24 }
  - { offset: 0xCC906, size: 0x8, addend: 0x0, symName: __ZN5alloc5alloc6Global18alloc_impl_runtime17he7f78058a671d310E, symObjAddr: 0x3198, symBinAddr: 0x405A8, symSize: 0x194 }
  - { offset: 0xCD050, size: 0x8, addend: 0x0, symName: '__ZN103_$LT$pyo3..instance..Bound$LT$pyo3..types..any..PyAny$GT$$u20$as$u20$pyo3..types..any..PyAnyMethods$GT$7getattr5inner17h81167442bf9b7f95E', symObjAddr: 0xD9C, symBinAddr: 0x4096C, symSize: 0x6C }
  - { offset: 0xCD093, size: 0x8, addend: 0x0, symName: '__ZN103_$LT$pyo3..instance..Bound$LT$pyo3..types..any..PyAny$GT$$u20$as$u20$pyo3..types..any..PyAnyMethods$GT$7setattr5inner17h9bbe5bede43f4cbbE', symObjAddr: 0xF70, symBinAddr: 0x409D8, symSize: 0x7C }
  - { offset: 0xCD204, size: 0x8, addend: 0x0, symName: '__ZN4pyo311conversions3std3num64_$LT$impl$u20$pyo3..conversion..IntoPyObject$u20$for$u20$i64$GT$13into_pyobject17h9b3e17ac4042dfbfE', symObjAddr: 0x4128, symBinAddr: 0x41880, symSize: 0x30 }
  - { offset: 0xCD24F, size: 0x8, addend: 0x0, symName: '__ZN4pyo311conversions3std3num64_$LT$impl$u20$pyo3..conversion..IntoPyObject$u20$for$u20$u64$GT$13into_pyobject17h1b7483a452ff9535E', symObjAddr: 0x41C8, symBinAddr: 0x418B0, symSize: 0x30 }
  - { offset: 0xCD2A0, size: 0x8, addend: 0x0, symName: '__ZN4pyo311conversions3std6string68_$LT$impl$u20$pyo3..conversion..IntoPyObject$u20$for$u20$$RF$str$GT$13into_pyobject17hcc604ef539549320E', symObjAddr: 0x48FC, symBinAddr: 0x418E0, symSize: 0x28 }
  - { offset: 0xCD2EB, size: 0x8, addend: 0x0, symName: '__ZN4pyo311conversions3std6string73_$LT$impl$u20$pyo3..conversion..FromPyObjectBound$u20$for$u20$$RF$str$GT$20from_py_object_bound17h4b10cd3ad479855cE', symObjAddr: 0x4924, symBinAddr: 0x41908, symSize: 0xA0 }
  - { offset: 0xCD533, size: 0x8, addend: 0x0, symName: __ZN4core4sync6atomic11atomic_load17h426c6189df6b98a3E, symObjAddr: 0x1C78, symBinAddr: 0x40BA4, symSize: 0xF8 }
  - { offset: 0xCD579, size: 0x8, addend: 0x0, symName: __ZN4core4sync6atomic11atomic_load17hae95638f021a5242E, symObjAddr: 0x1D70, symBinAddr: 0x40C9C, symSize: 0xF8 }
  - { offset: 0xCD5BF, size: 0x8, addend: 0x0, symName: __ZN4core4sync6atomic11atomic_load17hd27dc2c33fa69768E, symObjAddr: 0x1E68, symBinAddr: 0x40D94, symSize: 0xF8 }
  - { offset: 0xCD605, size: 0x8, addend: 0x0, symName: __ZN4core4sync6atomic23atomic_compare_exchange17h1a84d1ebd8e706aaE, symObjAddr: 0x205C, symBinAddr: 0x40E8C, symSize: 0x4B4 }
  - { offset: 0xCD6A0, size: 0x8, addend: 0x0, symName: __ZN4core4sync6atomic23atomic_compare_exchange17h2664c49f1fd0a0a4E, symObjAddr: 0x2510, symBinAddr: 0x41340, symSize: 0x4B4 }
  - { offset: 0xCDFF4, size: 0x8, addend: 0x0, symName: '__ZN4core3cmp5impls54_$LT$impl$u20$core..cmp..PartialEq$u20$for$u20$i32$GT$2ne17h46d40f4696b3dba1E', symObjAddr: 0x14AC, symBinAddr: 0x40A54, symSize: 0x2C }
  - { offset: 0xCE037, size: 0x8, addend: 0x0, symName: '__ZN4core3cmp5impls54_$LT$impl$u20$core..cmp..PartialEq$u20$for$u20$i64$GT$2ne17hbfba2a38507560deE', symObjAddr: 0x1504, symBinAddr: 0x40A80, symSize: 0x2C }
  - { offset: 0xCE095, size: 0x8, addend: 0x0, symName: '__ZN4core4iter6traits8iterator8Iterator8find_map5check28_$u7b$$u7b$closure$u7d$$u7d$17h03226058dbe27996E', symObjAddr: 0x1840, symBinAddr: 0x40AAC, symSize: 0x7C }
  - { offset: 0xCE118, size: 0x8, addend: 0x0, symName: '__ZN4core4iter6traits8iterator8Iterator8find_map5check28_$u7b$$u7b$closure$u7d$$u7d$17h0f054afdd5909615E', symObjAddr: 0x18BC, symBinAddr: 0x40B28, symSize: 0x7C }
  - { offset: 0xCE720, size: 0x8, addend: 0x0, symName: '__ZN4core7convert3num71_$LT$impl$u20$core..convert..TryFrom$LT$usize$GT$$u20$for$u20$isize$GT$8try_from17h5509c4eaaf833127E', symObjAddr: 0x334C, symBinAddr: 0x41824, symSize: 0x5C }
  - { offset: 0xCEB9C, size: 0x8, addend: 0x0, symName: '__ZN77_$LT$alloc..raw_vec..RawVec$LT$T$C$A$GT$$u20$as$u20$core..ops..drop..Drop$GT$4drop17h2107e7e8cf621099E', symObjAddr: 0x5688, symBinAddr: 0x41A2C, symSize: 0x30 }
  - { offset: 0xCEBD8, size: 0x8, addend: 0x0, symName: '__ZN77_$LT$alloc..raw_vec..RawVec$LT$T$C$A$GT$$u20$as$u20$core..ops..drop..Drop$GT$4drop17h833578248f5ebaddE', symObjAddr: 0x56EC, symBinAddr: 0x41A5C, symSize: 0x34 }
  - { offset: 0xCEDF4, size: 0x8, addend: 0x0, symName: __ZN4core4sync6atomic9AtomicI6416compare_exchange17hab6b45335f44ff27E, symObjAddr: 0x2F28, symBinAddr: 0x417F4, symSize: 0x30 }
  - { offset: 0xCEED0, size: 0x8, addend: 0x0, symName: '__ZN5alloc7raw_vec19RawVec$LT$T$C$A$GT$8grow_one17hc2b7c6809f2d51b1E', symObjAddr: 0x4E28, symBinAddr: 0x419A8, symSize: 0x84 }
  - { offset: 0xCF19B, size: 0x8, addend: 0x0, symName: '__ZN79_$LT$pyo3..types..string..PyString$u20$as$u20$pyo3..type_object..PyTypeInfo$GT$15type_object_raw17h9b1153505f8a49a6E', symObjAddr: 0x4A30, symBinAddr: 0x4354C, symSize: 0x24 }
  - { offset: 0xCF1D7, size: 0x8, addend: 0x0, symName: '__ZN79_$LT$pyo3..types..string..PyString$u20$as$u20$pyo3..type_object..PyTypeInfo$GT$15type_object_raw28_$u7b$$u7b$closure$u7d$$u7d$17h5e5309b4a15f6e8aE', symObjAddr: 0x4A54, symBinAddr: 0x43570, symSize: 0x18 }
  - { offset: 0xCF2B0, size: 0x8, addend: 0x0, symName: '__ZN77_$LT$pyo3..types..bytes..PyBytes$u20$as$u20$pyo3..type_object..PyTypeInfo$GT$15type_object_raw17h8463d6bb9595ee47E', symObjAddr: 0x4948, symBinAddr: 0x434A0, symSize: 0x24 }
  - { offset: 0xCF2EC, size: 0x8, addend: 0x0, symName: '__ZN77_$LT$pyo3..types..bytes..PyBytes$u20$as$u20$pyo3..type_object..PyTypeInfo$GT$15type_object_raw28_$u7b$$u7b$closure$u7d$$u7d$17h4251040cef7d84a8E', symObjAddr: 0x496C, symBinAddr: 0x434C4, symSize: 0x18 }
  - { offset: 0xCF5A4, size: 0x8, addend: 0x0, symName: '__ZN4pyo33err9err_state10PyErrState14lazy_arguments28_$u7b$$u7b$closure$u7d$$u7d$17h86c4fbbad5593867E', symObjAddr: 0x31E8, symBinAddr: 0x4287C, symSize: 0x70 }
  - { offset: 0xCF60A, size: 0x8, addend: 0x0, symName: '__ZN4pyo33err9err_state10PyErrState10normalized28_$u7b$$u7b$closure$u7d$$u7d$17h590a807ea07bcdd4E', symObjAddr: 0x3038, symBinAddr: 0x426CC, symSize: 0xC }
  - { offset: 0xCF63B, size: 0x8, addend: 0x0, symName: '__ZN4pyo33err9err_state10PyErrState15make_normalized28_$u7b$$u7b$closure$u7d$$u7d$17h5b0e5165d7606e78E', symObjAddr: 0x3528, symBinAddr: 0x428EC, symSize: 0x34 }
  - { offset: 0xCF66A, size: 0x8, addend: 0x0, symName: '__ZN4pyo33err9err_state10PyErrState15make_normalized28_$u7b$$u7b$closure$u7d$$u7d$28_$u7b$$u7b$closure$u7d$$u7d$17hdc2b0db7cd82a35bE', symObjAddr: 0x355C, symBinAddr: 0x42920, symSize: 0x358 }
  - { offset: 0xCF71C, size: 0x8, addend: 0x0, symName: '__ZN4pyo33err9err_state10PyErrState15make_normalized28_$u7b$$u7b$closure$u7d$$u7d$28_$u7b$$u7b$closure$u7d$$u7d$28_$u7b$$u7b$closure$u7d$$u7d$17h62d1ea6d9b6bb8cfE', symObjAddr: 0x38B4, symBinAddr: 0x42C78, symSize: 0x38 }
  - { offset: 0xCF95A, size: 0x8, addend: 0x0, symName: __ZN4pyo33err9err_state10raise_lazy17h7eea5cb877e141d9E, symObjAddr: 0x39D4, symBinAddr: 0x42D98, symSize: 0x148 }
  - { offset: 0xCF9EE, size: 0x8, addend: 0x0, symName: '__ZN4pyo33err9err_state20PyErrStateNormalized10ptraceback28_$u7b$$u7b$closure$u7d$$u7d$17hed06bd9b0774fe48E', symObjAddr: 0x3C5C, symBinAddr: 0x43020, symSize: 0x24 }
  - { offset: 0xCFA31, size: 0x8, addend: 0x0, symName: '__ZN4pyo33err9err_state20PyErrStateNormalized4take28_$u7b$$u7b$closure$u7d$$u7d$17hb4cc9154e6e935c1E', symObjAddr: 0x3CD0, symBinAddr: 0x43094, symSize: 0x28 }
  - { offset: 0xCFAE6, size: 0x8, addend: 0x0, symName: __ZN4pyo35panic14PanicException15type_object_raw11TYPE_OBJECT17hd9856e0372959825E, symObjAddr: 0x5F28, symBinAddr: 0xF8408, symSize: 0x0 }
  - { offset: 0xCFAF3, size: 0x8, addend: 0x0, symName: '__ZN4pyo35panic14PanicException15type_object_raw28_$u7b$$u7b$closure$u7d$$u7d$17he1438e0c12a40fffE', symObjAddr: 0x3D74, symBinAddr: 0x43114, symSize: 0xE0 }
  - { offset: 0xCFBC1, size: 0x8, addend: 0x0, symName: '__ZN77_$LT$pyo3..panic..PanicException$u20$as$u20$pyo3..type_object..PyTypeInfo$GT$15type_object_raw17h77a036d454f8cc2fE', symObjAddr: 0x492C, symBinAddr: 0x43484, symSize: 0x1C }
  - { offset: 0xCFDFF, size: 0x8, addend: 0x0, symName: '__ZN79_$LT$pyo3..exceptions..PyTypeError$u20$as$u20$pyo3..type_object..PyTypeInfo$GT$15type_object_raw17hc76b0349081dea9bE', symObjAddr: 0x4984, symBinAddr: 0x434DC, symSize: 0x24 }
  - { offset: 0xCFE3B, size: 0x8, addend: 0x0, symName: '__ZN79_$LT$pyo3..exceptions..PyTypeError$u20$as$u20$pyo3..type_object..PyTypeInfo$GT$15type_object_raw28_$u7b$$u7b$closure$u7d$$u7d$17hb7ffc6938033564bE', symObjAddr: 0x49A8, symBinAddr: 0x43500, symSize: 0x4C }
  - { offset: 0xCFE8E, size: 0x8, addend: 0x0, symName: '__ZN80_$LT$pyo3..exceptions..PyValueError$u20$as$u20$pyo3..type_object..PyTypeInfo$GT$15type_object_raw17hb269ec7821d87a0aE', symObjAddr: 0x4A6C, symBinAddr: 0x43588, symSize: 0x24 }
  - { offset: 0xCFECA, size: 0x8, addend: 0x0, symName: '__ZN80_$LT$pyo3..exceptions..PyValueError$u20$as$u20$pyo3..type_object..PyTypeInfo$GT$15type_object_raw28_$u7b$$u7b$closure$u7d$$u7d$17h3ab3beb35763990cE', symObjAddr: 0x4A90, symBinAddr: 0x435AC, symSize: 0x4C }
  - { offset: 0xCFF1D, size: 0x8, addend: 0x0, symName: '__ZN81_$LT$pyo3..exceptions..PyImportError$u20$as$u20$pyo3..type_object..PyTypeInfo$GT$15type_object_raw17h0a8ab828109927bcE', symObjAddr: 0x4B0C, symBinAddr: 0x435F8, symSize: 0x24 }
  - { offset: 0xCFF59, size: 0x8, addend: 0x0, symName: '__ZN81_$LT$pyo3..exceptions..PyImportError$u20$as$u20$pyo3..type_object..PyTypeInfo$GT$15type_object_raw28_$u7b$$u7b$closure$u7d$$u7d$17h630bbe9db7271739E', symObjAddr: 0x4B30, symBinAddr: 0x4361C, symSize: 0x4C }
  - { offset: 0xCFFAC, size: 0x8, addend: 0x0, symName: '__ZN83_$LT$pyo3..exceptions..PyBaseException$u20$as$u20$pyo3..type_object..PyTypeInfo$GT$15type_object_raw17h842b58de5cb7db5dE', symObjAddr: 0x4C98, symBinAddr: 0x43668, symSize: 0x24 }
  - { offset: 0xCFFE8, size: 0x8, addend: 0x0, symName: '__ZN83_$LT$pyo3..exceptions..PyBaseException$u20$as$u20$pyo3..type_object..PyTypeInfo$GT$15type_object_raw28_$u7b$$u7b$closure$u7d$$u7d$17h641bf28531c1bb12E', symObjAddr: 0x4CBC, symBinAddr: 0x4368C, symSize: 0x4C }
  - { offset: 0xD003B, size: 0x8, addend: 0x0, symName: '__ZN84_$LT$pyo3..exceptions..PyAttributeError$u20$as$u20$pyo3..type_object..PyTypeInfo$GT$15type_object_raw17h203b9141b4162e2eE', symObjAddr: 0x4D78, symBinAddr: 0x436D8, symSize: 0x24 }
  - { offset: 0xD0077, size: 0x8, addend: 0x0, symName: '__ZN84_$LT$pyo3..exceptions..PyAttributeError$u20$as$u20$pyo3..type_object..PyTypeInfo$GT$15type_object_raw28_$u7b$$u7b$closure$u7d$$u7d$17h98b56836a9a7e329E', symObjAddr: 0x4D9C, symBinAddr: 0x436FC, symSize: 0x4C }
  - { offset: 0xD0154, size: 0x8, addend: 0x0, symName: __ZN4pyo311type_object10PyTypeInfo10is_type_of17h522fdc9cebe181d8E, symObjAddr: 0x2938, symBinAddr: 0x4233C, symSize: 0x50 }
  - { offset: 0xD0189, size: 0x8, addend: 0x0, symName: __ZN4pyo311type_object10PyTypeInfo10is_type_of17ha79a38fe3d005d4dE, symObjAddr: 0x2988, symBinAddr: 0x4238C, symSize: 0x50 }
  - { offset: 0xD01BE, size: 0x8, addend: 0x0, symName: __ZN4pyo311type_object10PyTypeInfo10is_type_of17hcfd12240f609b65aE, symObjAddr: 0x29D8, symBinAddr: 0x423DC, symSize: 0x50 }
  - { offset: 0xD01F3, size: 0x8, addend: 0x0, symName: __ZN4pyo311type_object10PyTypeInfo11type_object17h1138120c4472d25eE, symObjAddr: 0x2AC8, symBinAddr: 0x4242C, symSize: 0x30 }
  - { offset: 0xD0233, size: 0x8, addend: 0x0, symName: __ZN4pyo311type_object10PyTypeInfo11type_object17h6382a9d725fddcc1E, symObjAddr: 0x2C48, symBinAddr: 0x4245C, symSize: 0x30 }
  - { offset: 0xD0273, size: 0x8, addend: 0x0, symName: __ZN4pyo311type_object10PyTypeInfo11type_object17h906f74a6ea958f70E, symObjAddr: 0x2D68, symBinAddr: 0x4248C, symSize: 0x30 }
  - { offset: 0xD02B3, size: 0x8, addend: 0x0, symName: __ZN4pyo311type_object10PyTypeInfo11type_object17h9b51405067129ca1E, symObjAddr: 0x2DC8, symBinAddr: 0x424BC, symSize: 0x30 }
  - { offset: 0xD02F3, size: 0x8, addend: 0x0, symName: __ZN4pyo311type_object10PyTypeInfo11type_object17ha3a337e80a3f8173E, symObjAddr: 0x2DF8, symBinAddr: 0x424EC, symSize: 0x30 }
  - { offset: 0xD0333, size: 0x8, addend: 0x0, symName: __ZN4pyo311type_object10PyTypeInfo11type_object17hd2d4e0abc46d8413E, symObjAddr: 0x2E28, symBinAddr: 0x4251C, symSize: 0x30 }
  - { offset: 0xD0379, size: 0x8, addend: 0x0, symName: '__ZN52_$LT$T$u20$as$u20$pyo3..type_object..PyTypeCheck$GT$10type_check17h1b4ce1f49b3e47caE', symObjAddr: 0x4614, symBinAddr: 0x43378, symSize: 0x24 }
  - { offset: 0xD03AE, size: 0x8, addend: 0x0, symName: '__ZN52_$LT$T$u20$as$u20$pyo3..type_object..PyTypeCheck$GT$10type_check17h2485c661db9a4d1bE', symObjAddr: 0x465C, symBinAddr: 0x4339C, symSize: 0x24 }
  - { offset: 0xD03E3, size: 0x8, addend: 0x0, symName: '__ZN52_$LT$T$u20$as$u20$pyo3..type_object..PyTypeCheck$GT$10type_check17h898aa02e3a5c771aE', symObjAddr: 0x4680, symBinAddr: 0x433C0, symSize: 0x24 }
  - { offset: 0xD06DA, size: 0x8, addend: 0x0, symName: __ZN4core3ptr10swap_chunk17h162cdf6567cdf27bE, symObjAddr: 0xD44, symBinAddr: 0x41D88, symSize: 0x3C }
  - { offset: 0xD0713, size: 0x8, addend: 0x0, symName: __ZN4core3ptr10swap_chunk17h9c425d3c68103058E, symObjAddr: 0xD80, symBinAddr: 0x41DC4, symSize: 0x3C }
  - { offset: 0xD074C, size: 0x8, addend: 0x0, symName: __ZN4core3ptr10swap_chunk17hc66031ff680efab7E, symObjAddr: 0xDBC, symBinAddr: 0x41E00, symSize: 0x3C }
  - { offset: 0xD0785, size: 0x8, addend: 0x0, symName: __ZN4core3ptr10swap_chunk17hec4a5f55412855f3E, symObjAddr: 0xDF8, symBinAddr: 0x41E3C, symSize: 0x3C }
  - { offset: 0xD0820, size: 0x8, addend: 0x0, symName: __ZN4core3ptr14read_unaligned17hbe5cd0354685abdcE, symObjAddr: 0xED0, symBinAddr: 0x41E78, symSize: 0x9C }
  - { offset: 0xD096B, size: 0x8, addend: 0x0, symName: __ZN4core3ptr15write_unaligned17h0ea92c009757b927E, symObjAddr: 0xF6C, symBinAddr: 0x41F14, symSize: 0x78 }
  - { offset: 0xD09F6, size: 0x8, addend: 0x0, symName: __ZN4core3ptr19copy_nonoverlapping18precondition_check17h772a6fccab2f198aE, symObjAddr: 0xFE4, symBinAddr: 0x41F8C, symSize: 0x168 }
  - { offset: 0xD0C1D, size: 0x8, addend: 0x0, symName: __ZN4core3ptr25swap_nonoverlapping_bytes26swap_nonoverlapping_chunks17h1c224f52a44ecac8E, symObjAddr: 0x1584, symBinAddr: 0x420F4, symSize: 0xC0 }
  - { offset: 0xD0DA0, size: 0x8, addend: 0x0, symName: __ZN4core3ptr7replace18precondition_check17h9fe266c1eeef76acE, symObjAddr: 0x1790, symBinAddr: 0x421B4, symSize: 0x9C }
  - { offset: 0xD21B1, size: 0x8, addend: 0x0, symName: __ZN3std4sync6poison10map_result17h268fd6b4a9564ca7E, symObjAddr: 0x200, symBinAddr: 0x41A90, symSize: 0xC4 }
  - { offset: 0xD2245, size: 0x8, addend: 0x0, symName: __ZN3std4sync6poison10map_result17h44a3edb71d706d46E, symObjAddr: 0x388, symBinAddr: 0x41B54, symSize: 0xC4 }
  - { offset: 0xD22FC, size: 0x8, addend: 0x0, symName: '__ZN76_$LT$std..sync..poison..PoisonError$LT$T$GT$$u20$as$u20$core..fmt..Debug$GT$3fmt17h1dcee86fa13dd400E', symObjAddr: 0x47CC, symBinAddr: 0x433E4, symSize: 0x50 }
  - { offset: 0xD233F, size: 0x8, addend: 0x0, symName: '__ZN76_$LT$std..sync..poison..PoisonError$LT$T$GT$$u20$as$u20$core..fmt..Debug$GT$3fmt17h94d8e3072f9d812fE', symObjAddr: 0x481C, symBinAddr: 0x43434, symSize: 0x50 }
  - { offset: 0xD2845, size: 0x8, addend: 0x0, symName: __ZN3std4sync6poison4Flag4done17h211db9d3d5b65c18E, symObjAddr: 0x44C, symBinAddr: 0x41C18, symSize: 0x8C }
  - { offset: 0xD2933, size: 0x8, addend: 0x0, symName: __ZN3std4sync6poison4Flag5guard17h92708c3abb0d52ebE, symObjAddr: 0x4D8, symBinAddr: 0x41CA4, symSize: 0xCC }
  - { offset: 0xD2AB2, size: 0x8, addend: 0x0, symName: __ZN4core3ffi5c_str4CStr6as_ptr17h802c16262b40b168E, symObjAddr: 0xC3C, symBinAddr: 0x41D70, symSize: 0x18 }
  - { offset: 0xD2C0D, size: 0x8, addend: 0x0, symName: '__ZN88_$LT$hashbrown..scopeguard..ScopeGuard$LT$T$C$F$GT$$u20$as$u20$core..ops..drop..Drop$GT$4drop17h359e8acea6fd1e68E', symObjAddr: 0x50F4, symBinAddr: 0x43748, symSize: 0x2C }
  - { offset: 0xD2C47, size: 0x8, addend: 0x0, symName: '__ZN88_$LT$hashbrown..scopeguard..ScopeGuard$LT$T$C$F$GT$$u20$as$u20$core..ops..drop..Drop$GT$4drop17hba691ca70c2e70b5E', symObjAddr: 0x5120, symBinAddr: 0x43774, symSize: 0x2C }
  - { offset: 0xD2D2D, size: 0x8, addend: 0x0, symName: __ZN4pyo310exceptions11PyTypeError7new_err17h345199e15461c1c2E, symObjAddr: 0x19AC, symBinAddr: 0x42250, symSize: 0x34 }
  - { offset: 0xD2D59, size: 0x8, addend: 0x0, symName: __ZN4pyo310exceptions11PyTypeError7new_err17h6f476f389e123cf2E, symObjAddr: 0x19E0, symBinAddr: 0x42284, symSize: 0x34 }
  - { offset: 0xD2D85, size: 0x8, addend: 0x0, symName: __ZN4pyo310exceptions12PyValueError7new_err17h510591b83862943bE, symObjAddr: 0x1AA8, symBinAddr: 0x422B8, symSize: 0x28 }
  - { offset: 0xD2DB0, size: 0x8, addend: 0x0, symName: __ZN4pyo310exceptions12PyValueError7new_err17ha852f9fd948dc80eE, symObjAddr: 0x1B10, symBinAddr: 0x422E0, symSize: 0x34 }
  - { offset: 0xD2DDC, size: 0x8, addend: 0x0, symName: __ZN4pyo310exceptions13PyImportError7new_err17h47bf66ebb90cfa3bE, symObjAddr: 0x1B80, symBinAddr: 0x42314, symSize: 0x28 }
  - { offset: 0xD2E2A, size: 0x8, addend: 0x0, symName: __ZN4pyo33err9err_state10PyErrState10from_inner17h82d387bea0a2b438E, symObjAddr: 0x2EB8, symBinAddr: 0x4254C, symSize: 0xF0 }
  - { offset: 0xD2E6B, size: 0x8, addend: 0x0, symName: __ZN4pyo33err9err_state10PyErrState10normalized17h8031a59a7964c2c0E, symObjAddr: 0x2FA8, symBinAddr: 0x4263C, symSize: 0x90 }
  - { offset: 0xD2EBC, size: 0x8, addend: 0x0, symName: __ZN4pyo33err9err_state10PyErrState13as_normalized17h21a994989f638bd6E, symObjAddr: 0x3044, symBinAddr: 0x426D8, symSize: 0x100 }
  - { offset: 0xD2F21, size: 0x8, addend: 0x0, symName: __ZN4pyo33err9err_state10PyErrState14lazy_arguments17h5d3771dc4211a25cE, symObjAddr: 0x3144, symBinAddr: 0x427D8, symSize: 0xA4 }
  - { offset: 0xD2FBA, size: 0x8, addend: 0x0, symName: __ZN4pyo33err9err_state10PyErrState15make_normalized17heffa543a9fd57274E, symObjAddr: 0x3258, symBinAddr: 0x9F688, symSize: 0x2D0 }
  - { offset: 0xD307C, size: 0x8, addend: 0x0, symName: __ZN4pyo33err9err_state10PyErrState4lazy17hb1cafdd144684648E, symObjAddr: 0x38EC, symBinAddr: 0x42CB0, symSize: 0x3C }
  - { offset: 0xD30BA, size: 0x8, addend: 0x0, symName: __ZN4pyo33err9err_state10PyErrState7restore17h5d2cae8c417b6552E, symObjAddr: 0x3928, symBinAddr: 0x42CEC, symSize: 0xAC }
  - { offset: 0xD3113, size: 0x8, addend: 0x0, symName: __ZN4pyo33err9err_state15PyErrStateInner7restore17h6d229a6a3aaa01f6E, symObjAddr: 0x3B1C, symBinAddr: 0x42EE0, symSize: 0x84 }
  - { offset: 0xD318E, size: 0x8, addend: 0x0, symName: __ZN4pyo33err9err_state15PyErrStateInner9normalize17h98594fc46cb93cdfE, symObjAddr: 0x3BA0, symBinAddr: 0x42F64, symSize: 0x8C }
  - { offset: 0xD3209, size: 0x8, addend: 0x0, symName: __ZN4pyo33err9err_state20PyErrStateNormalized10ptraceback17hee18efe21e00dde5E, symObjAddr: 0x3C2C, symBinAddr: 0x42FF0, symSize: 0x30 }
  - { offset: 0xD3244, size: 0x8, addend: 0x0, symName: __ZN4pyo33err9err_state20PyErrStateNormalized3new17hb65e40de883063feE, symObjAddr: 0x3C80, symBinAddr: 0x43044, symSize: 0x2C }
  - { offset: 0xD3266, size: 0x8, addend: 0x0, symName: __ZN4pyo33err9err_state20PyErrStateNormalized4take17h552915dd99a14afcE, symObjAddr: 0x3CAC, symBinAddr: 0x43070, symSize: 0x24 }
  - { offset: 0xD3293, size: 0x8, addend: 0x0, symName: __ZN4pyo33err9err_state20PyErrStateNormalized5ptype17hc2c708b4452c5126E, symObjAddr: 0x3CF8, symBinAddr: 0x430BC, symSize: 0x2C }
  - { offset: 0xD32CE, size: 0x8, addend: 0x0, symName: __ZN4pyo35panic14PanicException15type_object_raw17h2f0426db6e9a35b3E, symObjAddr: 0x3D48, symBinAddr: 0x430E8, symSize: 0x2C }
  - { offset: 0xD3329, size: 0x8, addend: 0x0, symName: __ZN4pyo35panic14PanicException18from_panic_payload17h4b0ab1723eb39341E, symObjAddr: 0x3E54, symBinAddr: 0x9F958, symSize: 0x144 }
  - { offset: 0xD3388, size: 0x8, addend: 0x0, symName: __ZN4pyo35panic14PanicException7new_err17h61b735b63f0afbdeE, symObjAddr: 0x3F98, symBinAddr: 0x431F4, symSize: 0x34 }
  - { offset: 0xD33C7, size: 0x8, addend: 0x0, symName: __ZN4pyo35panic14PanicException7new_err17ha2600228109e6b90E, symObjAddr: 0x3FCC, symBinAddr: 0x43228, symSize: 0x28 }
  - { offset: 0xD33F2, size: 0x8, addend: 0x0, symName: __ZN4pyo35types10typeobject6PyType22from_borrowed_type_ptr17h87868440f0d9c644E, symObjAddr: 0x3FF4, symBinAddr: 0x43250, symSize: 0x34 }
  - { offset: 0xD343A, size: 0x8, addend: 0x0, symName: __ZN4pyo35types6string8PyString3new17h73322bed44124970E, symObjAddr: 0x41E4, symBinAddr: 0x43284, symSize: 0x68 }
  - { offset: 0xD34AF, size: 0x8, addend: 0x0, symName: __ZN4pyo35types6string8PyString6intern17h94f3dcc79e071be5E, symObjAddr: 0x424C, symBinAddr: 0x432EC, symSize: 0x8C }
  - { offset: 0xD4A05, size: 0x8, addend: 0x0, symName: '__ZN50_$LT$T$u20$as$u20$core..convert..Into$LT$U$GT$$GT$4into17h6b43276f0b8210d6E', symObjAddr: 0x6600, symBinAddr: 0x45878, symSize: 0x30 }
  - { offset: 0xD5040, size: 0x8, addend: 0x0, symName: __ZN4core4hint21unreachable_unchecked18precondition_check17hc8642e9e1e1ef74bE, symObjAddr: 0xEAC, symBinAddr: 0x43ABC, symSize: 0x3C }
  - { offset: 0xD50CE, size: 0x8, addend: 0x0, symName: __ZN4core9ub_checks23maybe_is_nonoverlapping7runtime17h9cca2acc4dd720f7E, symObjAddr: 0xFE0, symBinAddr: 0x43AF8, symSize: 0xD8 }
  - { offset: 0xD612D, size: 0x8, addend: 0x0, symName: '__ZN4pyo33err5PyErr3new28_$u7b$$u7b$closure$u7d$$u7d$17h11eff4029f6121f9E', symObjAddr: 0x39D0, symBinAddr: 0x44A84, symSize: 0xC0 }
  - { offset: 0xD6185, size: 0x8, addend: 0x0, symName: '__ZN4pyo33err5PyErr3new28_$u7b$$u7b$closure$u7d$$u7d$17h32b63ec3a4647fd9E', symObjAddr: 0x3B50, symBinAddr: 0x44B44, symSize: 0xD4 }
  - { offset: 0xD61DE, size: 0x8, addend: 0x0, symName: '__ZN4pyo33err5PyErr3new28_$u7b$$u7b$closure$u7d$$u7d$17h33c4022a41de52bbE', symObjAddr: 0x3C24, symBinAddr: 0x44C18, symSize: 0xD4 }
  - { offset: 0xD6237, size: 0x8, addend: 0x0, symName: '__ZN4pyo33err5PyErr3new28_$u7b$$u7b$closure$u7d$$u7d$17h4c50eb0197f03b5aE', symObjAddr: 0x3CF8, symBinAddr: 0x44CEC, symSize: 0xD4 }
  - { offset: 0xD6290, size: 0x8, addend: 0x0, symName: '__ZN4pyo33err5PyErr3new28_$u7b$$u7b$closure$u7d$$u7d$17h579769322409e4ddE', symObjAddr: 0x3F60, symBinAddr: 0x44DC0, symSize: 0xC0 }
  - { offset: 0xD62E8, size: 0x8, addend: 0x0, symName: '__ZN4pyo33err5PyErr3new28_$u7b$$u7b$closure$u7d$$u7d$17ha0d428d7f9540efaE', symObjAddr: 0x469C, symBinAddr: 0x44E80, symSize: 0xC0 }
  - { offset: 0xD6340, size: 0x8, addend: 0x0, symName: '__ZN4pyo33err5PyErr3new28_$u7b$$u7b$closure$u7d$$u7d$17hce6dc614e646d5aaE', symObjAddr: 0x4BC8, symBinAddr: 0x44F40, symSize: 0xD4 }
  - { offset: 0xD639F, size: 0x8, addend: 0x0, symName: '__ZN4pyo33err5PyErr4take28_$u7b$$u7b$closure$u7d$$u7d$17h49d179d62654442bE', symObjAddr: 0x5460, symBinAddr: 0x45270, symSize: 0x7C }
  - { offset: 0xD63D8, size: 0x8, addend: 0x0, symName: '__ZN4pyo33err5PyErr4take28_$u7b$$u7b$closure$u7d$$u7d$17h8a4a8a14f1f7104bE', symObjAddr: 0x54DC, symBinAddr: 0x452EC, symSize: 0x64 }
  - { offset: 0xD6422, size: 0x8, addend: 0x0, symName: '__ZN4pyo33err5PyErr9set_cause28_$u7b$$u7b$closure$u7d$$u7d$17h3db0870e0e39432bE', symObjAddr: 0x5ACC, symBinAddr: 0x457BC, symSize: 0x38 }
  - { offset: 0xD64A7, size: 0x8, addend: 0x0, symName: '__ZN47_$LT$T$u20$as$u20$pyo3..err..PyErrArguments$GT$9arguments17h35c49d2ab0257ea4E', symObjAddr: 0x934, symBinAddr: 0x43960, symSize: 0x40 }
  - { offset: 0xD6512, size: 0x8, addend: 0x0, symName: '__ZN47_$LT$T$u20$as$u20$pyo3..err..PyErrArguments$GT$9arguments17h6d74c0dec3b6d57bE', symObjAddr: 0x974, symBinAddr: 0x439A0, symSize: 0x11C }
  - { offset: 0xD668B, size: 0x8, addend: 0x0, symName: __ZN4pyo33err17error_on_minusone17h10d511e50c551660E, symObjAddr: 0x13C4, symBinAddr: 0x43DF4, symSize: 0xC8 }
  - { offset: 0xD66DD, size: 0x8, addend: 0x0, symName: __ZN4pyo33err17error_on_minusone17hf8ddbe43ff456b7fE, symObjAddr: 0x1554, symBinAddr: 0x43EBC, symSize: 0xC8 }
  - { offset: 0xD672F, size: 0x8, addend: 0x0, symName: __ZN4pyo33err17panic_after_error17h394193406a16ebb5E, symObjAddr: 0x161C, symBinAddr: 0x43F84, symSize: 0x30 }
  - { offset: 0xD676A, size: 0x8, addend: 0x0, symName: '__ZN53_$LT$pyo3..err..PyErr$u20$as$u20$core..fmt..Debug$GT$3fmt17h5d49a645f31abacbE', symObjAddr: 0x6690, symBinAddr: 0x458CC, symSize: 0x38 }
  - { offset: 0xD67AC, size: 0x8, addend: 0x0, symName: '__ZN53_$LT$pyo3..err..PyErr$u20$as$u20$core..fmt..Debug$GT$3fmt28_$u7b$$u7b$closure$u7d$$u7d$17h5ce86fb0ff8a4c24E', symObjAddr: 0x66C8, symBinAddr: 0x45904, symSize: 0x16C }
  - { offset: 0xD6811, size: 0x8, addend: 0x0, symName: '__ZN55_$LT$pyo3..err..PyErr$u20$as$u20$core..fmt..Display$GT$3fmt17hb99e4ba38e67b07cE', symObjAddr: 0x6834, symBinAddr: 0x45A70, symSize: 0x2C }
  - { offset: 0xD6853, size: 0x8, addend: 0x0, symName: '__ZN55_$LT$pyo3..err..PyErr$u20$as$u20$core..fmt..Display$GT$3fmt28_$u7b$$u7b$closure$u7d$$u7d$17h613d8505ce0ab665E', symObjAddr: 0x6860, symBinAddr: 0x45A9C, symSize: 0x3B0 }
  - { offset: 0xD69BC, size: 0x8, addend: 0x0, symName: '__ZN55_$LT$pyo3..err..PyErr$u20$as$u20$core..fmt..Display$GT$3fmt28_$u7b$$u7b$closure$u7d$$u7d$28_$u7b$$u7b$closure$u7d$$u7d$17h440d5b056a666e0fE', symObjAddr: 0x6C10, symBinAddr: 0x45E4C, symSize: 0x1C }
  - { offset: 0xD69FD, size: 0x8, addend: 0x0, symName: '__ZN81_$LT$pyo3..err..PyDowncastErrorArguments$u20$as$u20$pyo3..err..PyErrArguments$GT$9arguments17h0108d30ac0022539E', symObjAddr: 0x6F60, symBinAddr: 0x45EB4, symSize: 0x208 }
  - { offset: 0xD6B06, size: 0x8, addend: 0x0, symName: '__ZN88_$LT$pyo3..err..PyErr$u20$as$u20$core..convert..From$LT$pyo3..err..DowncastError$GT$$GT$4from17h02d2efafb635babfE', symObjAddr: 0x7168, symBinAddr: 0x460BC, symSize: 0xE8 }
  - { offset: 0xD6B59, size: 0x8, addend: 0x0, symName: '__ZN92_$LT$pyo3..err..PyErr$u20$as$u20$core..convert..From$LT$pyo3..err..DowncastIntoError$GT$$GT$4from17h8d794c8516385603E', symObjAddr: 0x7278, symBinAddr: 0x461CC, symSize: 0xF4 }
  - { offset: 0xD70DE, size: 0x8, addend: 0x0, symName: '__ZN107_$LT$pyo3..instance..Bound$LT$pyo3..types..list..PyList$GT$$u20$as$u20$pyo3..types..list..PyListMethods$GT$6append5inner17h478dd3b609952b0eE', symObjAddr: 0xD4, symBinAddr: 0x437A0, symSize: 0x60 }
  - { offset: 0xD714C, size: 0x8, addend: 0x0, symName: '__ZN75_$LT$pyo3..types..list..PyList$u20$as$u20$pyo3..type_object..PyTypeInfo$GT$15type_object_raw17h2cb1305baca9716dE', symObjAddr: 0x6EF4, symBinAddr: 0x45E68, symSize: 0x24 }
  - { offset: 0xD7188, size: 0x8, addend: 0x0, symName: '__ZN75_$LT$pyo3..types..list..PyList$u20$as$u20$pyo3..type_object..PyTypeInfo$GT$15type_object_raw28_$u7b$$u7b$closure$u7d$$u7d$17h788d9eeaa0e9f5c8E', symObjAddr: 0x6F18, symBinAddr: 0x45E8C, symSize: 0x18 }
  - { offset: 0xD72F4, size: 0x8, addend: 0x0, symName: '__ZN152_$LT$core..result..Result$LT$pyo3..instance..Bound$LT$pyo3..types..any..PyAny$GT$$C$pyo3..err..PyErr$GT$$u20$as$u20$pyo3..py_result_ext..PyResultExt$GT$23downcast_into_unchecked28_$u7b$$u7b$closure$u7d$$u7d$17h596297a9f9af56ffE', symObjAddr: 0x44C, symBinAddr: 0x43800, symSize: 0x24 }
  - { offset: 0xD7333, size: 0x8, addend: 0x0, symName: '__ZN152_$LT$core..result..Result$LT$pyo3..instance..Bound$LT$pyo3..types..any..PyAny$GT$$C$pyo3..err..PyErr$GT$$u20$as$u20$pyo3..py_result_ext..PyResultExt$GT$23downcast_into_unchecked28_$u7b$$u7b$closure$u7d$$u7d$17h7679a08bff659b7bE', symObjAddr: 0x470, symBinAddr: 0x43824, symSize: 0x24 }
  - { offset: 0xD7397, size: 0x8, addend: 0x0, symName: '__ZN4pyo311conversions3std5slice82_$LT$impl$u20$pyo3..conversion..FromPyObjectBound$u20$for$u20$$RF$$u5b$u8$u5d$$GT$20from_py_object_bound17h6c64e0c5e52a862eE', symObjAddr: 0x10F0, symBinAddr: 0x43BD0, symSize: 0xAC }
  - { offset: 0xD73EF, size: 0x8, addend: 0x0, symName: __ZN4pyo311type_object10PyTypeInfo10is_type_of17he9887012a7dd40bbE, symObjAddr: 0x119C, symBinAddr: 0x43C7C, symSize: 0x50 }
  - { offset: 0xD742A, size: 0x8, addend: 0x0, symName: '__ZN52_$LT$T$u20$as$u20$pyo3..type_object..PyTypeCheck$GT$10type_check17hb5f711e847e02fd5E', symObjAddr: 0x666C, symBinAddr: 0x458A8, symSize: 0x24 }
  - { offset: 0xD76D5, size: 0x8, addend: 0x0, symName: '__ZN78_$LT$$u21$$u20$as$u20$std..sys..thread_local..native..lazy..DestroyedState$GT$13register_dtor17h9e457d7bd5fd6863E', symObjAddr: 0x6F50, symBinAddr: 0x45EA4, symSize: 0x10 }
  - { offset: 0xD7994, size: 0x8, addend: 0x0, symName: '__ZN3std4hash6random11RandomState3new28_$u7b$$u7b$closure$u7d$$u7d$17hdfc50231c9ddaee4E', symObjAddr: 0x844, symBinAddr: 0x438DC, symSize: 0x2C }
  - { offset: 0xD7A50, size: 0x8, addend: 0x0, symName: __ZN3std4hash6random11RandomState3new4KEYS27__rust_std_internal_init_fn17hb8c586b7495e1349E, symObjAddr: 0x870, symBinAddr: 0x43908, symSize: 0x24 }
  - { offset: 0xD7A72, size: 0x8, addend: 0x0, symName: '__ZN3std4hash6random11RandomState3new4KEYS29_$u7b$$u7b$constant$u7d$$u7d$28_$u7b$$u7b$closure$u7d$$u7d$17h57a144e0a7b7789aE', symObjAddr: 0x894, symBinAddr: 0x4392C, symSize: 0x34 }
  - { offset: 0xD7C2F, size: 0x8, addend: 0x0, symName: __ZN8pyo3_ffi10modsupport15PyModule_Create17h9f566e872152fb7bE, symObjAddr: 0x7250, symBinAddr: 0x461A4, symSize: 0x28 }
  - { offset: 0xD7FD8, size: 0x8, addend: 0x0, symName: '__ZN3std3sys12thread_local6native4lazy20Storage$LT$T$C$D$GT$11get_or_init17h46048b34e08f040aE', symObjAddr: 0x5D8, symBinAddr: 0x43848, symSize: 0x94 }
  - { offset: 0xD8204, size: 0x8, addend: 0x0, symName: '__ZN3std3sys12thread_local6native4lazy20Storage$LT$T$C$D$GT$16get_or_init_slow17h1746dbd4720d7846E', symObjAddr: 0x66C, symBinAddr: 0x9FA9C, symSize: 0x1D8 }
  - { offset: 0xD85BF, size: 0x8, addend: 0x0, symName: __ZN4pyo33err13DowncastError17new_from_borrowed17had55b71372aefe30E, symObjAddr: 0x11EC, symBinAddr: 0x43CCC, symSize: 0x68 }
  - { offset: 0xD8605, size: 0x8, addend: 0x0, symName: __ZN4pyo33err17DowncastIntoError10into_inner17h8a7329ad4add3070E, symObjAddr: 0x1304, symBinAddr: 0x43D34, symSize: 0x28 }
  - { offset: 0xD8628, size: 0x8, addend: 0x0, symName: __ZN4pyo33err17DowncastIntoError3new17h4eb074893aea0157E, symObjAddr: 0x132C, symBinAddr: 0x43D5C, symSize: 0x98 }
  - { offset: 0xD8661, size: 0x8, addend: 0x0, symName: __ZN4pyo33err5PyErr10from_state17hebf5c79ab3af8d2bE, symObjAddr: 0x1818, symBinAddr: 0x43FB4, symSize: 0x30 }
  - { offset: 0xD8685, size: 0x8, addend: 0x0, symName: __ZN4pyo33err5PyErr10from_value17h4099c0f641d2844bE, symObjAddr: 0x1848, symBinAddr: 0x43FE4, symSize: 0x1D8 }
  - { offset: 0xD8725, size: 0x8, addend: 0x0, symName: __ZN4pyo33err5PyErr10into_value17h92f2a6cc607bf20cE, symObjAddr: 0x1A20, symBinAddr: 0x441BC, symSize: 0x128 }
  - { offset: 0xD87B3, size: 0x8, addend: 0x0, symName: __ZN4pyo33err5PyErr10normalized17h68463b629a070365E, symObjAddr: 0x1B48, symBinAddr: 0x442E4, symSize: 0x24 }
  - { offset: 0xD87F1, size: 0x8, addend: 0x0, symName: __ZN4pyo33err5PyErr11is_instance17ha525aee88adeb7e1E, symObjAddr: 0x1B6C, symBinAddr: 0x44308, symSize: 0xA0 }
  - { offset: 0xD8882, size: 0x8, addend: 0x0, symName: __ZN4pyo33err5PyErr14is_instance_of17h88edcd533694a0dfE, symObjAddr: 0x20C0, symBinAddr: 0x443A8, symSize: 0x84 }
  - { offset: 0xD88C9, size: 0x8, addend: 0x0, symName: __ZN4pyo33err5PyErr16write_unraisable17h481b3876caaa6ff5E, symObjAddr: 0x22D0, symBinAddr: 0x4442C, symSize: 0x58 }
  - { offset: 0xD8924, size: 0x8, addend: 0x0, symName: __ZN4pyo33err5PyErr22print_panic_and_unwind17h424c13cfcac59afaE, symObjAddr: 0x2328, symBinAddr: 0x44484, symSize: 0x1AC }
  - { offset: 0xD899E, size: 0x8, addend: 0x0, symName: __ZN4pyo33err5PyErr3new17h099a9367890096ceE, symObjAddr: 0x2510, symBinAddr: 0x44630, symSize: 0x9C }
  - { offset: 0xD89FC, size: 0x8, addend: 0x0, symName: __ZN4pyo33err5PyErr3new17h18b04d815ff64926E, symObjAddr: 0x263C, symBinAddr: 0x446CC, symSize: 0xA0 }
  - { offset: 0xD8A5B, size: 0x8, addend: 0x0, symName: __ZN4pyo33err5PyErr3new17h301850406eac1f9dE, symObjAddr: 0x276C, symBinAddr: 0x4476C, symSize: 0xA0 }
  - { offset: 0xD8ABA, size: 0x8, addend: 0x0, symName: __ZN4pyo33err5PyErr3new17h623d7c048731f41aE, symObjAddr: 0x2CD0, symBinAddr: 0x4480C, symSize: 0x9C }
  - { offset: 0xD8B18, size: 0x8, addend: 0x0, symName: __ZN4pyo33err5PyErr3new17hca7e9499010532e5E, symObjAddr: 0x3408, symBinAddr: 0x448A8, symSize: 0x9C }
  - { offset: 0xD8B76, size: 0x8, addend: 0x0, symName: __ZN4pyo33err5PyErr3new17he5d32e63e7478ccfE, symObjAddr: 0x34A4, symBinAddr: 0x44944, symSize: 0xA0 }
  - { offset: 0xD8BD5, size: 0x8, addend: 0x0, symName: __ZN4pyo33err5PyErr3new17hf9b44b363147fbaaE, symObjAddr: 0x3704, symBinAddr: 0x449E4, symSize: 0xA0 }
  - { offset: 0xD8C34, size: 0x8, addend: 0x0, symName: __ZN4pyo33err5PyErr4take17h107daa1195de88cbE, symObjAddr: 0x5204, symBinAddr: 0x45014, symSize: 0x25C }
  - { offset: 0xD8D00, size: 0x8, addend: 0x0, symName: __ZN4pyo33err5PyErr5cause17hd40aea42c0fdd2dfE, symObjAddr: 0x55B4, symBinAddr: 0x45350, symSize: 0x44 }
  - { offset: 0xD8D5C, size: 0x8, addend: 0x0, symName: __ZN4pyo33err5PyErr5fetch17h4c9f476c4106f144E, symObjAddr: 0x55F8, symBinAddr: 0x45394, symSize: 0x5C }
  - { offset: 0xD8D98, size: 0x8, addend: 0x0, symName: __ZN4pyo33err5PyErr5value17heb50d87f1877038cE, symObjAddr: 0x5690, symBinAddr: 0x453F0, symSize: 0x28 }
  - { offset: 0xD8DD6, size: 0x8, addend: 0x0, symName: __ZN4pyo33err5PyErr7restore17h333fadcd6fb9a8c4E, symObjAddr: 0x56E4, symBinAddr: 0x45418, symSize: 0x38 }
  - { offset: 0xD8E15, size: 0x8, addend: 0x0, symName: __ZN4pyo33err5PyErr8get_type17h5ff52a1fd60d1d71E, symObjAddr: 0x571C, symBinAddr: 0x45450, symSize: 0x28 }
  - { offset: 0xD8E6D, size: 0x8, addend: 0x0, symName: __ZN4pyo33err5PyErr8new_type17hc66f19cc6e6b9845E, symObjAddr: 0x5744, symBinAddr: 0x45478, symSize: 0x1E0 }
  - { offset: 0xD8FC1, size: 0x8, addend: 0x0, symName: __ZN4pyo33err5PyErr9set_cause17hd35f541c8268dce4E, symObjAddr: 0x5968, symBinAddr: 0x45658, symSize: 0x164 }
  - { offset: 0xD9051, size: 0x8, addend: 0x0, symName: __ZN4pyo33err5PyErr9traceback17ha43e7c8295f4f7cfE, symObjAddr: 0x5B04, symBinAddr: 0x457F4, symSize: 0x28 }
  - { offset: 0xD909C, size: 0x8, addend: 0x0, symName: __ZN4pyo35types4list6PyList5empty17h44f90dbbe6555410E, symObjAddr: 0x624C, symBinAddr: 0x4581C, symSize: 0x30 }
  - { offset: 0xD90D6, size: 0x8, addend: 0x0, symName: __ZN4pyo35types4none6PyNone3get17h9ae8faf2f5d0916cE, symObjAddr: 0x62A0, symBinAddr: 0x4584C, symSize: 0x2C }
  - { offset: 0xD9480, size: 0x8, addend: 0x0, symName: '__ZN4pyo35types5tuple74_$LT$impl$u20$pyo3..conversion..IntoPyObject$u20$for$u20$$LP$T0$C$$RP$$GT$13into_pyobject17h3aa3bbbec6bdc59fE', symObjAddr: 0x333C, symBinAddr: 0x46C10, symSize: 0xD8 }
  - { offset: 0xD98CB, size: 0x8, addend: 0x0, symName: '__ZN47_$LT$T$u20$as$u20$pyo3..err..PyErrArguments$GT$9arguments17h69a062fa00876462E', symObjAddr: 0x16B0, symBinAddr: 0x46788, symSize: 0x4C }
  - { offset: 0xD9939, size: 0x8, addend: 0x0, symName: '__ZN47_$LT$T$u20$as$u20$pyo3..err..PyErrArguments$GT$9arguments17h9feea5ef86406a86E', symObjAddr: 0x16FC, symBinAddr: 0x467D4, symSize: 0x128 }
  - { offset: 0xD9A6C, size: 0x8, addend: 0x0, symName: __ZN4pyo310conversion15IntoPyObjectExt17into_bound_py_any17hc86c99bb04712deeE, symObjAddr: 0x287C, symBinAddr: 0x46A4C, symSize: 0x60 }
  - { offset: 0xD9AF3, size: 0x8, addend: 0x0, symName: '__ZN4pyo311conversions3std6string82_$LT$impl$u20$pyo3..conversion..IntoPyObject$u20$for$u20$alloc..string..String$GT$13into_pyobject17h030ef38e34016f36E', symObjAddr: 0x2A0C, symBinAddr: 0x46AAC, symSize: 0x74 }
  - { offset: 0xD9B42, size: 0x8, addend: 0x0, symName: __ZN4pyo315internal_tricks12ptr_from_ref17h05ccf71ddc84504bE, symObjAddr: 0x2B08, symBinAddr: 0x46B20, symSize: 0x14 }
  - { offset: 0xD9B77, size: 0x8, addend: 0x0, symName: __ZN4pyo315internal_tricks12ptr_from_ref17h0e4b944305cc7b2bE, symObjAddr: 0x2B30, symBinAddr: 0x46B34, symSize: 0x14 }
  - { offset: 0xD9BAC, size: 0x8, addend: 0x0, symName: __ZN4pyo315internal_tricks12ptr_from_ref17h0f3b6540d7c4ded1E, symObjAddr: 0x2B44, symBinAddr: 0x46B48, symSize: 0x14 }
  - { offset: 0xD9BE1, size: 0x8, addend: 0x0, symName: __ZN4pyo315internal_tricks12ptr_from_ref17h1483d5c1a412ab45E, symObjAddr: 0x2B6C, symBinAddr: 0x46B5C, symSize: 0x14 }
  - { offset: 0xD9C16, size: 0x8, addend: 0x0, symName: __ZN4pyo315internal_tricks12ptr_from_ref17h1cf189b95361a8c8E, symObjAddr: 0x2B80, symBinAddr: 0x46B70, symSize: 0x14 }
  - { offset: 0xD9C4B, size: 0x8, addend: 0x0, symName: __ZN4pyo315internal_tricks12ptr_from_ref17h1d8d03113a67f62fE, symObjAddr: 0x2B94, symBinAddr: 0x46B84, symSize: 0x14 }
  - { offset: 0xD9C80, size: 0x8, addend: 0x0, symName: __ZN4pyo315internal_tricks12ptr_from_ref17h2ca608ee6eb7a11dE, symObjAddr: 0x2BD0, symBinAddr: 0x46B98, symSize: 0x14 }
  - { offset: 0xD9CB5, size: 0x8, addend: 0x0, symName: __ZN4pyo315internal_tricks12ptr_from_ref17ha81d7dc84b03b801E, symObjAddr: 0x2C0C, symBinAddr: 0x46BAC, symSize: 0x14 }
  - { offset: 0xD9CEA, size: 0x8, addend: 0x0, symName: __ZN4pyo315internal_tricks12ptr_from_ref17hc5875506e564d52fE, symObjAddr: 0x2C48, symBinAddr: 0x46BC0, symSize: 0x14 }
  - { offset: 0xD9D1F, size: 0x8, addend: 0x0, symName: __ZN4pyo315internal_tricks12ptr_from_ref17he62b7bcd11eec929E, symObjAddr: 0x2C98, symBinAddr: 0x46BD4, symSize: 0x14 }
  - { offset: 0xD9D54, size: 0x8, addend: 0x0, symName: __ZN4pyo315internal_tricks12ptr_from_ref17hea51a75c36219a44E, symObjAddr: 0x2CAC, symBinAddr: 0x46BE8, symSize: 0x14 }
  - { offset: 0xD9D89, size: 0x8, addend: 0x0, symName: __ZN4pyo315internal_tricks12ptr_from_ref17hff98a50fff2ec401E, symObjAddr: 0x2CC0, symBinAddr: 0x46BFC, symSize: 0x14 }
  - { offset: 0xDAC16, size: 0x8, addend: 0x0, symName: '__ZN70_$LT$core..num..error..TryFromIntError$u20$as$u20$core..fmt..Debug$GT$3fmt17h1408c23d493875e9E', symObjAddr: 0x3EE4, symBinAddr: 0x47110, symSize: 0x54 }
  - { offset: 0xDB5C5, size: 0x8, addend: 0x0, symName: '__ZN110_$LT$core..iter..adapters..enumerate..Enumerate$LT$I$GT$$u20$as$u20$core..iter..traits..iterator..Iterator$GT$4next17h8898beb9f7b951f2E', symObjAddr: 0x678, symBinAddr: 0x463FC, symSize: 0xEC }
  - { offset: 0xDB6AB, size: 0x8, addend: 0x0, symName: '__ZN110_$LT$core..iter..adapters..enumerate..Enumerate$LT$I$GT$$u20$as$u20$core..iter..traits..iterator..Iterator$GT$4next17hc48fa872f91d6aebE', symObjAddr: 0xA28, symBinAddr: 0x464E8, symSize: 0xE0 }
  - { offset: 0xDB895, size: 0x8, addend: 0x0, symName: '__ZN63_$LT$I$u20$as$u20$core..iter..traits..collect..IntoIterator$GT$9into_iter17h92b028804b937419E', symObjAddr: 0x3B84, symBinAddr: 0x470C4, symSize: 0x18 }
  - { offset: 0xDB8CC, size: 0x8, addend: 0x0, symName: '__ZN63_$LT$I$u20$as$u20$core..iter..traits..collect..IntoIterator$GT$9into_iter17h9c978422deb59153E', symObjAddr: 0x3B9C, symBinAddr: 0x470DC, symSize: 0x14 }
  - { offset: 0xDB94D, size: 0x8, addend: 0x0, symName: '__ZN4core5slice29_$LT$impl$u20$$u5b$T$u5d$$GT$4iter17h2e0122ac58a5362bE', symObjAddr: 0x2854, symBinAddr: 0x46A24, symSize: 0x28 }
  - { offset: 0xDBB64, size: 0x8, addend: 0x0, symName: '__ZN118_$LT$$u5b$core..mem..maybe_uninit..MaybeUninit$LT$T$GT$$u5d$$u20$as$u20$core..array..iter..iter_inner..PartialDrop$GT$12partial_drop17hcbc2b90d8aa6e8a3E', symObjAddr: 0xB08, symBinAddr: 0x465C8, symSize: 0xA0 }
  - { offset: 0xDBC64, size: 0x8, addend: 0x0, symName: '__ZN129_$LT$$u5b$core..mem..maybe_uninit..MaybeUninit$LT$T$GT$$u3b$$u20$N$u5d$$u20$as$u20$core..array..iter..iter_inner..PartialDrop$GT$12partial_drop17h94b65e10089b7696E', symObjAddr: 0xBF4, symBinAddr: 0x46668, symSize: 0x4C }
  - { offset: 0xDBD45, size: 0x8, addend: 0x0, symName: '__ZN36_$LT$T$u20$as$u20$core..any..Any$GT$7type_id17hc69df4da7ac2cd49E', symObjAddr: 0xE1C, symBinAddr: 0x46720, symSize: 0x20 }
  - { offset: 0xDBEC2, size: 0x8, addend: 0x0, symName: __ZN4core3fmt5Write9write_fmt17h5aff7854f1aab1afE, symObjAddr: 0x2488, symBinAddr: 0x469F0, symSize: 0x34 }
  - { offset: 0xDBF0F, size: 0x8, addend: 0x0, symName: '__ZN75_$LT$$RF$mut$u20$W$u20$as$u20$core..fmt..Write..write_fmt..SpecWriteFmt$GT$14spec_write_fmt17h13cb05395b9dde64E', symObjAddr: 0x3F38, symBinAddr: 0x47164, symSize: 0x98 }
  - { offset: 0xDC56D, size: 0x8, addend: 0x0, symName: '__ZN45_$LT$T$u20$as$u20$alloc..string..ToString$GT$9to_string17h2db237a99af86445E', symObjAddr: 0x14DC, symBinAddr: 0x46740, symSize: 0x24 }
  - { offset: 0xDC5A4, size: 0x8, addend: 0x0, symName: '__ZN45_$LT$T$u20$as$u20$alloc..string..ToString$GT$9to_string17h4281885a93b974dbE', symObjAddr: 0x1548, symBinAddr: 0x46764, symSize: 0x24 }
  - { offset: 0xDC5E1, size: 0x8, addend: 0x0, symName: '__ZN49_$LT$T$u20$as$u20$alloc..string..SpecToString$GT$14spec_to_string17hb127d97325566b9fE', symObjAddr: 0x22A0, symBinAddr: 0x468FC, symSize: 0xF4 }
  - { offset: 0xDC6CF, size: 0x8, addend: 0x0, symName: '__ZN76_$LT$alloc..string..String$u20$as$u20$core..convert..From$LT$$RF$str$GT$$GT$4from17hf465546be721e62fE', symObjAddr: 0x3FD0, symBinAddr: 0x471FC, symSize: 0x50 }
  - { offset: 0xDC7BC, size: 0x8, addend: 0x0, symName: '__ZN55_$LT$$RF$str$u20$as$u20$alloc..string..SpecToString$GT$14spec_to_string17haa8ccb378c9f5888E', symObjAddr: 0x3540, symBinAddr: 0x46CE8, symSize: 0x5C }
  - { offset: 0xDC8E5, size: 0x8, addend: 0x0, symName: '__ZN58_$LT$alloc..string..String$u20$as$u20$core..fmt..Write$GT$10write_char17hce2293a132fa2618E', symObjAddr: 0x359C, symBinAddr: 0x46D44, symSize: 0x30 }
  - { offset: 0xDC922, size: 0x8, addend: 0x0, symName: '__ZN58_$LT$alloc..string..String$u20$as$u20$core..fmt..Write$GT$9write_str17hc17aa11e5e427e2dE', symObjAddr: 0x35CC, symBinAddr: 0x46D74, symSize: 0x38 }
  - { offset: 0xDC9B0, size: 0x8, addend: 0x0, symName: '__ZN65_$LT$alloc..string..String$u20$as$u20$core..ops..deref..Deref$GT$5deref17habe886e6f410f9b9E', symObjAddr: 0x3C68, symBinAddr: 0x470F0, symSize: 0x20 }
  - { offset: 0xDCA6F, size: 0x8, addend: 0x0, symName: '__ZN60_$LT$alloc..string..String$u20$as$u20$core..fmt..Display$GT$3fmt17h43b608c410dee746E', symObjAddr: 0x3AE8, symBinAddr: 0x47088, symSize: 0x3C }
  - { offset: 0xDCCFA, size: 0x8, addend: 0x0, symName: '__ZN103_$LT$alloc..vec..into_iter..IntoIter$LT$T$C$A$GT$$u20$as$u20$core..iter..traits..iterator..Iterator$GT$4next17h1d45f13016549283E', symObjAddr: 0x248, symBinAddr: 0x462C0, symSize: 0x88 }
  - { offset: 0xDCE54, size: 0x8, addend: 0x0, symName: '__ZN103_$LT$alloc..vec..into_iter..IntoIter$LT$T$C$A$GT$$u20$as$u20$core..iter..traits..iterator..Iterator$GT$9size_hint17ha2766a13c5b61d47E', symObjAddr: 0x4C0, symBinAddr: 0x46348, symSize: 0xB4 }
  - { offset: 0xDCF7D, size: 0x8, addend: 0x0, symName: '__ZN157_$LT$$LT$alloc..vec..into_iter..IntoIter$LT$T$C$A$GT$$u20$as$u20$core..ops..drop..Drop$GT$..drop..DropGuard$LT$T$C$A$GT$$u20$as$u20$core..ops..drop..Drop$GT$4drop17h8e60d2ef2b4735b5E', symObjAddr: 0xD44, symBinAddr: 0x466B4, symSize: 0x6C }
  - { offset: 0xDD0E9, size: 0x8, addend: 0x0, symName: '__ZN86_$LT$alloc..vec..into_iter..IntoIter$LT$T$C$A$GT$$u20$as$u20$core..ops..drop..Drop$GT$4drop17h3b6f2ad55d47a143E', symObjAddr: 0x4020, symBinAddr: 0x4724C, symSize: 0x64 }
  - { offset: 0xDD4B2, size: 0x8, addend: 0x0, symName: '__ZN5alloc3str83_$LT$impl$u20$core..borrow..Borrow$LT$str$GT$$u20$for$u20$alloc..string..String$GT$6borrow17hf21cf00ffc0a35ffE', symObjAddr: 0x3618, symBinAddr: 0x46DAC, symSize: 0x20 }
  - { offset: 0xDD664, size: 0x8, addend: 0x0, symName: '__ZN87_$LT$T$u20$as$u20$alloc..slice..$LT$impl$u20$$u5b$T$u5d$$GT$..to_vec_in..ConvertVec$GT$6to_vec17hc29e5d5ca0f1d815E', symObjAddr: 0x4174, symBinAddr: 0x472B0, symSize: 0xF4 }
  - { offset: 0xDDF12, size: 0x8, addend: 0x0, symName: '__ZN5alloc3vec9into_iter21IntoIter$LT$T$C$A$GT$16as_raw_mut_slice17h5906167a73609954E', symObjAddr: 0x3638, symBinAddr: 0x46DCC, symSize: 0xCC }
  - { offset: 0xDE195, size: 0x8, addend: 0x0, symName: __ZN5alloc6string6String4push17h9af225faf933c355E, symObjAddr: 0x38F8, symBinAddr: 0x46E98, symSize: 0x114 }
  - { offset: 0xDE537, size: 0x8, addend: 0x0, symName: __ZN5alloc6string6String8push_str17h58817ced20d22f3eE, symObjAddr: 0x3A0C, symBinAddr: 0x46FAC, symSize: 0xDC }
  - { offset: 0xDED69, size: 0x8, addend: 0x0, symName: '__ZN31_$LT$dyn$u20$core..any..Any$GT$12downcast_ref17h271e2f1bdda893faE', symObjAddr: 0x0, symBinAddr: 0x473A4, symSize: 0xA4 }
  - { offset: 0xDEDD5, size: 0x8, addend: 0x0, symName: '__ZN3std3sys4sync5mutex7pthread5Mutex3get28_$u7b$$u7b$closure$u7d$$u7d$17h7e956af44ccc6fa7E', symObjAddr: 0x388, symBinAddr: 0x474EC, symSize: 0xF4 }
  - { offset: 0xDF1C1, size: 0x8, addend: 0x0, symName: '__ZN31_$LT$dyn$u20$core..any..Any$GT$12downcast_ref17h271e2f1bdda893faE', symObjAddr: 0x0, symBinAddr: 0x473A4, symSize: 0xA4 }
  - { offset: 0xDF2B2, size: 0x8, addend: 0x0, symName: '__ZN31_$LT$dyn$u20$core..any..Any$GT$12downcast_ref17h28043c70cb3c847eE', symObjAddr: 0xA4, symBinAddr: 0x47448, symSize: 0xA4 }
  - { offset: 0xDF41D, size: 0x8, addend: 0x0, symName: '__ZN54_$LT$dyn$u20$core..any..Any$u2b$core..marker..Send$GT$12downcast_ref17h916c4ce7a27610a4E', symObjAddr: 0x370C, symBinAddr: 0x47D00, symSize: 0x2C }
  - { offset: 0xDF454, size: 0x8, addend: 0x0, symName: '__ZN54_$LT$dyn$u20$core..any..Any$u2b$core..marker..Send$GT$12downcast_ref17hd22da5b30008cb0aE', symObjAddr: 0x3738, symBinAddr: 0x47D2C, symSize: 0x2C }
  - { offset: 0xDF5F8, size: 0x8, addend: 0x0, symName: '__ZN4core3ptr9const_ptr33_$LT$impl$u20$$BP$const$u20$T$GT$20offset_from_unsigned18precondition_check17h69368a3d573a2af8E', symObjAddr: 0x1468, symBinAddr: 0x47948, symSize: 0x60 }
  - { offset: 0xDF64C, size: 0x8, addend: 0x0, symName: '__ZN4core3ptr9const_ptr33_$LT$impl$u20$$BP$const$u20$T$GT$7is_null17h87cb41b8a4cf16b6E', symObjAddr: 0x14E0, symBinAddr: 0x479A8, symSize: 0x18 }
  - { offset: 0xDF708, size: 0x8, addend: 0x0, symName: '__ZN4core3ptr7mut_ptr31_$LT$impl$u20$$BP$mut$u20$T$GT$7is_null17h75bfa9b8b189b4d6E', symObjAddr: 0x1450, symBinAddr: 0x47930, symSize: 0x18 }
  - { offset: 0xDFE86, size: 0x8, addend: 0x0, symName: '__ZN53_$LT$core..fmt..Error$u20$as$u20$core..fmt..Debug$GT$3fmt17h19087cc076960eabE', symObjAddr: 0x36CC, symBinAddr: 0x47CC0, symSize: 0x40 }
  - { offset: 0xDFEC7, size: 0x8, addend: 0x0, symName: __ZN4core10intrinsics11rotate_left17h97a9e1c1fce0c48fE, symObjAddr: 0xE3C, symBinAddr: 0x475E0, symSize: 0x54 }
  - { offset: 0xE0500, size: 0x8, addend: 0x0, symName: '__ZN4core3str21_$LT$impl$u20$str$GT$3len17he78aa0308214cdd7E', symObjAddr: 0x16DC, symBinAddr: 0x479C0, symSize: 0x1C }
  - { offset: 0xE0532, size: 0x8, addend: 0x0, symName: __ZN4core3str8converts19from_utf8_unchecked17h56bf4b77643f7862E, symObjAddr: 0x194C, symBinAddr: 0x479DC, symSize: 0x18 }
  - { offset: 0xE062B, size: 0x8, addend: 0x0, symName: __ZN4core4hash3sip9u8to64_le17h261ff4b0af69543eE, symObjAddr: 0x19F0, symBinAddr: 0x47A80, symSize: 0x240 }
  - { offset: 0xE07E8, size: 0x8, addend: 0x0, symName: '__ZN69_$LT$core..hash..sip..Sip13Rounds$u20$as$u20$core..hash..sip..Sip$GT$8c_rounds17he1d0978548d737c1E', symObjAddr: 0x38BC, symBinAddr: 0x47D58, symSize: 0x1A0 }
  - { offset: 0xE095D, size: 0x8, addend: 0x0, symName: '__ZN69_$LT$core..hash..sip..Sip13Rounds$u20$as$u20$core..hash..sip..Sip$GT$8d_rounds17h814da47685b3c187E', symObjAddr: 0x3A5C, symBinAddr: 0x47EF8, symSize: 0x46C }
  - { offset: 0xE0D9A, size: 0x8, addend: 0x0, symName: '__ZN71_$LT$core..hash..sip..Hasher$LT$S$GT$$u20$as$u20$core..hash..Hasher$GT$5write17hea834efabc807506E', symObjAddr: 0x3EC8, symBinAddr: 0x48364, symSize: 0x230 }
  - { offset: 0xE0F13, size: 0x8, addend: 0x0, symName: '__ZN71_$LT$core..hash..sip..Hasher$LT$S$GT$$u20$as$u20$core..hash..Hasher$GT$6finish17h141a609f40c77aaaE', symObjAddr: 0x40F8, symBinAddr: 0x48594, symSize: 0xA0 }
  - { offset: 0xE10EA, size: 0x8, addend: 0x0, symName: __ZN8pyo3_ffi6object10Py_IS_TYPE17h795d5020c36d0747E, symObjAddr: 0x42D0, symBinAddr: 0x4870C, symSize: 0x38 }
  - { offset: 0xE1124, size: 0x8, addend: 0x0, symName: __ZN8pyo3_ffi6object12PyType_Check17hc0ef9e5bb2b557fdE, symObjAddr: 0x434C, symBinAddr: 0x48744, symSize: 0x30 }
  - { offset: 0xE1152, size: 0x8, addend: 0x0, symName: __ZN8pyo3_ffi6object17PyType_HasFeature17h6e675184361fcad9E, symObjAddr: 0x437C, symBinAddr: 0x48774, symSize: 0x3C }
  - { offset: 0xE11AD, size: 0x8, addend: 0x0, symName: __ZN8pyo3_ffi6object18PyObject_TypeCheck17h306885e0d331e5a0E, symObjAddr: 0x43C4, symBinAddr: 0x487B0, symSize: 0x70 }
  - { offset: 0xE11EA, size: 0x8, addend: 0x0, symName: __ZN8pyo3_ffi6object19PyType_FastSubclass17h7875283aeb0a543dE, symObjAddr: 0x4434, symBinAddr: 0x48820, symSize: 0x28 }
  - { offset: 0xE1227, size: 0x8, addend: 0x0, symName: __ZN8pyo3_ffi6object7Py_None17h010c1a30aa85007fE, symObjAddr: 0x445C, symBinAddr: 0x48848, symSize: 0xC }
  - { offset: 0xE1245, size: 0x8, addend: 0x0, symName: __ZN8pyo3_ffi6object7Py_TYPE17hc9cc7453340ed647E, symObjAddr: 0x4468, symBinAddr: 0x48854, symSize: 0x74 }
  - { offset: 0xE1277, size: 0x8, addend: 0x0, symName: __ZN8pyo3_ffi8pyerrors22PyExceptionClass_Check17h194054f14e220b75E, symObjAddr: 0x4550, symBinAddr: 0x488C8, symSize: 0x60 }
  - { offset: 0xE161A, size: 0x8, addend: 0x0, symName: '__ZN87_$LT$$BP$mut$u20$pyo3_ffi..object..PyObject$u20$as$u20$pyo3..ffi_ptr_ext..FfiPtrExt$GT$12assume_owned17he10204997beaa3f1E', symObjAddr: 0x41D4, symBinAddr: 0x48634, symSize: 0x24 }
  - { offset: 0xE165F, size: 0x8, addend: 0x0, symName: '__ZN87_$LT$$BP$mut$u20$pyo3_ffi..object..PyObject$u20$as$u20$pyo3..ffi_ptr_ext..FfiPtrExt$GT$15assume_borrowed17h0e7cf0b8d1a2c4f5E', symObjAddr: 0x41F8, symBinAddr: 0x48658, symSize: 0x24 }
  - { offset: 0xE16A4, size: 0x8, addend: 0x0, symName: '__ZN87_$LT$$BP$mut$u20$pyo3_ffi..object..PyObject$u20$as$u20$pyo3..ffi_ptr_ext..FfiPtrExt$GT$19assume_owned_or_err17h8080168ed479738fE', symObjAddr: 0x421C, symBinAddr: 0x4867C, symSize: 0x24 }
  - { offset: 0xE16E9, size: 0x8, addend: 0x0, symName: '__ZN87_$LT$$BP$mut$u20$pyo3_ffi..object..PyObject$u20$as$u20$pyo3..ffi_ptr_ext..FfiPtrExt$GT$19assume_owned_or_opt17hd3feb4c9f030bfbdE', symObjAddr: 0x4240, symBinAddr: 0x486A0, symSize: 0x24 }
  - { offset: 0xE172E, size: 0x8, addend: 0x0, symName: '__ZN87_$LT$$BP$mut$u20$pyo3_ffi..object..PyObject$u20$as$u20$pyo3..ffi_ptr_ext..FfiPtrExt$GT$22assume_borrowed_or_err17hd69a20f6bedcc4afE', symObjAddr: 0x4264, symBinAddr: 0x486C4, symSize: 0x24 }
  - { offset: 0xE1773, size: 0x8, addend: 0x0, symName: '__ZN87_$LT$$BP$mut$u20$pyo3_ffi..object..PyObject$u20$as$u20$pyo3..ffi_ptr_ext..FfiPtrExt$GT$25assume_borrowed_unchecked17h0496bb22af536978E', symObjAddr: 0x42AC, symBinAddr: 0x486E8, symSize: 0x24 }
  - { offset: 0xE1B04, size: 0x8, addend: 0x0, symName: __ZN4core3fmt9Arguments23as_statically_known_str17h913156d61eb4e52cE, symObjAddr: 0xF6C, symBinAddr: 0x47634, symSize: 0x104 }
  - { offset: 0xE1C12, size: 0x8, addend: 0x0, symName: __ZN4core3fmt9Arguments3new17h02cfa3d94a7b6a65E, symObjAddr: 0x1070, symBinAddr: 0x47738, symSize: 0x1C }
  - { offset: 0xE1CAC, size: 0x8, addend: 0x0, symName: __ZN4core3fmt9Arguments3new17h12218aa57f7f6357E, symObjAddr: 0x10A8, symBinAddr: 0x47754, symSize: 0x1C }
  - { offset: 0xE1D12, size: 0x8, addend: 0x0, symName: __ZN4core3fmt9Arguments3new17h3bb9dc76659e5ba6E, symObjAddr: 0x10C4, symBinAddr: 0x47770, symSize: 0x1C }
  - { offset: 0xE1D92, size: 0x8, addend: 0x0, symName: __ZN4core3fmt9Arguments3new17h89030158e6ed2ac1E, symObjAddr: 0x1118, symBinAddr: 0x4778C, symSize: 0x1C }
  - { offset: 0xE1DF8, size: 0x8, addend: 0x0, symName: __ZN4core3fmt9Arguments3new17h8caaf061786a641cE, symObjAddr: 0x1150, symBinAddr: 0x477A8, symSize: 0x1C }
  - { offset: 0xE1E51, size: 0x8, addend: 0x0, symName: __ZN4core3fmt9Arguments3new17h9ebff71c367d0f4eE, symObjAddr: 0x11A4, symBinAddr: 0x477C4, symSize: 0x1C }
  - { offset: 0xE1E9D, size: 0x8, addend: 0x0, symName: __ZN4core3fmt9Arguments3new17ha9917da83667560eE, symObjAddr: 0x11DC, symBinAddr: 0x477E0, symSize: 0x1C }
  - { offset: 0xE1F1D, size: 0x8, addend: 0x0, symName: __ZN4core3fmt9Arguments3new17hb47981d6c65eaf9aE, symObjAddr: 0x1230, symBinAddr: 0x477FC, symSize: 0x1C }
  - { offset: 0xE1F83, size: 0x8, addend: 0x0, symName: __ZN4core3fmt9Arguments3new17hbbd867c38a44088bE, symObjAddr: 0x1268, symBinAddr: 0x47818, symSize: 0x1C }
  - { offset: 0xE1FCF, size: 0x8, addend: 0x0, symName: __ZN4core3fmt9Arguments3new17hbd1e4d65ebdcca5dE, symObjAddr: 0x1284, symBinAddr: 0x47834, symSize: 0x1C }
  - { offset: 0xE201B, size: 0x8, addend: 0x0, symName: __ZN4core3fmt9Arguments3new17hbe6bfd722331735fE, symObjAddr: 0x12A0, symBinAddr: 0x47850, symSize: 0x1C }
  - { offset: 0xE20E9, size: 0x8, addend: 0x0, symName: __ZN4core3fmt9Arguments8from_str17h35872409f524541cE, symObjAddr: 0x1364, symBinAddr: 0x4786C, symSize: 0x20 }
  - { offset: 0xE210C, size: 0x8, addend: 0x0, symName: __ZN4core3fmt9Formatter9write_fmt17hc99d245b6bad77b2E, symObjAddr: 0x1384, symBinAddr: 0x4788C, symSize: 0xA4 }
  - { offset: 0xE21B1, size: 0x8, addend: 0x0, symName: '__ZN4core4hash3sip15Hasher$LT$S$GT$5reset17hedafe706de2ab798E', symObjAddr: 0x1964, symBinAddr: 0x479F4, symSize: 0x8C }
  - { offset: 0xE233A, size: 0x8, addend: 0x0, symName: '__ZN100_$LT$core..iter..adapters..take..Take$LT$I$GT$$u20$as$u20$core..iter..traits..iterator..Iterator$GT$4next17h657e3a7ac14d91ebE', symObjAddr: 0x0, symBinAddr: 0x48928, symSize: 0x58 }
  - { offset: 0xE2E78, size: 0x8, addend: 0x0, symName: __ZN4core3str11validations15next_code_point17h831d5e78ca87c155E, symObjAddr: 0x1554, symBinAddr: 0x48C04, symSize: 0x224 }
  - { offset: 0xE3920, size: 0x8, addend: 0x0, symName: '__ZN100_$LT$core..iter..adapters..take..Take$LT$I$GT$$u20$as$u20$core..iter..traits..iterator..Iterator$GT$4next17h657e3a7ac14d91ebE', symObjAddr: 0x0, symBinAddr: 0x48928, symSize: 0x58 }
  - { offset: 0xE3955, size: 0x8, addend: 0x0, symName: '__ZN100_$LT$core..iter..adapters..take..Take$LT$I$GT$$u20$as$u20$core..iter..traits..iterator..Iterator$GT$9size_hint17h2feaea2c607255b7E', symObjAddr: 0x58, symBinAddr: 0x48980, symSize: 0x100 }
  - { offset: 0xE3A5E, size: 0x8, addend: 0x0, symName: '__ZN115_$LT$core..iter..adapters..filter_map..FilterMap$LT$I$C$F$GT$$u20$as$u20$core..iter..traits..iterator..Iterator$GT$4next17h5abfb47709e9f490E', symObjAddr: 0x448, symBinAddr: 0x48AFC, symSize: 0x2C }
  - { offset: 0xE3AA5, size: 0x8, addend: 0x0, symName: '__ZN115_$LT$core..iter..adapters..filter_map..FilterMap$LT$I$C$F$GT$$u20$as$u20$core..iter..traits..iterator..Iterator$GT$4next17hdfc9a2d618a77661E', symObjAddr: 0x474, symBinAddr: 0x48B28, symSize: 0x2C }
  - { offset: 0xE3AEC, size: 0x8, addend: 0x0, symName: '__ZN115_$LT$core..iter..adapters..filter_map..FilterMap$LT$I$C$F$GT$$u20$as$u20$core..iter..traits..iterator..Iterator$GT$9size_hint17h6877089a26dba418E', symObjAddr: 0x4A0, symBinAddr: 0x48B54, symSize: 0x4C }
  - { offset: 0xE3B50, size: 0x8, addend: 0x0, symName: '__ZN115_$LT$core..iter..adapters..filter_map..FilterMap$LT$I$C$F$GT$$u20$as$u20$core..iter..traits..iterator..Iterator$GT$9size_hint17hd0a88d4fd54d1763E', symObjAddr: 0x4EC, symBinAddr: 0x48BA0, symSize: 0x4C }
  - { offset: 0xE3D14, size: 0x8, addend: 0x0, symName: __ZN4core4iter8adapters3zip27TrustedRandomAccessNoCoerce4size17h3029e4c5d4eab6ffE, symObjAddr: 0x1BAC, symBinAddr: 0x4901C, symSize: 0x2C }
  - { offset: 0xE3D4B, size: 0x8, addend: 0x0, symName: __ZN4core4iter8adapters3zip27TrustedRandomAccessNoCoerce4size17hdb9cbfd782ad341dE, symObjAddr: 0x1C30, symBinAddr: 0x49048, symSize: 0x2C }
  - { offset: 0xE3DE2, size: 0x8, addend: 0x0, symName: __ZN4core4iter6traits8iterator8Iterator3zip17h61582de9a36e4addE, symObjAddr: 0x1778, symBinAddr: 0x48E28, symSize: 0xC8 }
  - { offset: 0xE3E58, size: 0x8, addend: 0x0, symName: __ZN4core4iter6traits8iterator8Iterator3zip17h725a06dd4d1a2305E, symObjAddr: 0x1840, symBinAddr: 0x48EF0, symSize: 0xB0 }
  - { offset: 0xE3ECE, size: 0x8, addend: 0x0, symName: __ZN4core4iter6traits8iterator8Iterator4take17h6c17646cbb300a97E, symObjAddr: 0x19B8, symBinAddr: 0x48FA0, symSize: 0x2C }
  - { offset: 0xE3F29, size: 0x8, addend: 0x0, symName: __ZN4core4iter6traits8iterator8Iterator7collect17h16f4732496d89db1E, symObjAddr: 0x19E4, symBinAddr: 0x48FCC, symSize: 0x14 }
  - { offset: 0xE3F6A, size: 0x8, addend: 0x0, symName: __ZN4core4iter6traits8iterator8Iterator7collect17h8cc83cd6c77361f4E, symObjAddr: 0x19F8, symBinAddr: 0x48FE0, symSize: 0x14 }
  - { offset: 0xE3FAB, size: 0x8, addend: 0x0, symName: __ZN4core4iter6traits8iterator8Iterator9enumerate17h1290bdc989b7c5dbE, symObjAddr: 0x1B84, symBinAddr: 0x48FF4, symSize: 0x28 }
  - { offset: 0xE4003, size: 0x8, addend: 0x0, symName: '__ZN63_$LT$I$u20$as$u20$core..iter..traits..collect..IntoIterator$GT$9into_iter17h34c9428d6f2025f8E', symObjAddr: 0x4D70, symBinAddr: 0x49700, symSize: 0x30 }
  - { offset: 0xE403B, size: 0x8, addend: 0x0, symName: '__ZN63_$LT$I$u20$as$u20$core..iter..traits..collect..IntoIterator$GT$9into_iter17h98ba75ad8075395eE', symObjAddr: 0x4DB8, symBinAddr: 0x49730, symSize: 0x30 }
  - { offset: 0xE437D, size: 0x8, addend: 0x0, symName: '__ZN185_$LT$core..ops..control_flow..ControlFlow$LT$B$C$C$GT$$u20$as$u20$core..ops..try_trait..FromResidual$LT$core..ops..control_flow..ControlFlow$LT$B$C$core..convert..Infallible$GT$$GT$$GT$13from_residual17h82a52fa96db85817E', symObjAddr: 0xAA8, symBinAddr: 0x48BEC, symSize: 0x18 }
  - { offset: 0xE4440, size: 0x8, addend: 0x0, symName: '__ZN95_$LT$core..ops..control_flow..ControlFlow$LT$B$C$C$GT$$u20$as$u20$core..ops..try_trait..Try$GT$11from_output17h5ebe07e583104f7dE', symObjAddr: 0x570C, symBinAddr: 0x49AEC, symSize: 0x10 }
  - { offset: 0xE447E, size: 0x8, addend: 0x0, symName: '__ZN95_$LT$core..ops..control_flow..ControlFlow$LT$B$C$C$GT$$u20$as$u20$core..ops..try_trait..Try$GT$6branch17h49543b90b03536f2E', symObjAddr: 0x571C, symBinAddr: 0x49AFC, symSize: 0x54 }
  - { offset: 0xE4779, size: 0x8, addend: 0x0, symName: '__ZN91_$LT$core..slice..iter..Iter$LT$T$GT$$u20$as$u20$core..iter..traits..iterator..Iterator$GT$24__iterator_get_unchecked17h0c9fb0ebed196bf6E', symObjAddr: 0x5014, symBinAddr: 0x49780, symSize: 0x20 }
  - { offset: 0xE47D4, size: 0x8, addend: 0x0, symName: '__ZN91_$LT$core..slice..iter..Iter$LT$T$GT$$u20$as$u20$core..iter..traits..iterator..Iterator$GT$24__iterator_get_unchecked17ha0ab79cb2e82139dE', symObjAddr: 0x5054, symBinAddr: 0x497A0, symSize: 0x28 }
  - { offset: 0xE482F, size: 0x8, addend: 0x0, symName: '__ZN91_$LT$core..slice..iter..Iter$LT$T$GT$$u20$as$u20$core..iter..traits..iterator..Iterator$GT$4next17h1e77788a8f11df07E', symObjAddr: 0x520C, symBinAddr: 0x497C8, symSize: 0x84 }
  - { offset: 0xE48E5, size: 0x8, addend: 0x0, symName: '__ZN91_$LT$core..slice..iter..Iter$LT$T$GT$$u20$as$u20$core..iter..traits..iterator..Iterator$GT$4next17hbc7f1f6ef2c3799fE', symObjAddr: 0x5290, symBinAddr: 0x4984C, symSize: 0x84 }
  - { offset: 0xE499B, size: 0x8, addend: 0x0, symName: '__ZN91_$LT$core..slice..iter..Iter$LT$T$GT$$u20$as$u20$core..iter..traits..iterator..Iterator$GT$9size_hint17h3caef71d9b28951aE', symObjAddr: 0x5398, symBinAddr: 0x498D0, symSize: 0xB4 }
  - { offset: 0xE4AC8, size: 0x8, addend: 0x0, symName: '__ZN91_$LT$core..slice..iter..Iter$LT$T$GT$$u20$as$u20$core..iter..traits..iterator..Iterator$GT$9size_hint17h3ea9e15df64db9afE', symObjAddr: 0x544C, symBinAddr: 0x49984, symSize: 0xB4 }
  - { offset: 0xE4BF5, size: 0x8, addend: 0x0, symName: '__ZN91_$LT$core..slice..iter..Iter$LT$T$GT$$u20$as$u20$core..iter..traits..iterator..Iterator$GT$9size_hint17hda6279f1f2eb3361E', symObjAddr: 0x55B4, symBinAddr: 0x49A38, symSize: 0xB4 }
  - { offset: 0xE4EB1, size: 0x8, addend: 0x0, symName: '__ZN107_$LT$pyo3..instance..Bound$LT$pyo3..types..dict..PyDict$GT$$u20$as$u20$pyo3..types..dict..PyDictMethods$GT$8set_item5inner17he3246fa161126ac6E', symObjAddr: 0x3CC, symBinAddr: 0x48A80, symSize: 0x7C }
  - { offset: 0xE52FC, size: 0x8, addend: 0x0, symName: '__ZN71_$LT$pyo3..impl_..panic..PanicTrap$u20$as$u20$core..ops..drop..Drop$GT$4drop17haf917558b77c7b19E', symObjAddr: 0x4DE8, symBinAddr: 0x49760, symSize: 0x20 }
  - { offset: 0xE53CD, size: 0x8, addend: 0x0, symName: '__ZN4pyo35impl_8pymodule9ModuleDef11make_module28_$u7b$$u7b$closure$u7d$$u7d$17h8e33c095e6d21c3fE', symObjAddr: 0x4460, symBinAddr: 0x492A8, symSize: 0x30 }
  - { offset: 0xE5412, size: 0x8, addend: 0x0, symName: '__ZN4pyo35impl_8pymodule9ModuleDef11make_module28_$u7b$$u7b$closure$u7d$$u7d$17hac7f3b1142f67ce7E', symObjAddr: 0x4490, symBinAddr: 0x492D8, symSize: 0x1A0 }
  - { offset: 0xE5AF6, size: 0x8, addend: 0x0, symName: '__ZN4core5slice4iter13Iter$LT$T$GT$3new17h232043768a24fdbeE', symObjAddr: 0x1C5C, symBinAddr: 0x49074, symSize: 0x58 }
  - { offset: 0xE5CA6, size: 0x8, addend: 0x0, symName: '__ZN4core5slice4iter13Iter$LT$T$GT$3new17h8238935e93c528bdE', symObjAddr: 0x1CB4, symBinAddr: 0x490CC, symSize: 0x50 }
  - { offset: 0xE5F88, size: 0x8, addend: 0x0, symName: __ZN4pyo35impl_8pymodule9ModuleDef11make_module17hc135f746ffa6510dE, symObjAddr: 0x42D4, symBinAddr: 0x4911C, symSize: 0x18C }
  - { offset: 0xE602C, size: 0x8, addend: 0x0, symName: __ZN4pyo35types4dict6PyDict3new17h3c02839255fcf523E, symObjAddr: 0x4978, symBinAddr: 0x49478, symSize: 0x2C }
  - { offset: 0xE6073, size: 0x8, addend: 0x0, symName: __ZN4pyo35types8function11PyCFunction12internal_new17h88c364cad185e63bE, symObjAddr: 0x49CC, symBinAddr: 0x494A4, symSize: 0x25C }
  - { offset: 0xE6FB2, size: 0x8, addend: 0x0, symName: '__ZN4core3num23_$LT$impl$u20$usize$GT$13unchecked_add18precondition_check17he919f889a944046eE', symObjAddr: 0xA7C, symBinAddr: 0x49EF8, symSize: 0x64 }
  - { offset: 0xE7146, size: 0x8, addend: 0x0, symName: '__ZN4core3ptr8non_null16NonNull$LT$T$GT$13new_unchecked18precondition_check17h0b67a4d3260984a5E', symObjAddr: 0xBB0, symBinAddr: 0x49F98, symSize: 0x58 }
  - { offset: 0xE78B4, size: 0x8, addend: 0x0, symName: __ZN4core3cmp3Ord3max17h165b19b30c624004E, symObjAddr: 0x3B0, symBinAddr: 0x49E10, symSize: 0x74 }
  - { offset: 0xE7922, size: 0x8, addend: 0x0, symName: __ZN4core3cmp3Ord3min17hc605dbc54a8c021dE, symObjAddr: 0x424, symBinAddr: 0x49E84, symSize: 0x74 }
  - { offset: 0xE7A93, size: 0x8, addend: 0x0, symName: '__ZN100_$LT$core..array..iter..iter_inner..PolymorphicIter$LT$DATA$GT$$u20$as$u20$core..ops..drop..Drop$GT$4drop17hb974ee4b0fda0289E', symObjAddr: 0x90, symBinAddr: 0x49B50, symSize: 0x30 }
  - { offset: 0xE7C2C, size: 0x8, addend: 0x0, symName: '__ZN146_$LT$core..ops..range..Range$LT$usize$GT$$u20$as$u20$core..iter..adapters..step_by..SpecRangeSetup$LT$core..ops..range..Range$LT$usize$GT$$GT$$GT$5setup17h9bc846ecf97b1abcE', symObjAddr: 0xC0, symBinAddr: 0x49B80, symSize: 0x110 }
  - { offset: 0xE8AE6, size: 0x8, addend: 0x0, symName: __ZN4core9core_arch10arm_shared4neon9generated13vget_lane_u6417ha404fb978ac2cac9E, symObjAddr: 0xFE4, symBinAddr: 0x4A1B8, symSize: 0x18 }
  - { offset: 0xE9414, size: 0x8, addend: 0x0, symName: '__ZN4pyo34sync8Interned3get28_$u7b$$u7b$closure$u7d$$u7d$17hdafa3722e9a6a669E', symObjAddr: 0x3334, symBinAddr: 0x4AB44, symSize: 0x34 }
  - { offset: 0xE9460, size: 0x8, addend: 0x0, symName: '__ZN4pyo34sync20GILOnceCell$LT$T$GT$11get_or_init28_$u7b$$u7b$closure$u7d$$u7d$17h955beb4ab1ff1772E', symObjAddr: 0x1398, symBinAddr: 0x4A390, symSize: 0x24 }
  - { offset: 0xE949F, size: 0x8, addend: 0x0, symName: '__ZN4pyo34sync20GILOnceCell$LT$T$GT$11get_or_init28_$u7b$$u7b$closure$u7d$$u7d$17hd7a206c9f04e14d9E', symObjAddr: 0x13BC, symBinAddr: 0x4A3B4, symSize: 0x34 }
  - { offset: 0xE950B, size: 0x8, addend: 0x0, symName: '__ZN4pyo34sync20GILOnceCell$LT$T$GT$3set28_$u7b$$u7b$closure$u7d$$u7d$17h1f9bb2f3d2658aeaE', symObjAddr: 0x2074, symBinAddr: 0x4A88C, symSize: 0xD0 }
  - { offset: 0xE959E, size: 0x8, addend: 0x0, symName: '__ZN4pyo34sync20GILOnceCell$LT$T$GT$3set28_$u7b$$u7b$closure$u7d$$u7d$17h44e3559435a1dc20E', symObjAddr: 0x2144, symBinAddr: 0x4A95C, symSize: 0xD0 }
  - { offset: 0xE9631, size: 0x8, addend: 0x0, symName: '__ZN4pyo34sync20GILOnceCell$LT$T$GT$3set28_$u7b$$u7b$closure$u7d$$u7d$17hf82493e6b3948991E', symObjAddr: 0x24B0, symBinAddr: 0x4AA2C, symSize: 0xD0 }
  - { offset: 0xE9A77, size: 0x8, addend: 0x0, symName: '__ZN3std4sync6poison5mutex19MutexGuard$LT$T$GT$3new28_$u7b$$u7b$closure$u7d$$u7d$17h95450f29d0401408E', symObjAddr: 0x364, symBinAddr: 0x49DC4, symSize: 0x18 }
  - { offset: 0xE9ABF, size: 0x8, addend: 0x0, symName: '__ZN3std4sync6poison5mutex19MutexGuard$LT$T$GT$3new28_$u7b$$u7b$closure$u7d$$u7d$17he2ede1cfa4e11a72E', symObjAddr: 0x37C, symBinAddr: 0x49DDC, symSize: 0x18 }
  - { offset: 0xE9B0E, size: 0x8, addend: 0x0, symName: '__ZN87_$LT$std..sync..poison..mutex..MutexGuard$LT$T$GT$$u20$as$u20$core..ops..drop..Drop$GT$4drop17hc64c0d0a9200a7c9E', symObjAddr: 0x406C, symBinAddr: 0x4ADF4, symSize: 0x58 }
  - { offset: 0xE9B8C, size: 0x8, addend: 0x0, symName: '__ZN87_$LT$std..sync..poison..mutex..MutexGuard$LT$T$GT$$u20$as$u20$core..ops..drop..Drop$GT$4drop17hfa7dd3b09a90f748E', symObjAddr: 0x40C4, symBinAddr: 0x4AE4C, symSize: 0x58 }
  - { offset: 0xE9C10, size: 0x8, addend: 0x0, symName: '__ZN89_$LT$std..sync..poison..mutex..MutexGuard$LT$T$GT$$u20$as$u20$core..ops..deref..Deref$GT$5deref17h963c42c7e94a077cE', symObjAddr: 0x41B0, symBinAddr: 0x4AEA4, symSize: 0x1C }
  - { offset: 0xE9C5C, size: 0x8, addend: 0x0, symName: '__ZN89_$LT$std..sync..poison..mutex..MutexGuard$LT$T$GT$$u20$as$u20$core..ops..deref..Deref$GT$5deref17ha39ddf111d9d81b2E', symObjAddr: 0x41CC, symBinAddr: 0x4AEC0, symSize: 0x1C }
  - { offset: 0xE9CAE, size: 0x8, addend: 0x0, symName: '__ZN92_$LT$std..sync..poison..mutex..MutexGuard$LT$T$GT$$u20$as$u20$core..ops..deref..DerefMut$GT$9deref_mut17h12ec818176b4f16aE', symObjAddr: 0x436C, symBinAddr: 0x4B014, symSize: 0x1C }
  - { offset: 0xE9CFA, size: 0x8, addend: 0x0, symName: '__ZN92_$LT$std..sync..poison..mutex..MutexGuard$LT$T$GT$$u20$as$u20$core..ops..deref..DerefMut$GT$9deref_mut17ha01c7ae7e6b86d6eE', symObjAddr: 0x43A4, symBinAddr: 0x4B030, symSize: 0x1C }
  - { offset: 0xEA63D, size: 0x8, addend: 0x0, symName: '__ZN5alloc5boxed12Box$LT$T$GT$8into_raw17h96f4c50b7e7cb361E', symObjAddr: 0x35F8, symBinAddr: 0x4ABA8, symSize: 0x14 }
  - { offset: 0xEA67A, size: 0x8, addend: 0x0, symName: '__ZN72_$LT$alloc..boxed..Box$LT$T$C$A$GT$$u20$as$u20$core..ops..drop..Drop$GT$4drop17h0b11cbe735b8b696E', symObjAddr: 0x3770, symBinAddr: 0x4ABBC, symSize: 0xB0 }
  - { offset: 0xEA7B3, size: 0x8, addend: 0x0, symName: '__ZN72_$LT$alloc..boxed..Box$LT$T$C$A$GT$$u20$as$u20$core..ops..drop..Drop$GT$4drop17hbc999455ab663ab7E', symObjAddr: 0x3B14, symBinAddr: 0x4AC6C, symSize: 0xC4 }
  - { offset: 0xEA8EC, size: 0x8, addend: 0x0, symName: '__ZN72_$LT$alloc..boxed..Box$LT$T$C$A$GT$$u20$as$u20$core..ops..drop..Drop$GT$4drop17hcb589ac03ad2adfeE', symObjAddr: 0x3C88, symBinAddr: 0x4AD30, symSize: 0xC4 }
  - { offset: 0xEAA75, size: 0x8, addend: 0x0, symName: '__ZN90_$LT$alloc..boxed..Box$LT$F$C$A$GT$$u20$as$u20$core..ops..function..FnOnce$LT$Args$GT$$GT$9call_once17h4011eaead5b8e6a2E', symObjAddr: 0x4204, symBinAddr: 0x4AEDC, symSize: 0x138 }
  - { offset: 0xEABF6, size: 0x8, addend: 0x0, symName: '__ZN3std4sync6poison5mutex14Mutex$LT$T$GT$3new17h74ab8e9e21450fc0E', symObjAddr: 0x1D0, symBinAddr: 0x49C90, symSize: 0x60 }
  - { offset: 0xEACD2, size: 0x8, addend: 0x0, symName: '__ZN3std4sync6poison5mutex14Mutex$LT$T$GT$3new17he459e0764cd66e2aE', symObjAddr: 0x230, symBinAddr: 0x49CF0, symSize: 0x44 }
  - { offset: 0xEADCE, size: 0x8, addend: 0x0, symName: '__ZN3std4sync6poison5mutex14Mutex$LT$T$GT$4lock17h0b938a00cd785dcfE', symObjAddr: 0x274, symBinAddr: 0x49D34, symSize: 0x48 }
  - { offset: 0xEAEA0, size: 0x8, addend: 0x0, symName: '__ZN3std4sync6poison5mutex14Mutex$LT$T$GT$4lock17hd1f053f672d7a5d0E', symObjAddr: 0x2BC, symBinAddr: 0x49D7C, symSize: 0x48 }
  - { offset: 0xEAFED, size: 0x8, addend: 0x0, symName: __ZN3std6thread6thread6Thread2id17hbf50255615937cb2E, symObjAddr: 0x394, symBinAddr: 0x49DF4, symSize: 0x1C }
  - { offset: 0xEB0F6, size: 0x8, addend: 0x0, symName: '__ZN4core3ptr8non_null16NonNull$LT$T$GT$13new_unchecked17h35b546ef0e9bc219E', symObjAddr: 0xB74, symBinAddr: 0x49F5C, symSize: 0x3C }
  - { offset: 0xEB13C, size: 0x8, addend: 0x0, symName: '__ZN4core3ptr8non_null16NonNull$LT$T$GT$3new17h32fa519127b82f99E', symObjAddr: 0xC08, symBinAddr: 0x49FF0, symSize: 0x58 }
  - { offset: 0xEB300, size: 0x8, addend: 0x0, symName: '__ZN4core5array4iter10iter_inner78PolymorphicIter$LT$$u5b$core..mem..maybe_uninit..MaybeUninit$LT$T$GT$$u5d$$GT$4next17hf79c6a1ba1c9e1a2E', symObjAddr: 0xE74, symBinAddr: 0x4A048, symSize: 0x170 }
  - { offset: 0xEB59F, size: 0x8, addend: 0x0, symName: '__ZN4pyo34sync20GILOnceCell$LT$T$GT$11get_or_init17h17117cdec0f98a72E', symObjAddr: 0x11D8, symBinAddr: 0x4A1D0, symSize: 0xD8 }
  - { offset: 0xEB68A, size: 0x8, addend: 0x0, symName: '__ZN4pyo34sync20GILOnceCell$LT$T$GT$11get_or_init17h4fca6941e8aae367E', symObjAddr: 0x12B0, symBinAddr: 0x4A2A8, symSize: 0xE8 }
  - { offset: 0xEB90A, size: 0x8, addend: 0x0, symName: '__ZN4pyo34sync20GILOnceCell$LT$T$GT$15get_or_try_init17hc85aa450f2c1ec80E', symObjAddr: 0x1734, symBinAddr: 0x4A3E8, symSize: 0xCC }
  - { offset: 0xEB984, size: 0x8, addend: 0x0, symName: '__ZN4pyo34sync20GILOnceCell$LT$T$GT$3get17h20525a9b98d28e48E', symObjAddr: 0x1800, symBinAddr: 0x4A4B4, symSize: 0xA8 }
  - { offset: 0xEB9C8, size: 0x8, addend: 0x0, symName: '__ZN4pyo34sync20GILOnceCell$LT$T$GT$3get17h53e8b7946670d389E', symObjAddr: 0x18A8, symBinAddr: 0x4A55C, symSize: 0xA8 }
  - { offset: 0xEBA0C, size: 0x8, addend: 0x0, symName: '__ZN4pyo34sync20GILOnceCell$LT$T$GT$3get17ha118d38befe25c38E', symObjAddr: 0x1A90, symBinAddr: 0x4A604, symSize: 0xA8 }
  - { offset: 0xEBA50, size: 0x8, addend: 0x0, symName: '__ZN4pyo34sync20GILOnceCell$LT$T$GT$3set17h25e04ad3cf372f6dE', symObjAddr: 0x1D78, symBinAddr: 0x4A6AC, symSize: 0xA0 }
  - { offset: 0xEBAD5, size: 0x8, addend: 0x0, symName: '__ZN4pyo34sync20GILOnceCell$LT$T$GT$3set17h8a8db6a455c1650cE', symObjAddr: 0x1E18, symBinAddr: 0x4A74C, symSize: 0xA0 }
  - { offset: 0xEBB5A, size: 0x8, addend: 0x0, symName: '__ZN4pyo34sync20GILOnceCell$LT$T$GT$3set17hcb90728a5834bfb5E', symObjAddr: 0x1EB8, symBinAddr: 0x4A7EC, symSize: 0xA0 }
  - { offset: 0xEBD7C, size: 0x8, addend: 0x0, symName: '__ZN4pyo34sync20GILOnceCell$LT$T$GT$4init17h30ce9a7bb6e97909E', symObjAddr: 0x2714, symBinAddr: 0x9FC74, symSize: 0x19C }
  - { offset: 0xEBE53, size: 0x8, addend: 0x0, symName: '__ZN4pyo34sync20GILOnceCell$LT$T$GT$4init17hcf46682fd5b15c33E', symObjAddr: 0x2A40, symBinAddr: 0x9FE10, symSize: 0x11C }
  - { offset: 0xEBF32, size: 0x8, addend: 0x0, symName: '__ZN4pyo34sync20GILOnceCell$LT$T$GT$4init17hfe1e4cff00a9d987E', symObjAddr: 0x2E80, symBinAddr: 0x9FF2C, symSize: 0x120 }
  - { offset: 0xEC003, size: 0x8, addend: 0x0, symName: __ZN4pyo34sync8Interned3get17h8fc371b5c132f0b6E, symObjAddr: 0x32EC, symBinAddr: 0x4AAFC, symSize: 0x48 }
  - { offset: 0xEC048, size: 0x8, addend: 0x0, symName: __ZN4pyo35types5float7PyFloat3new17h1b82cf803ed0d2a2E, symObjAddr: 0x3588, symBinAddr: 0x4AB78, symSize: 0x30 }
  - { offset: 0xEC6E5, size: 0x8, addend: 0x0, symName: '__ZN3std4sync4once4Once15call_once_force28_$u7b$$u7b$closure$u7d$$u7d$17h0dca37f697dacafdE', symObjAddr: 0x148C, symBinAddr: 0x4BB5C, symSize: 0x84 }
  - { offset: 0xEC777, size: 0x8, addend: 0x0, symName: '__ZN3std4sync4once4Once15call_once_force28_$u7b$$u7b$closure$u7d$$u7d$17h1977a436725ac4d2E', symObjAddr: 0x1594, symBinAddr: 0x4BBE0, symSize: 0x68 }
  - { offset: 0xEC809, size: 0x8, addend: 0x0, symName: '__ZN3std4sync4once4Once15call_once_force28_$u7b$$u7b$closure$u7d$$u7d$17h244834918f9c584bE', symObjAddr: 0x15FC, symBinAddr: 0x4BC48, symSize: 0x68 }
  - { offset: 0xEC89B, size: 0x8, addend: 0x0, symName: '__ZN3std4sync4once4Once15call_once_force28_$u7b$$u7b$closure$u7d$$u7d$17hca5311f972255508E', symObjAddr: 0x16E8, symBinAddr: 0x4BCB0, symSize: 0x84 }
  - { offset: 0xEC92D, size: 0x8, addend: 0x0, symName: '__ZN3std4sync4once4Once15call_once_force28_$u7b$$u7b$closure$u7d$$u7d$17heaf78109b9c647e3E', symObjAddr: 0x17F0, symBinAddr: 0x4BD34, symSize: 0x84 }
  - { offset: 0xEC9C5, size: 0x8, addend: 0x0, symName: '__ZN3std4sync4once4Once9call_once28_$u7b$$u7b$closure$u7d$$u7d$17hb30fbb205430e7f0E', symObjAddr: 0x1A4C, symBinAddr: 0x4BF90, symSize: 0x60 }
  - { offset: 0xECA53, size: 0x8, addend: 0x0, symName: '__ZN3std4sync4once4Once9call_once28_$u7b$$u7b$closure$u7d$$u7d$17hc8fbfd4b94259beaE', symObjAddr: 0x1AAC, symBinAddr: 0x4BFF0, symSize: 0x68 }
  - { offset: 0xECE0D, size: 0x8, addend: 0x0, symName: '__ZN84_$LT$std..sys..sync..once_box..OnceBox$LT$T$GT$$u20$as$u20$core..ops..drop..Drop$GT$4drop17hcdfeee0a21649425E', symObjAddr: 0x486C, symBinAddr: 0x4C9F8, symSize: 0x74 }
  - { offset: 0xEED84, size: 0x8, addend: 0x0, symName: '__ZN102_$LT$core..iter..adapters..zip..Zip$LT$A$C$B$GT$$u20$as$u20$core..iter..traits..iterator..Iterator$GT$4next17h2c4fbe71d508e41dE', symObjAddr: 0x28, symBinAddr: 0x4B04C, symSize: 0x24 }
  - { offset: 0xEEDC2, size: 0x8, addend: 0x0, symName: '__ZN102_$LT$core..iter..adapters..zip..Zip$LT$A$C$B$GT$$u20$as$u20$core..iter..traits..iterator..Iterator$GT$4next17h5cb7e11eff57ef16E', symObjAddr: 0x4C, symBinAddr: 0x4B070, symSize: 0x24 }
  - { offset: 0xEEE00, size: 0x8, addend: 0x0, symName: '__ZN102_$LT$core..iter..adapters..zip..Zip$LT$A$C$B$GT$$u20$as$u20$core..iter..traits..iterator..Iterator$GT$9size_hint17h0051acf5fa5ffdc9E', symObjAddr: 0x94, symBinAddr: 0x4B094, symSize: 0x24 }
  - { offset: 0xEEE3E, size: 0x8, addend: 0x0, symName: '__ZN102_$LT$core..iter..adapters..zip..Zip$LT$A$C$B$GT$$u20$as$u20$core..iter..traits..iterator..Iterator$GT$9size_hint17h7f4476a5f4f852c2E', symObjAddr: 0xB8, symBinAddr: 0x4B0B8, symSize: 0x24 }
  - { offset: 0xEEE82, size: 0x8, addend: 0x0, symName: '__ZN111_$LT$core..iter..adapters..zip..Zip$LT$A$C$B$GT$$u20$as$u20$core..iter..adapters..zip..ZipImpl$LT$A$C$B$GT$$GT$3new17hb4e70f48d09baccfE', symObjAddr: 0x318, symBinAddr: 0x4B0DC, symSize: 0xBC }
  - { offset: 0xEEF15, size: 0x8, addend: 0x0, symName: '__ZN111_$LT$core..iter..adapters..zip..Zip$LT$A$C$B$GT$$u20$as$u20$core..iter..adapters..zip..ZipImpl$LT$A$C$B$GT$$GT$4next17h545806550e87bc74E', symObjAddr: 0x4E4, symBinAddr: 0x4B1D4, symSize: 0xB0 }
  - { offset: 0xEEF6B, size: 0x8, addend: 0x0, symName: '__ZN111_$LT$core..iter..adapters..zip..Zip$LT$A$C$B$GT$$u20$as$u20$core..iter..adapters..zip..ZipImpl$LT$A$C$B$GT$$GT$9size_hint17ha3fdcba278042fcaE', symObjAddr: 0x7D4, symBinAddr: 0x4B490, symSize: 0x34 }
  - { offset: 0xEEFB1, size: 0x8, addend: 0x0, symName: '__ZN111_$LT$core..iter..adapters..zip..Zip$LT$A$C$B$GT$$u20$as$u20$core..iter..adapters..zip..ZipImpl$LT$A$C$B$GT$$GT$3new17hd18fffc880bee3d8E', symObjAddr: 0x3D4, symBinAddr: 0x4B198, symSize: 0x3C }
  - { offset: 0xEEFFD, size: 0x8, addend: 0x0, symName: '__ZN111_$LT$core..iter..adapters..zip..Zip$LT$A$C$B$GT$$u20$as$u20$core..iter..adapters..zip..ZipImpl$LT$A$C$B$GT$$GT$4next17h54bb757660130dcfE', symObjAddr: 0x594, symBinAddr: 0x4B284, symSize: 0xE0 }
  - { offset: 0xEF15E, size: 0x8, addend: 0x0, symName: '__ZN111_$LT$core..iter..adapters..zip..Zip$LT$A$C$B$GT$$u20$as$u20$core..iter..adapters..zip..ZipImpl$LT$A$C$B$GT$$GT$9size_hint17h89235c6e3ffdebaeE', symObjAddr: 0x674, symBinAddr: 0x4B364, symSize: 0x12C }
  - { offset: 0xEF495, size: 0x8, addend: 0x0, symName: __ZN4core4iter6traits8iterator8Iterator10filter_map17h281745a45856cf92E, symObjAddr: 0x2280, symBinAddr: 0x4C058, symSize: 0x30 }
  - { offset: 0xEF503, size: 0x8, addend: 0x0, symName: __ZN4core4iter6traits8iterator8Iterator10filter_map17hdd0fc1b25c541d58E, symObjAddr: 0x22B0, symBinAddr: 0x4C088, symSize: 0x30 }
  - { offset: 0xEF571, size: 0x8, addend: 0x0, symName: __ZN4core4iter6traits8iterator8Iterator8find_map17hc3b4d5ed645f24dcE, symObjAddr: 0x239C, symBinAddr: 0x4C0B8, symSize: 0x8C }
  - { offset: 0xEF5F9, size: 0x8, addend: 0x0, symName: __ZN4core4iter6traits8iterator8Iterator8find_map17he44c9025c86bf55aE, symObjAddr: 0x2428, symBinAddr: 0x4C144, symSize: 0x8C }
  - { offset: 0xEF681, size: 0x8, addend: 0x0, symName: __ZN4core4iter6traits8iterator8Iterator8try_fold17h8926eb96a45df3b7E, symObjAddr: 0x24B4, symBinAddr: 0x4C1D0, symSize: 0x190 }
  - { offset: 0xEF737, size: 0x8, addend: 0x0, symName: __ZN4core4iter6traits8iterator8Iterator8try_fold17hb5b2b2be36fd0367E, symObjAddr: 0x2644, symBinAddr: 0x4C360, symSize: 0x190 }
  - { offset: 0xEF7ED, size: 0x8, addend: 0x0, symName: __ZN4core4iter6traits8iterator8Iterator9enumerate17h87543bbc61e3fcaeE, symObjAddr: 0x2824, symBinAddr: 0x4C4F0, symSize: 0x18 }
  - { offset: 0xEF81E, size: 0x8, addend: 0x0, symName: __ZN4core4iter6traits8iterator8Iterator9enumerate17h87543bbc61e3fcaeE, symObjAddr: 0x2824, symBinAddr: 0x4C4F0, symSize: 0x18 }
  - { offset: 0xEFC99, size: 0x8, addend: 0x0, symName: '__ZN82_$LT$core..array..iter..IntoIter$LT$T$C$_$GT$$u20$as$u20$core..ops..drop..Drop$GT$4drop17hb292d8cda77543bbE', symObjAddr: 0x47CC, symBinAddr: 0x4C9C8, symSize: 0x30 }
  - { offset: 0xEFCF0, size: 0x8, addend: 0x0, symName: '__ZN99_$LT$core..array..iter..IntoIter$LT$T$C$_$GT$$u20$as$u20$core..iter..traits..iterator..Iterator$GT$4next17h71492c4927466206E', symObjAddr: 0x496C, symBinAddr: 0x4CA6C, symSize: 0x2C }
  - { offset: 0xF0327, size: 0x8, addend: 0x0, symName: __ZN4pyo35types6module7__all__8INTERNED17h157a7bf147447521E, symObjAddr: 0x56C8, symBinAddr: 0xF8418, symSize: 0x0 }
  - { offset: 0xF0348, size: 0x8, addend: 0x0, symName: __ZN4pyo35types6module8__name__8INTERNED17hef573bb99fff1689E, symObjAddr: 0x56E8, symBinAddr: 0xF8438, symSize: 0x0 }
  - { offset: 0xF0360, size: 0x8, addend: 0x0, symName: '__ZN115_$LT$pyo3..instance..Bound$LT$pyo3..types..module..PyModule$GT$$u20$as$u20$pyo3..types..module..PyModuleMethods$GT$3add5inner17h452e25c8269b45d3E', symObjAddr: 0xA30, symBinAddr: 0x4B4C4, symSize: 0x140 }
  - { offset: 0xF03EF, size: 0x8, addend: 0x0, symName: __ZN4pyo35types6module7__all__17h508a3e68b623e5d7E, symObjAddr: 0x2FB4, symBinAddr: 0x4C5A8, symSize: 0x24 }
  - { offset: 0xF0429, size: 0x8, addend: 0x0, symName: __ZN4pyo35types6module8__name__17hf168ed80addb6009E, symObjAddr: 0x3408, symBinAddr: 0x4C5CC, symSize: 0x24 }
  - { offset: 0xF0ADC, size: 0x8, addend: 0x0, symName: __ZN4pyo310conversion15IntoPyObjectExt17into_bound_py_any17h92d846b75ffb5a19E, symObjAddr: 0x2AB0, symBinAddr: 0x4C508, symSize: 0x54 }
  - { offset: 0xF0B4C, size: 0x8, addend: 0x0, symName: __ZN4pyo310conversion15IntoPyObjectExt22into_pyobject_or_pyerr17h95766f7405f2a7cdE, symObjAddr: 0x2C14, symBinAddr: 0x4C55C, symSize: 0x4C }
  - { offset: 0xF1298, size: 0x8, addend: 0x0, symName: '__ZN3std3sys4sync8once_box16OnceBox$LT$T$GT$10initialize17hec4dc9d18db49129E', symObjAddr: 0xB98, symBinAddr: 0xA004C, symSize: 0xD8 }
  - { offset: 0xF146F, size: 0x8, addend: 0x0, symName: '__ZN3std3sys4sync8once_box16OnceBox$LT$T$GT$11get_or_init17hdf88c2a1f2437da1E', symObjAddr: 0xC70, symBinAddr: 0x4B604, symSize: 0xB4 }
  - { offset: 0xF159C, size: 0x8, addend: 0x0, symName: __ZN3std4sync4once4Once12is_completed17h43d685862499ded0E, symObjAddr: 0xD24, symBinAddr: 0x4B6B8, symSize: 0x38 }
  - { offset: 0xF163F, size: 0x8, addend: 0x0, symName: __ZN3std4sync4once4Once15call_once_force17h27753d9a2b7f5c98E, symObjAddr: 0xD5C, symBinAddr: 0x4B6F0, symSize: 0xEC }
  - { offset: 0xF1704, size: 0x8, addend: 0x0, symName: __ZN3std4sync4once4Once15call_once_force17h3e89fac96edf97feE, symObjAddr: 0x1020, symBinAddr: 0x4B7DC, symSize: 0xEC }
  - { offset: 0xF17C9, size: 0x8, addend: 0x0, symName: __ZN3std4sync4once4Once15call_once_force17h63fa92aca399a14dE, symObjAddr: 0x110C, symBinAddr: 0x4B8C8, symSize: 0xD4 }
  - { offset: 0xF188E, size: 0x8, addend: 0x0, symName: __ZN3std4sync4once4Once15call_once_force17h7921a59108feafd9E, symObjAddr: 0x11E0, symBinAddr: 0x4B99C, symSize: 0xEC }
  - { offset: 0xF1953, size: 0x8, addend: 0x0, symName: __ZN3std4sync4once4Once15call_once_force17hb4dbf1f229c17181E, symObjAddr: 0x12CC, symBinAddr: 0x4BA88, symSize: 0xD4 }
  - { offset: 0xF1B56, size: 0x8, addend: 0x0, symName: __ZN3std4sync4once4Once3new17hbb990f9dffb61ad8E, symObjAddr: 0x1874, symBinAddr: 0x4BDB8, symSize: 0x28 }
  - { offset: 0xF1BCE, size: 0x8, addend: 0x0, symName: __ZN3std4sync4once4Once9call_once17h2347bb2f107207f0E, symObjAddr: 0x189C, symBinAddr: 0x4BDE0, symSize: 0xDC }
  - { offset: 0xF1C93, size: 0x8, addend: 0x0, symName: __ZN3std4sync4once4Once9call_once17h37ceaf1d93d6457bE, symObjAddr: 0x1978, symBinAddr: 0x4BEBC, symSize: 0xD4 }
  - { offset: 0xF1ED3, size: 0x8, addend: 0x0, symName: __ZN4pyo36marker6Python13allow_threads17h9621887abab05dd5E, symObjAddr: 0x3510, symBinAddr: 0x4C5F0, symSize: 0xB0 }
  - { offset: 0xF1F41, size: 0x8, addend: 0x0, symName: __ZN4pyo36marker6Python19assume_gil_acquired17hbedf07dacc918058E, symObjAddr: 0x35E8, symBinAddr: 0x4C6A0, symSize: 0x4 }
  - { offset: 0xF1F61, size: 0x8, addend: 0x0, symName: __ZN4pyo36marker6Python4None17h052c16ce5a6263b0E, symObjAddr: 0x36F4, symBinAddr: 0x4C6A4, symSize: 0x28 }
  - { offset: 0xF1F90, size: 0x8, addend: 0x0, symName: __ZN4pyo36marker6Python8get_type17h7855b58e867c33f0E, symObjAddr: 0x37FC, symBinAddr: 0x4C6CC, symSize: 0x1C }
  - { offset: 0xF1FC8, size: 0x8, addend: 0x0, symName: __ZN4pyo36marker6Python8get_type17he579c5f1eccb187cE, symObjAddr: 0x3818, symBinAddr: 0x4C6E8, symSize: 0x1C }
  - { offset: 0xF2000, size: 0x8, addend: 0x0, symName: __ZN4pyo36marker6Python8with_gil17h0bf704beb1002078E, symObjAddr: 0x3F94, symBinAddr: 0x4C704, symSize: 0xF4 }
  - { offset: 0xF20A8, size: 0x8, addend: 0x0, symName: __ZN4pyo36marker6Python8with_gil17h9867d8ed0c096c6dE, symObjAddr: 0x4164, symBinAddr: 0x4C7F8, symSize: 0xE8 }
  - { offset: 0xF20F3, size: 0x8, addend: 0x0, symName: __ZN4pyo36marker6Python8with_gil17ha6129fd41a2c2075E, symObjAddr: 0x424C, symBinAddr: 0x4C8E0, symSize: 0xE8 }
  - { offset: 0xF22E5, size: 0x8, addend: 0x0, symName: '__ZN104_$LT$core..ops..index_range..IndexRange$u20$as$u20$core..slice..index..SliceIndex$LT$$u5b$T$u5d$$GT$$GT$17get_unchecked_mut18precondition_check17h3a38fb912211e3c2E', symObjAddr: 0x0, symBinAddr: 0x4CA98, symSize: 0x60 }
  - { offset: 0xF27C6, size: 0x8, addend: 0x0, symName: '__ZN5alloc3str56_$LT$impl$u20$alloc..borrow..ToOwned$u20$for$u20$str$GT$8to_owned17h9551faf199e20839E', symObjAddr: 0x319C, symBinAddr: 0x4D71C, symSize: 0x50 }
  - { offset: 0xF35D2, size: 0x8, addend: 0x0, symName: __ZN4core9panicking13panic_display17h2b4b64daf4049112E, symObjAddr: 0x7DC, symBinAddr: 0x4CC94, symSize: 0x5C }
  - { offset: 0xF3693, size: 0x8, addend: 0x0, symName: '__ZN104_$LT$core..ops..index_range..IndexRange$u20$as$u20$core..slice..index..SliceIndex$LT$$u5b$T$u5d$$GT$$GT$17get_unchecked_mut18precondition_check17h3a38fb912211e3c2E', symObjAddr: 0x0, symBinAddr: 0x4CA98, symSize: 0x60 }
  - { offset: 0xF36F2, size: 0x8, addend: 0x0, symName: '__ZN75_$LT$usize$u20$as$u20$core..slice..index..SliceIndex$LT$$u5b$T$u5d$$GT$$GT$13get_unchecked18precondition_check17hdc38774cf1e69e6cE', symObjAddr: 0x3418, symBinAddr: 0x4D880, symSize: 0x60 }
  - { offset: 0xF3A06, size: 0x8, addend: 0x0, symName: __ZN4core5alloc6layout6Layout25from_size_align_unchecked18precondition_check17h9535afd4326aab6eE, symObjAddr: 0x5D0, symBinAddr: 0x4CBD8, symSize: 0xBC }
  - { offset: 0xF3D18, size: 0x8, addend: 0x0, symName: '__ZN50_$LT$T$u20$as$u20$core..convert..Into$LT$U$GT$$GT$4into17h28050080b66e7aacE', symObjAddr: 0x1EB0, symBinAddr: 0x4D6D4, symSize: 0x28 }
  - { offset: 0xF3D5E, size: 0x8, addend: 0x0, symName: '__ZN53_$LT$T$u20$as$u20$core..convert..TryInto$LT$U$GT$$GT$8try_into17hc7a80422cee9bf30E', symObjAddr: 0x208C, symBinAddr: 0x4D6FC, symSize: 0x20 }
  - { offset: 0xF415C, size: 0x8, addend: 0x0, symName: __ZN8pyo3_ffi12methodobject17PyCFunction_NewEx17hf1d31b669d25fe3eE, symObjAddr: 0x3B0C, symBinAddr: 0x4D8E0, symSize: 0x38 }
  - { offset: 0xF428E, size: 0x8, addend: 0x0, symName: __ZN4pyo33gil4POOL17hbd6cf9d190f71974E, symObjAddr: 0x4ED8, symBinAddr: 0xF8458, symSize: 0x0 }
  - { offset: 0xF42FB, size: 0x8, addend: 0x0, symName: __ZN4pyo33gil5START17h0a3e3cd7d716710bE, symObjAddr: 0x4F18, symBinAddr: 0xF8498, symSize: 0x0 }
  - { offset: 0xF4324, size: 0x8, addend: 0x0, symName: '__ZN4pyo33gil9GIL_COUNT29_$u7b$$u7b$constant$u7d$$u7d$28_$u7b$$u7b$closure$u7d$$u7d$23__RUST_STD_INTERNAL_VAL17hfad1dda57325c50aE', symObjAddr: 0x4F50, symBinAddr: 0xF8E10, symSize: 0x0 }
  - { offset: 0xF4333, size: 0x8, addend: 0x0, symName: '__ZN4pyo33gil9GIL_COUNT29_$u7b$$u7b$constant$u7d$$u7d$28_$u7b$$u7b$closure$u7d$$u7d$17h1d9ac2a3baeeaff5E', symObjAddr: 0x11EC, symBinAddr: 0x4D5C8, symSize: 0x30 }
  - { offset: 0xF43A9, size: 0x8, addend: 0x0, symName: '__ZN4pyo33gil10SuspendGIL3new28_$u7b$$u7b$closure$u7d$$u7d$17h7f9fdab58b919b5fE', symObjAddr: 0x878, symBinAddr: 0x4CD30, symSize: 0x28 }
  - { offset: 0xF447C, size: 0x8, addend: 0x0, symName: '__ZN4pyo33gil15gil_is_acquired28_$u7b$$u7b$closure$u7d$$u7d$17h2ee45e7d952b63a9E', symObjAddr: 0xC94, symBinAddr: 0x4D14C, symSize: 0x2C }
  - { offset: 0xF44CB, size: 0x8, addend: 0x0, symName: __ZN4pyo33gil15register_decref17hdfb6c3180d24953bE, symObjAddr: 0xCC0, symBinAddr: 0x4D178, symSize: 0x74 }
  - { offset: 0xF452D, size: 0x8, addend: 0x0, symName: '__ZN4pyo33gil19decrement_gil_count28_$u7b$$u7b$closure$u7d$$u7d$17h9948937a9d233591E', symObjAddr: 0xD34, symBinAddr: 0x4D1EC, symSize: 0x8C }
  - { offset: 0xF4585, size: 0x8, addend: 0x0, symName: '__ZN4pyo33gil19increment_gil_count28_$u7b$$u7b$closure$u7d$$u7d$17h9d9c850ef9f91786E', symObjAddr: 0xDC0, symBinAddr: 0x4D278, symSize: 0x74 }
  - { offset: 0xF45D9, size: 0x8, addend: 0x0, symName: __ZN4pyo33gil27prepare_freethreaded_python17hac1a35cdb3887afbE, symObjAddr: 0xE34, symBinAddr: 0x4D2EC, symSize: 0x1C }
  - { offset: 0xF45F7, size: 0x8, addend: 0x0, symName: '__ZN4pyo33gil27prepare_freethreaded_python28_$u7b$$u7b$closure$u7d$$u7d$17h0efb0ff6c648172cE', symObjAddr: 0xE50, symBinAddr: 0x4D308, symSize: 0x38 }
  - { offset: 0xF4692, size: 0x8, addend: 0x0, symName: '__ZN4pyo33gil8GILGuard7acquire28_$u7b$$u7b$closure$u7d$$u7d$17h2acc3b5069b4824cE', symObjAddr: 0x115C, symBinAddr: 0x4D538, symSize: 0x90 }
  - { offset: 0xF471D, size: 0x8, addend: 0x0, symName: '__ZN61_$LT$pyo3..gil..GILGuard$u20$as$u20$core..ops..drop..Drop$GT$4drop17h1f92d89cc54d9bb2E', symObjAddr: 0x32A4, symBinAddr: 0x4D76C, symSize: 0x5C }
  - { offset: 0xF477D, size: 0x8, addend: 0x0, symName: '__ZN63_$LT$pyo3..gil..SuspendGIL$u20$as$u20$core..ops..drop..Drop$GT$4drop17h8e6367e65de7607cE', symObjAddr: 0x3310, symBinAddr: 0x4D7C8, symSize: 0x80 }
  - { offset: 0xF47CA, size: 0x8, addend: 0x0, symName: '__ZN63_$LT$pyo3..gil..SuspendGIL$u20$as$u20$core..ops..drop..Drop$GT$4drop28_$u7b$$u7b$closure$u7d$$u7d$17hb3292fe7dace1c3aE', symObjAddr: 0x3390, symBinAddr: 0x4D848, symSize: 0x38 }
  - { offset: 0xF4B76, size: 0x8, addend: 0x0, symName: '__ZN4core4iter8adapters7step_by15StepBy$LT$I$GT$3new17h204868d3061b185eE', symObjAddr: 0x4F0, symBinAddr: 0x4CAF8, symSize: 0xE0 }
  - { offset: 0xF4D08, size: 0x8, addend: 0x0, symName: __ZN4pyo33gil10SuspendGIL3new17h5ec40944bb498793E, symObjAddr: 0x838, symBinAddr: 0x4CCF0, symSize: 0x40 }
  - { offset: 0xF4DEB, size: 0x8, addend: 0x0, symName: __ZN4pyo33gil13ReferencePool13update_counts17h97ee0fce6f83024aE, symObjAddr: 0x8A0, symBinAddr: 0x4CD58, symSize: 0x280 }
  - { offset: 0xF4EF6, size: 0x8, addend: 0x0, symName: __ZN4pyo33gil13ReferencePool15register_decref17hac6380d1a50a320bE, symObjAddr: 0xB20, symBinAddr: 0x4CFD8, symSize: 0x128 }
  - { offset: 0xF4F62, size: 0x8, addend: 0x0, symName: __ZN4pyo33gil13ReferencePool3new17he8e5d2623fce974cE, symObjAddr: 0xC48, symBinAddr: 0x4D100, symSize: 0x4C }
  - { offset: 0xF4F75, size: 0x8, addend: 0x0, symName: __ZN4pyo33gil7LockGIL4bail17hf3de099cee018365E, symObjAddr: 0xF08, symBinAddr: 0xA0124, symSize: 0x5C }
  - { offset: 0xF4F98, size: 0x8, addend: 0x0, symName: __ZN4pyo33gil8GILGuard17acquire_unchecked17h82c0690664d7c9e4E, symObjAddr: 0xF64, symBinAddr: 0x4D340, symSize: 0xAC }
  - { offset: 0xF4FFE, size: 0x8, addend: 0x0, symName: __ZN4pyo33gil8GILGuard6assume17ha66d1ea4a972be83E, symObjAddr: 0x1010, symBinAddr: 0x4D3EC, symSize: 0xB0 }
  - { offset: 0xF5050, size: 0x8, addend: 0x0, symName: __ZN4pyo33gil8GILGuard6python17hf44824f4332e66bcE, symObjAddr: 0x10C0, symBinAddr: 0x4D49C, symSize: 0x20 }
  - { offset: 0xF5072, size: 0x8, addend: 0x0, symName: __ZN4pyo33gil8GILGuard7acquire17h8c2612e7be082248E, symObjAddr: 0x10E0, symBinAddr: 0x4D4BC, symSize: 0x7C }
  - { offset: 0xF515D, size: 0x8, addend: 0x0, symName: __ZN4pyo35impl_9pymethods11PyMethodDef13as_method_def17h5559153ef109cb68E, symObjAddr: 0x16BC, symBinAddr: 0x4D5F8, symSize: 0xDC }
  - { offset: 0xF5C51, size: 0x8, addend: 0x0, symName: __ZN4core3mem4drop17h227b4a5487058767E, symObjAddr: 0x1E8, symBinAddr: 0x4D918, symSize: 0x2C }
  - { offset: 0xF5CB7, size: 0x8, addend: 0x0, symName: __ZN4core3mem4take17h881ec3dfb728a1fdE, symObjAddr: 0x33C, symBinAddr: 0x4D944, symSize: 0x54 }
  - { offset: 0xF5D14, size: 0x8, addend: 0x0, symName: __ZN4core3mem6forget17h57717a5f8a046defE, symObjAddr: 0x390, symBinAddr: 0x4D998, symSize: 0x14 }
  - { offset: 0xF678D, size: 0x8, addend: 0x0, symName: '__ZN4core3ops8function5impls79_$LT$impl$u20$core..ops..function..FnMut$LT$A$GT$$u20$for$u20$$RF$mut$u20$F$GT$8call_mut17h2fb61e40cbddaa4eE', symObjAddr: 0x404, symBinAddr: 0x4D9AC, symSize: 0x38 }
  - { offset: 0xF67DC, size: 0x8, addend: 0x0, symName: '__ZN4core3ops8function5impls79_$LT$impl$u20$core..ops..function..FnMut$LT$A$GT$$u20$for$u20$$RF$mut$u20$F$GT$8call_mut17ha6abe5797213fd93E', symObjAddr: 0x43C, symBinAddr: 0x4D9E4, symSize: 0x38 }
  - { offset: 0xF68A5, size: 0x8, addend: 0x0, symName: '__ZN4core5slice29_$LT$impl$u20$$u5b$T$u5d$$GT$4iter17h29b1069300515d2cE', symObjAddr: 0x5D0, symBinAddr: 0x4DA1C, symSize: 0x28 }
  - { offset: 0xF6AAE, size: 0x8, addend: 0x0, symName: __ZN4pyo35types5tuple16array_into_tuple17h4e4f5f34e11bb2d0E, symObjAddr: 0x3070, symBinAddr: 0x4DDB8, symSize: 0x1FC }
  - { offset: 0xF6BF1, size: 0x8, addend: 0x0, symName: '__ZN4pyo35types5tuple74_$LT$impl$u20$pyo3..conversion..IntoPyObject$u20$for$u20$$LP$T0$C$$RP$$GT$13into_pyobject17hed9988dc13477d6fE', symObjAddr: 0x3BC0, symBinAddr: 0x4E054, symSize: 0xCC }
  - { offset: 0xF6F9C, size: 0x8, addend: 0x0, symName: '__ZN4pyo35impl_16extract_argument19FunctionDescription34missing_required_keyword_arguments28_$u7b$$u7b$closure$u7d$$u7d$17ha1bab46da2e76108E', symObjAddr: 0x223C, symBinAddr: 0x4DA44, symSize: 0x84 }
  - { offset: 0xF700C, size: 0x8, addend: 0x0, symName: '__ZN4pyo35impl_16extract_argument19FunctionDescription37missing_required_positional_arguments28_$u7b$$u7b$closure$u7d$$u7d$17hfefd5a8584a62730E', symObjAddr: 0x2408, symBinAddr: 0x4DAC8, symSize: 0x78 }
  - { offset: 0xF7078, size: 0x8, addend: 0x0, symName: __ZN4pyo35impl_16extract_argument19push_parameter_list17h68ef65b4f2878c8dE, symObjAddr: 0x258C, symBinAddr: 0x4DC4C, symSize: 0x16C }
  - { offset: 0xF7104, size: 0x8, addend: 0x0, symName: __ZN4pyo35impl_16extract_argument25argument_extraction_error17h7ee791c6353aaaf9E, symObjAddr: 0x26F8, symBinAddr: 0xA0CC4, symSize: 0x26C }
  - { offset: 0xF785E, size: 0x8, addend: 0x0, symName: '__ZN9once_cell3imp17OnceCell$LT$T$GT$10initialize28_$u7b$$u7b$closure$u7d$$u7d$17hea9ce73db1697728E', symObjAddr: 0x6F6C, symBinAddr: 0x4E24C, symSize: 0x1AC }
  - { offset: 0xF79EC, size: 0x8, addend: 0x0, symName: '__ZN9once_cell4sync17OnceCell$LT$T$GT$11get_or_init28_$u7b$$u7b$closure$u7d$$u7d$17hb6d3783606be07b3E', symObjAddr: 0x72E8, symBinAddr: 0x4E5C8, symSize: 0x44 }
  - { offset: 0xF7A4C, size: 0x8, addend: 0x0, symName: '__ZN9once_cell4sync17Lazy$LT$T$C$F$GT$5force28_$u7b$$u7b$closure$u7d$$u7d$17h3098d4706b81a810E', symObjAddr: 0x7244, symBinAddr: 0x4E524, symSize: 0x70 }
  - { offset: 0xF7BF5, size: 0x8, addend: 0x0, symName: '__ZN78_$LT$once_cell..sync..Lazy$LT$T$C$F$GT$$u20$as$u20$core..ops..deref..Deref$GT$5deref17h2638ea85017d4f74E', symObjAddr: 0x6B38, symBinAddr: 0x4E228, symSize: 0x24 }
  - { offset: 0xF7E8F, size: 0x8, addend: 0x0, symName: __ZN5alloc3fmt6format17h63c120d664c56f1eE, symObjAddr: 0x69F4, symBinAddr: 0x4E120, symSize: 0xD8 }
  - { offset: 0xF7F53, size: 0x8, addend: 0x0, symName: '__ZN5alloc3fmt6format28_$u7b$$u7b$closure$u7d$$u7d$17hbf653f5f099e8165E', symObjAddr: 0x6ACC, symBinAddr: 0x4E1F8, symSize: 0x30 }
  - { offset: 0xF81D6, size: 0x8, addend: 0x0, symName: __ZN4pyo35impl_16extract_argument19FunctionDescription26missing_required_arguments17h5b5758b3f3b56e1eE, symObjAddr: 0x1840, symBinAddr: 0xA0180, symSize: 0x1F8 }
  - { offset: 0xF82E0, size: 0x8, addend: 0x0, symName: __ZN4pyo35impl_16extract_argument19FunctionDescription27unexpected_keyword_argument17hcbcf6acdc74a7fcfE, symObjAddr: 0x1A38, symBinAddr: 0xA0378, symSize: 0x124 }
  - { offset: 0xF836E, size: 0x8, addend: 0x0, symName: __ZN4pyo35impl_16extract_argument19FunctionDescription28multiple_values_for_argument17h0a66618c3f96e5ebE, symObjAddr: 0x1B5C, symBinAddr: 0xA049C, symSize: 0x110 }
  - { offset: 0xF83F4, size: 0x8, addend: 0x0, symName: __ZN4pyo35impl_16extract_argument19FunctionDescription29too_many_positional_arguments17hf2fbda08c968ffa6E, symObjAddr: 0x1C6C, symBinAddr: 0xA05AC, symSize: 0x304 }
  - { offset: 0xF8507, size: 0x8, addend: 0x0, symName: __ZN4pyo35impl_16extract_argument19FunctionDescription33positional_only_keyword_arguments17h2b2eff33a48a9aa2E, symObjAddr: 0x1F70, symBinAddr: 0xA08B0, symSize: 0x148 }
  - { offset: 0xF85CA, size: 0x8, addend: 0x0, symName: __ZN4pyo35impl_16extract_argument19FunctionDescription34missing_required_keyword_arguments17h0673dbdaf90be33eE, symObjAddr: 0x20B8, symBinAddr: 0xA09F8, symSize: 0x184 }
  - { offset: 0xF8661, size: 0x8, addend: 0x0, symName: __ZN4pyo35impl_16extract_argument19FunctionDescription37missing_required_positional_arguments17h5968f4fef705fc0aE, symObjAddr: 0x22C0, symBinAddr: 0xA0B7C, symSize: 0x148 }
  - { offset: 0xF86AA, size: 0x8, addend: 0x0, symName: __ZN4pyo35impl_16extract_argument19FunctionDescription9full_name17h2da027a5d3b01844E, symObjAddr: 0x2480, symBinAddr: 0x4DB40, symSize: 0x10C }
  - { offset: 0xF87A6, size: 0x8, addend: 0x0, symName: __ZN4pyo35types5tuple21BorrowedTupleIterator3new17h72ae7acf11a42058E, symObjAddr: 0x3990, symBinAddr: 0x4DFB4, symSize: 0x48 }
  - { offset: 0xF87E7, size: 0x8, addend: 0x0, symName: __ZN4pyo35types5tuple21BorrowedTupleIterator8get_item17h1352724faba248a1E, symObjAddr: 0x39D8, symBinAddr: 0x4DFFC, symSize: 0x58 }
  - { offset: 0xF8A41, size: 0x8, addend: 0x0, symName: '__ZN9once_cell3imp17OnceCell$LT$T$GT$10initialize17hc1808025003ea926E', symObjAddr: 0x6EE8, symBinAddr: 0xA0F30, symSize: 0x84 }
  - { offset: 0xF8AFD, size: 0x8, addend: 0x0, symName: '__ZN9once_cell3imp17OnceCell$LT$T$GT$13get_unchecked17h7c113e42b979b4d0E', symObjAddr: 0x7118, symBinAddr: 0x4E3F8, symSize: 0xAC }
  - { offset: 0xF8B45, size: 0x8, addend: 0x0, symName: '__ZN9once_cell3imp17OnceCell$LT$T$GT$14is_initialized17h1b42440203f762a2E', symObjAddr: 0x71C4, symBinAddr: 0x4E4A4, symSize: 0x30 }
  - { offset: 0xF8B70, size: 0x8, addend: 0x0, symName: '__ZN9once_cell4sync17Lazy$LT$T$C$F$GT$3get17hd429f7492240257bE', symObjAddr: 0x71F4, symBinAddr: 0x4E4D4, symSize: 0x24 }
  - { offset: 0xF8BA5, size: 0x8, addend: 0x0, symName: '__ZN9once_cell4sync17Lazy$LT$T$C$F$GT$5force17ha6bdf79e3acce46dE', symObjAddr: 0x7218, symBinAddr: 0x4E4F8, symSize: 0x2C }
  - { offset: 0xF8BE7, size: 0x8, addend: 0x0, symName: '__ZN9once_cell4sync17OnceCell$LT$T$GT$11get_or_init17he89c5e3b4ac2fe3eE', symObjAddr: 0x72B4, symBinAddr: 0x4E594, symSize: 0x34 }
  - { offset: 0xF8C2B, size: 0x8, addend: 0x0, symName: '__ZN9once_cell4sync17OnceCell$LT$T$GT$13get_unchecked17h768a7cf32f89296cE', symObjAddr: 0x732C, symBinAddr: 0x4E60C, symSize: 0x24 }
  - { offset: 0xF8C57, size: 0x8, addend: 0x0, symName: '__ZN9once_cell4sync17OnceCell$LT$T$GT$15get_or_try_init17hd95d2b5bacef0a15E', symObjAddr: 0x7350, symBinAddr: 0x4E630, symSize: 0x128 }
  - { offset: 0xF8CBA, size: 0x8, addend: 0x0, symName: '__ZN9once_cell4sync17OnceCell$LT$T$GT$3get17h4b7f2721e93f641eE', symObjAddr: 0x7478, symBinAddr: 0x4E758, symSize: 0x4C }
  - { offset: 0xF9EFF, size: 0x8, addend: 0x0, symName: __ZN4core3ptr9alignment9Alignment13new_unchecked18precondition_check17ha8fd551e7483a1b8E, symObjAddr: 0x42C4, symBinAddr: 0x4FFC0, symSize: 0x70 }
  - { offset: 0xFA010, size: 0x8, addend: 0x0, symName: '__ZN4core3ptr101drop_in_place$LT$std..sys..sync..once_box..OnceBox$LT$std..sys..pal..unix..sync..mutex..Mutex$GT$$GT$17h50673b857b279432E', symObjAddr: 0x1514, symBinAddr: 0x4EE90, symSize: 0x24 }
  - { offset: 0xFA03F, size: 0x8, addend: 0x0, symName: '__ZN4core3ptr104drop_in_place$LT$core..option..Option$LT$pyo3..instance..Py$LT$pyo3..types..module..PyModule$GT$$GT$$GT$17hcd058c35055d4fd3E', symObjAddr: 0x1580, symBinAddr: 0x4EEB4, symSize: 0x44 }
  - { offset: 0xFA06E, size: 0x8, addend: 0x0, symName: '__ZN4core3ptr104drop_in_place$LT$core..option..Option$LT$pyo3..instance..Py$LT$pyo3..types..string..PyString$GT$$GT$$GT$17h40ae200c1b792915E', symObjAddr: 0x15C4, symBinAddr: 0x4EEF8, symSize: 0x44 }
  - { offset: 0xFA09D, size: 0x8, addend: 0x0, symName: '__ZN4core3ptr106drop_in_place$LT$alloc..vec..Vec$LT$core..ptr..non_null..NonNull$LT$pyo3_ffi..object..PyObject$GT$$GT$$GT$17he3d1cd7bd8ff1a21E', symObjAddr: 0x162C, symBinAddr: 0x4EF3C, symSize: 0x5C }
  - { offset: 0xFA0CC, size: 0x8, addend: 0x0, symName: '__ZN4core3ptr106drop_in_place$LT$core..option..Option$LT$pyo3..instance..Py$LT$pyo3..types..typeobject..PyType$GT$$GT$$GT$17hfcfd9bedac787389E', symObjAddr: 0x1688, symBinAddr: 0x4EF98, symSize: 0x44 }
  - { offset: 0xFA0FB, size: 0x8, addend: 0x0, symName: '__ZN4core3ptr107drop_in_place$LT$core..pin..Pin$LT$alloc..boxed..Box$LT$std..sys..pal..unix..sync..mutex..Mutex$GT$$GT$$GT$17h25039737c3529f12E', symObjAddr: 0x16F0, symBinAddr: 0x4EFDC, symSize: 0x24 }
  - { offset: 0xFA12A, size: 0x8, addend: 0x0, symName: '__ZN4core3ptr108drop_in_place$LT$core..option..Option$LT$pyo3..instance..Py$LT$pyo3..exceptions..PyBaseException$GT$$GT$$GT$17h6740d25f6a5a9c52E', symObjAddr: 0x175C, symBinAddr: 0x4F000, symSize: 0x44 }
  - { offset: 0xFA159, size: 0x8, addend: 0x0, symName: '__ZN4core3ptr113drop_in_place$LT$alloc..raw_vec..RawVec$LT$core..ptr..non_null..NonNull$LT$pyo3_ffi..object..PyObject$GT$$GT$$GT$17h194538a2d89146a2E', symObjAddr: 0x1850, symBinAddr: 0x4F044, symSize: 0x24 }
  - { offset: 0xFA188, size: 0x8, addend: 0x0, symName: '__ZN4core3ptr113drop_in_place$LT$core..option..Option$LT$pyo3..instance..Bound$LT$pyo3..types..traceback..PyTraceback$GT$$GT$$GT$17hfd1198081bc6a2d7E', symObjAddr: 0x1874, symBinAddr: 0x4F068, symSize: 0x44 }
  - { offset: 0xFA1B7, size: 0x8, addend: 0x0, symName: '__ZN4core3ptr113drop_in_place$LT$std..sync..poison..mutex..Mutex$LT$core..option..Option$LT$std..thread..id..ThreadId$GT$$GT$$GT$17h022205ac384940e4E', symObjAddr: 0x18B8, symBinAddr: 0x4F0AC, symSize: 0x24 }
  - { offset: 0xFA1E6, size: 0x8, addend: 0x0, symName: '__ZN4core3ptr115drop_in_place$LT$core..result..Result$LT$$LP$$RP$$C$pyo3..instance..Py$LT$pyo3..types..module..PyModule$GT$$GT$$GT$17h94ab7f9e9d33bc0bE', symObjAddr: 0x1924, symBinAddr: 0x4F0D0, symSize: 0x44 }
  - { offset: 0xFA215, size: 0x8, addend: 0x0, symName: '__ZN4core3ptr115drop_in_place$LT$core..result..Result$LT$$LP$$RP$$C$pyo3..instance..Py$LT$pyo3..types..string..PyString$GT$$GT$$GT$17h010204d5b18fa576E', symObjAddr: 0x1968, symBinAddr: 0x4F114, symSize: 0x44 }
  - { offset: 0xFA244, size: 0x8, addend: 0x0, symName: '__ZN4core3ptr116drop_in_place$LT$core..cell..UnsafeCell$LT$core..option..Option$LT$pyo3..err..err_state..PyErrStateInner$GT$$GT$$GT$17h736011d3dedfc2f1E', symObjAddr: 0x19AC, symBinAddr: 0x4F158, symSize: 0x24 }
  - { offset: 0xFA273, size: 0x8, addend: 0x0, symName: '__ZN4core3ptr117drop_in_place$LT$core..result..Result$LT$$LP$$RP$$C$pyo3..instance..Py$LT$pyo3..types..typeobject..PyType$GT$$GT$$GT$17h7efd1fc87465f11aE', symObjAddr: 0x1A94, symBinAddr: 0x4F17C, symSize: 0x44 }
  - { offset: 0xFA2A2, size: 0x8, addend: 0x0, symName: '__ZN4core3ptr118drop_in_place$LT$core..array..iter..IntoIter$LT$pyo3..instance..Bound$LT$pyo3..types..any..PyAny$GT$$C$1_usize$GT$$GT$17h4d0fde4527c728ffE', symObjAddr: 0x1B58, symBinAddr: 0x4F1C0, symSize: 0x24 }
  - { offset: 0xFA2D1, size: 0x8, addend: 0x0, symName: '__ZN4core3ptr118drop_in_place$LT$std..sync..poison..mutex..MutexGuard$LT$core..option..Option$LT$std..thread..id..ThreadId$GT$$GT$$GT$17h263db632c6a35433E', symObjAddr: 0x1BE8, symBinAddr: 0x4F1E4, symSize: 0x24 }
  - { offset: 0xFA300, size: 0x8, addend: 0x0, symName: '__ZN4core3ptr122drop_in_place$LT$alloc..vec..into_iter..IntoIter$LT$core..ptr..non_null..NonNull$LT$pyo3_ffi..object..PyObject$GT$$GT$$GT$17ha55ffea565e85cd0E', symObjAddr: 0x1C5C, symBinAddr: 0x4F208, symSize: 0x24 }
  - { offset: 0xFA32F, size: 0x8, addend: 0x0, symName: '__ZN4core3ptr126drop_in_place$LT$core..result..Result$LT$pyo3..instance..Bound$LT$pyo3..types..string..PyString$GT$$C$pyo3..err..PyErr$GT$$GT$17h685a650f1d4afbb3E', symObjAddr: 0x1D04, symBinAddr: 0x4F22C, symSize: 0x50 }
  - { offset: 0xFA35E, size: 0x8, addend: 0x0, symName: '__ZN4core3ptr132drop_in_place$LT$pyo3..err..PyErr..new$LT$pyo3..exceptions..PyTypeError$C$alloc..string..String$GT$..$u7b$$u7b$closure$u7d$$u7d$$GT$17h8b6b7c1eef6f82c6E', symObjAddr: 0x1E40, symBinAddr: 0x4F27C, symSize: 0x24 }
  - { offset: 0xFA38D, size: 0x8, addend: 0x0, symName: '__ZN4core3ptr133drop_in_place$LT$pyo3..err..PyErr..new$LT$pyo3..exceptions..PyValueError$C$alloc..string..String$GT$..$u7b$$u7b$closure$u7d$$u7d$$GT$17hd789434514acad18E', symObjAddr: 0x1E64, symBinAddr: 0x4F2A0, symSize: 0x24 }
  - { offset: 0xFA3BC, size: 0x8, addend: 0x0, symName: '__ZN4core3ptr135drop_in_place$LT$core..option..Option$LT$core..pin..Pin$LT$alloc..boxed..Box$LT$std..sys..pal..unix..sync..mutex..Mutex$GT$$GT$$GT$$GT$17hc2de7ef610ce25c7E', symObjAddr: 0x1E88, symBinAddr: 0x4F2C4, symSize: 0x44 }
  - { offset: 0xFA3EB, size: 0x8, addend: 0x0, symName: '__ZN4core3ptr136drop_in_place$LT$core..cell..UnsafeCell$LT$alloc..vec..Vec$LT$core..ptr..non_null..NonNull$LT$pyo3_ffi..object..PyObject$GT$$GT$$GT$$GT$17h5ef7c7cef23c30caE', symObjAddr: 0x1F5C, symBinAddr: 0x4F308, symSize: 0x24 }
  - { offset: 0xFA41A, size: 0x8, addend: 0x0, symName: '__ZN4core3ptr141drop_in_place$LT$pyo3..err..PyErr..new$LT$pyo3..panic..PanicException$C$$LP$alloc..string..String$C$$RP$$GT$..$u7b$$u7b$closure$u7d$$u7d$$GT$17h7c9f71029e1892efE', symObjAddr: 0x2130, symBinAddr: 0x4F32C, symSize: 0x24 }
  - { offset: 0xFA449, size: 0x8, addend: 0x0, symName: '__ZN4core3ptr145drop_in_place$LT$std..sync..poison..mutex..Mutex$LT$alloc..vec..Vec$LT$core..ptr..non_null..NonNull$LT$pyo3_ffi..object..PyObject$GT$$GT$$GT$$GT$17h219752cf0b8df02dE', symObjAddr: 0x222C, symBinAddr: 0x4F350, symSize: 0x60 }
  - { offset: 0xFA478, size: 0x8, addend: 0x0, symName: '__ZN4core3ptr146drop_in_place$LT$pyo3..err..PyErr..new$LT$pyo3..exceptions..PyTypeError$C$pyo3..err..PyDowncastErrorArguments$GT$..$u7b$$u7b$closure$u7d$$u7d$$GT$17h6dc2dbd1ffbad80eE', symObjAddr: 0x22B0, symBinAddr: 0x4F3B0, symSize: 0x24 }
  - { offset: 0xFA4A7, size: 0x8, addend: 0x0, symName: '__ZN4core3ptr150drop_in_place$LT$std..sync..poison..mutex..MutexGuard$LT$alloc..vec..Vec$LT$core..ptr..non_null..NonNull$LT$pyo3_ffi..object..PyObject$GT$$GT$$GT$$GT$17h454d3aaa6cd9d6d9E', symObjAddr: 0x22F8, symBinAddr: 0x4F3D4, symSize: 0x24 }
  - { offset: 0xFA4D6, size: 0x8, addend: 0x0, symName: '__ZN4core3ptr155drop_in_place$LT$pyo3..err..err_state..PyErrState..lazy_arguments$LT$pyo3..instance..Py$LT$pyo3..types..any..PyAny$GT$$GT$..$u7b$$u7b$closure$u7d$$u7d$$GT$17h7e44b02cc2455609E', symObjAddr: 0x2364, symBinAddr: 0x4F3F8, symSize: 0x60 }
  - { offset: 0xFA505, size: 0x8, addend: 0x0, symName: '__ZN4core3ptr156drop_in_place$LT$std..sync..poison..PoisonError$LT$std..sync..poison..mutex..MutexGuard$LT$core..option..Option$LT$std..thread..id..ThreadId$GT$$GT$$GT$$GT$17h1986b797a115df49E', symObjAddr: 0x23C4, symBinAddr: 0x4F458, symSize: 0x24 }
  - { offset: 0xFA534, size: 0x8, addend: 0x0, symName: '__ZN4core3ptr157drop_in_place$LT$pyo3..err..err_state..PyErrState..make_normalized..$u7b$$u7b$closure$u7d$$u7d$..$u7b$$u7b$closure$u7d$$u7d$..$u7b$$u7b$closure$u7d$$u7d$$GT$17hadd07884c9600da9E', symObjAddr: 0x23E8, symBinAddr: 0x4F47C, symSize: 0x24 }
  - { offset: 0xFA563, size: 0x8, addend: 0x0, symName: '__ZN4core3ptr168drop_in_place$LT$core..iter..adapters..enumerate..Enumerate$LT$core..array..iter..IntoIter$LT$pyo3..instance..Bound$LT$pyo3..types..any..PyAny$GT$$C$1_usize$GT$$GT$$GT$17h4461cc3d9777365dE', symObjAddr: 0x2430, symBinAddr: 0x4F4A0, symSize: 0x24 }
  - { offset: 0xFA592, size: 0x8, addend: 0x0, symName: '__ZN4core3ptr181drop_in_place$LT$hashbrown..scopeguard..ScopeGuard$LT$$RF$mut$u20$hashbrown..raw..RawTableInner$C$hashbrown..raw..RawTableInner..rehash_in_place..$u7b$$u7b$closure$u7d$$u7d$$GT$$GT$17h80ff26090b1c8f98E', symObjAddr: 0x24C0, symBinAddr: 0x4F4C4, symSize: 0x24 }
  - { offset: 0xFA5C1, size: 0x8, addend: 0x0, symName: '__ZN4core3ptr188drop_in_place$LT$std..sync..poison..PoisonError$LT$std..sync..poison..mutex..MutexGuard$LT$alloc..vec..Vec$LT$core..ptr..non_null..NonNull$LT$pyo3_ffi..object..PyObject$GT$$GT$$GT$$GT$$GT$17h1d224f4064c6b8a1E', symObjAddr: 0x24E4, symBinAddr: 0x4F4E8, symSize: 0x24 }
  - { offset: 0xFA5F0, size: 0x8, addend: 0x0, symName: '__ZN4core3ptr192drop_in_place$LT$core..array..iter..iter_inner..PolymorphicIter$LT$$u5b$core..mem..maybe_uninit..MaybeUninit$LT$pyo3..instance..Bound$LT$pyo3..types..any..PyAny$GT$$GT$$u3b$$u20$1$u5d$$GT$$GT$17h195a34f07272493bE', symObjAddr: 0x2508, symBinAddr: 0x4F50C, symSize: 0x24 }
  - { offset: 0xFA61F, size: 0x8, addend: 0x0, symName: '__ZN4core3ptr196drop_in_place$LT$hashbrown..scopeguard..ScopeGuard$LT$hashbrown..raw..RawTableInner$C$hashbrown..raw..RawTableInner..prepare_resize$LT$alloc..alloc..Global$GT$..$u7b$$u7b$closure$u7d$$u7d$$GT$$GT$17h15e2b38bea5cd201E', symObjAddr: 0x2598, symBinAddr: 0x4F530, symSize: 0x24 }
  - { offset: 0xFA64E, size: 0x8, addend: 0x0, symName: '__ZN4core3ptr216drop_in_place$LT$$LT$alloc..vec..into_iter..IntoIter$LT$T$C$A$GT$$u20$as$u20$core..ops..drop..Drop$GT$..drop..DropGuard$LT$core..ptr..non_null..NonNull$LT$pyo3_ffi..object..PyObject$GT$$C$alloc..alloc..Global$GT$$GT$17h30168967fdb7d9f4E', symObjAddr: 0x264C, symBinAddr: 0x4F554, symSize: 0x24 }
  - { offset: 0xFA67D, size: 0x8, addend: 0x0, symName: '__ZN4core3ptr236drop_in_place$LT$alloc..boxed..Box$LT$dyn$u20$core..ops..function..FnOnce$LT$$LP$pyo3..marker..Python$C$$RP$$GT$$u2b$Output$u20$$u3d$$u20$pyo3..err..err_state..PyErrStateLazyFnOutput$u2b$core..marker..Sync$u2b$core..marker..Send$GT$$GT$17h1bc539a5b210e453E', symObjAddr: 0x27A4, symBinAddr: 0x4F578, symSize: 0x80 }
  - { offset: 0xFA6AC, size: 0x8, addend: 0x0, symName: '__ZN4core3ptr37drop_in_place$LT$pyo3..err..PyErr$GT$17h001f88385fcc503dE', symObjAddr: 0x2958, symBinAddr: 0x4F5F8, symSize: 0x24 }
  - { offset: 0xFA6DB, size: 0x8, addend: 0x0, symName: '__ZN4core3ptr40drop_in_place$LT$pyo3..gil..GILGuard$GT$17h6bbbe579ac32e688E', symObjAddr: 0x297C, symBinAddr: 0x4F61C, symSize: 0x60 }
  - { offset: 0xFA70A, size: 0x8, addend: 0x0, symName: '__ZN4core3ptr42drop_in_place$LT$alloc..string..String$GT$17ha50da33f54af8324E', symObjAddr: 0x2A24, symBinAddr: 0x4F67C, symSize: 0x24 }
  - { offset: 0xFA739, size: 0x8, addend: 0x0, symName: '__ZN4core3ptr42drop_in_place$LT$pyo3..gil..SuspendGIL$GT$17hd1e1d3232e0ef86aE', symObjAddr: 0x2A48, symBinAddr: 0x4F6A0, symSize: 0x24 }
  - { offset: 0xFA768, size: 0x8, addend: 0x0, symName: '__ZN4core3ptr45drop_in_place$LT$pyo3..gil..ReferencePool$GT$17h9aecbabc2db15ac4E', symObjAddr: 0x2AD8, symBinAddr: 0x4F6C4, symSize: 0x24 }
  - { offset: 0xFA797, size: 0x8, addend: 0x0, symName: '__ZN4core3ptr50drop_in_place$LT$alloc..borrow..Cow$LT$str$GT$$GT$17h6f971ddf4f90b084E', symObjAddr: 0x2BE8, symBinAddr: 0x4F6E8, symSize: 0x48 }
  - { offset: 0xFA7C6, size: 0x8, addend: 0x0, symName: '__ZN4core3ptr50drop_in_place$LT$pyo3..impl_..panic..PanicTrap$GT$17h7e9331246e3a633bE', symObjAddr: 0x2C30, symBinAddr: 0x4F730, symSize: 0x24 }
  - { offset: 0xFA7F5, size: 0x8, addend: 0x0, symName: '__ZN4core3ptr51drop_in_place$LT$alloc..vec..Vec$LT$$RF$str$GT$$GT$17h03f290fcf814ded7E', symObjAddr: 0x2C54, symBinAddr: 0x4F754, symSize: 0x5C }
  - { offset: 0xFA824, size: 0x8, addend: 0x0, symName: '__ZN4core3ptr53drop_in_place$LT$$LP$alloc..string..String$C$$RP$$GT$17h6b835cabffa49ba0E', symObjAddr: 0x2CB0, symBinAddr: 0x4F7B0, symSize: 0x24 }
  - { offset: 0xFA853, size: 0x8, addend: 0x0, symName: '__ZN4core3ptr53drop_in_place$LT$pyo3..err..err_state..PyErrState$GT$17h236880b973282985E', symObjAddr: 0x2CD4, symBinAddr: 0x4F7D4, symSize: 0x64 }
  - { offset: 0xFA882, size: 0x8, addend: 0x0, symName: '__ZN4core3ptr56drop_in_place$LT$pyo3..err..PyDowncastErrorArguments$GT$17h990776e0c8f61a2aE', symObjAddr: 0x2D5C, symBinAddr: 0x4F838, symSize: 0x5C }
  - { offset: 0xFA8B1, size: 0x8, addend: 0x0, symName: '__ZN4core3ptr58drop_in_place$LT$alloc..raw_vec..RawVec$LT$$RF$str$GT$$GT$17hef654664b3da7205E', symObjAddr: 0x2E2C, symBinAddr: 0x4F894, symSize: 0x24 }
  - { offset: 0xFA8E0, size: 0x8, addend: 0x0, symName: '__ZN4core3ptr58drop_in_place$LT$pyo3..err..err_state..PyErrStateInner$GT$17h0e5c3a51ba5587d9E', symObjAddr: 0x2E50, symBinAddr: 0x4F8B8, symSize: 0x58 }
  - { offset: 0xFA90F, size: 0x8, addend: 0x0, symName: '__ZN4core3ptr58drop_in_place$LT$std..sys..sync..mutex..pthread..Mutex$GT$17h77140f6ddbab32e8E', symObjAddr: 0x2EA8, symBinAddr: 0x4F910, symSize: 0x5C }
  - { offset: 0xFA93E, size: 0x8, addend: 0x0, symName: '__ZN4core3ptr60drop_in_place$LT$std..sys..pal..unix..sync..mutex..Mutex$GT$17h5debf7ca8b1fa978E', symObjAddr: 0x2F4C, symBinAddr: 0x4F96C, symSize: 0x24 }
  - { offset: 0xFA96D, size: 0x8, addend: 0x0, symName: '__ZN4core3ptr63drop_in_place$LT$pyo3..err..err_state..PyErrStateNormalized$GT$17hc33f7bb93095f3d4E', symObjAddr: 0x2FB8, symBinAddr: 0x4F990, symSize: 0x24 }
  - { offset: 0xFA99C, size: 0x8, addend: 0x0, symName: '__ZN4core3ptr65drop_in_place$LT$core..option..Option$LT$pyo3..err..PyErr$GT$$GT$17hefc93f84e81ef647E', symObjAddr: 0x2FDC, symBinAddr: 0x4F9B4, symSize: 0x40 }
  - { offset: 0xFA9CB, size: 0x8, addend: 0x0, symName: '__ZN4core3ptr70drop_in_place$LT$pyo3..instance..Py$LT$pyo3..types..any..PyAny$GT$$GT$17h13ec7c1bc5d50d37E', symObjAddr: 0x3200, symBinAddr: 0x4F9F4, symSize: 0x2C }
  - { offset: 0xFA9FA, size: 0x8, addend: 0x0, symName: '__ZN4core3ptr73drop_in_place$LT$core..option..Option$LT$pyo3..gil..ReferencePool$GT$$GT$17h473b6457b4545fa5E', symObjAddr: 0x3364, symBinAddr: 0x4FA20, symSize: 0x40 }
  - { offset: 0xFAA29, size: 0x8, addend: 0x0, symName: '__ZN4core3ptr73drop_in_place$LT$pyo3..instance..Bound$LT$pyo3..types..any..PyAny$GT$$GT$17h8d2b1682c0623414E', symObjAddr: 0x33C8, symBinAddr: 0x4FA60, symSize: 0x24 }
  - { offset: 0xFAA58, size: 0x8, addend: 0x0, symName: '__ZN4core3ptr75drop_in_place$LT$core..result..Result$LT$$RF$str$C$pyo3..err..PyErr$GT$$GT$17h38963c692d372508E', symObjAddr: 0x34E0, symBinAddr: 0x4FA84, symSize: 0x40 }
  - { offset: 0xFAA87, size: 0x8, addend: 0x0, symName: '__ZN4core3ptr75drop_in_place$LT$pyo3..instance..Bound$LT$pyo3..types..dict..PyDict$GT$$GT$17hedff581dbde4049eE', symObjAddr: 0x3520, symBinAddr: 0x4FAC4, symSize: 0x24 }
  - { offset: 0xFAAB6, size: 0x8, addend: 0x0, symName: '__ZN4core3ptr75drop_in_place$LT$pyo3..instance..Bound$LT$pyo3..types..list..PyList$GT$$GT$17hcbdd6775f318584fE', symObjAddr: 0x3544, symBinAddr: 0x4FAE8, symSize: 0x24 }
  - { offset: 0xFAAE5, size: 0x8, addend: 0x0, symName: '__ZN4core3ptr76drop_in_place$LT$core..result..Result$LT$$LP$$RP$$C$pyo3..err..PyErr$GT$$GT$17h98ee6458ee2b8514E', symObjAddr: 0x358C, symBinAddr: 0x4FB0C, symSize: 0x40 }
  - { offset: 0xFAB14, size: 0x8, addend: 0x0, symName: '__ZN4core3ptr76drop_in_place$LT$pyo3..instance..Py$LT$pyo3..types..module..PyModule$GT$$GT$17h4d9dc8dbea4cb124E', symObjAddr: 0x35CC, symBinAddr: 0x4FB4C, symSize: 0x2C }
  - { offset: 0xFAB43, size: 0x8, addend: 0x0, symName: '__ZN4core3ptr76drop_in_place$LT$pyo3..instance..Py$LT$pyo3..types..string..PyString$GT$$GT$17h0ca6873dc7986321E', symObjAddr: 0x35F8, symBinAddr: 0x4FB78, symSize: 0x2C }
  - { offset: 0xFAB72, size: 0x8, addend: 0x0, symName: '__ZN4core3ptr77drop_in_place$LT$pyo3..instance..Bound$LT$pyo3..types..bytes..PyBytes$GT$$GT$17he40df94bd1c9bb2bE', symObjAddr: 0x3648, symBinAddr: 0x4FBA4, symSize: 0x24 }
  - { offset: 0xFABA1, size: 0x8, addend: 0x0, symName: '__ZN4core3ptr77drop_in_place$LT$pyo3..instance..Bound$LT$pyo3..types..tuple..PyTuple$GT$$GT$17hdf986eec76562d6dE', symObjAddr: 0x366C, symBinAddr: 0x4FBC8, symSize: 0x24 }
  - { offset: 0xFABD0, size: 0x8, addend: 0x0, symName: '__ZN4core3ptr78drop_in_place$LT$pyo3..instance..Py$LT$pyo3..types..typeobject..PyType$GT$$GT$17hb3a3a1c4f57df7f5E', symObjAddr: 0x376C, symBinAddr: 0x4FBEC, symSize: 0x2C }
  - { offset: 0xFABFF, size: 0x8, addend: 0x0, symName: '__ZN4core3ptr79drop_in_place$LT$pyo3..instance..Bound$LT$pyo3..types..string..PyString$GT$$GT$17h7df2d18e8e902bd8E', symObjAddr: 0x3874, symBinAddr: 0x4FC18, symSize: 0x24 }
  - { offset: 0xFAC2E, size: 0x8, addend: 0x0, symName: '__ZN4core3ptr80drop_in_place$LT$pyo3..instance..Py$LT$pyo3..exceptions..PyBaseException$GT$$GT$17h46531cc0c1ac575aE', symObjAddr: 0x39A4, symBinAddr: 0x4FC3C, symSize: 0x2C }
  - { offset: 0xFAC5D, size: 0x8, addend: 0x0, symName: '__ZN4core3ptr81drop_in_place$LT$pyo3..instance..Bound$LT$pyo3..types..typeobject..PyType$GT$$GT$17hae4bd6a15592bdb5E', symObjAddr: 0x39F4, symBinAddr: 0x4FC68, symSize: 0x24 }
  - { offset: 0xFAC8C, size: 0x8, addend: 0x0, symName: '__ZN4core3ptr83drop_in_place$LT$$u5b$pyo3..instance..Bound$LT$pyo3..types..any..PyAny$GT$$u5d$$GT$17h61d1a5a6888da345E', symObjAddr: 0x3A18, symBinAddr: 0x4FC8C, symSize: 0xB4 }
  - { offset: 0xFACBB, size: 0x8, addend: 0x0, symName: '__ZN4core3ptr83drop_in_place$LT$pyo3..instance..Bound$LT$pyo3..exceptions..PyBaseException$GT$$GT$17heeb1056065cd9f71E', symObjAddr: 0x3ACC, symBinAddr: 0x4FD40, symSize: 0x24 }
  - { offset: 0xFACEA, size: 0x8, addend: 0x0, symName: '__ZN4core3ptr84drop_in_place$LT$pyo3..instance..Bound$LT$pyo3..types..function..PyCFunction$GT$$GT$17haefe5f13b02e9329E', symObjAddr: 0x3B38, symBinAddr: 0x4FD64, symSize: 0x24 }
  - { offset: 0xFAD19, size: 0x8, addend: 0x0, symName: '__ZN4core3ptr85drop_in_place$LT$alloc..boxed..Box$LT$std..sys..pal..unix..sync..mutex..Mutex$GT$$GT$17hfe0b8c7aeb7348d6E', symObjAddr: 0x3C10, symBinAddr: 0x4FD88, symSize: 0x60 }
  - { offset: 0xFAD48, size: 0x8, addend: 0x0, symName: '__ZN4core3ptr85drop_in_place$LT$pyo3..instance..Bound$LT$pyo3..types..traceback..PyTraceback$GT$$GT$17he7c5758add878a25E', symObjAddr: 0x3D24, symBinAddr: 0x4FDE8, symSize: 0x24 }
  - { offset: 0xFAD77, size: 0x8, addend: 0x0, symName: '__ZN4core3ptr86drop_in_place$LT$core..option..Option$LT$pyo3..err..err_state..PyErrStateInner$GT$$GT$17h940548427ee33741E', symObjAddr: 0x3D90, symBinAddr: 0x4FE0C, symSize: 0x40 }
  - { offset: 0xFADA6, size: 0x8, addend: 0x0, symName: '__ZN4core3ptr91drop_in_place$LT$alloc..boxed..Box$LT$dyn$u20$core..any..Any$u2b$core..marker..Send$GT$$GT$17hef64250af4b3411eE', symObjAddr: 0x3DD0, symBinAddr: 0x4FE4C, symSize: 0x80 }
  - { offset: 0xFADD5, size: 0x8, addend: 0x0, symName: '__ZN4core3ptr94drop_in_place$LT$$u5b$pyo3..instance..Bound$LT$pyo3..types..any..PyAny$GT$$u3b$$u20$1$u5d$$GT$17hcaef890dcc9ed8fdE', symObjAddr: 0x3F18, symBinAddr: 0x4FECC, symSize: 0xA4 }
  - { offset: 0xFAE04, size: 0x8, addend: 0x0, symName: '__ZN4core3ptr97drop_in_place$LT$core..result..Result$LT$alloc..borrow..Cow$LT$str$GT$$C$pyo3..err..PyErr$GT$$GT$17h8510b26c4516328dE', symObjAddr: 0x41D4, symBinAddr: 0x4FF70, symSize: 0x50 }
  - { offset: 0xFB980, size: 0x8, addend: 0x0, symName: '__ZN44_$LT$$RF$T$u20$as$u20$core..fmt..Display$GT$3fmt17had3cca3393111190E', symObjAddr: 0x300, symBinAddr: 0x4E7A4, symSize: 0x30 }
  - { offset: 0xFBA60, size: 0x8, addend: 0x0, symName: '__ZN4core3ops8function6FnOnce40call_once$u7b$$u7b$vtable.shim$u7d$$u7d$17h0e860ad786b44f4cE', symObjAddr: 0x39C, symBinAddr: 0x4E7D4, symSize: 0x30 }
  - { offset: 0xFBAA4, size: 0x8, addend: 0x0, symName: '__ZN4core3ops8function6FnOnce40call_once$u7b$$u7b$vtable.shim$u7d$$u7d$17h113f25761e768173E', symObjAddr: 0x3CC, symBinAddr: 0x4E804, symSize: 0x24 }
  - { offset: 0xFBAE8, size: 0x8, addend: 0x0, symName: '__ZN4core3ops8function6FnOnce40call_once$u7b$$u7b$vtable.shim$u7d$$u7d$17h197c9d80468b23c1E', symObjAddr: 0x3F0, symBinAddr: 0x4E828, symSize: 0x24 }
  - { offset: 0xFBB2C, size: 0x8, addend: 0x0, symName: '__ZN4core3ops8function6FnOnce40call_once$u7b$$u7b$vtable.shim$u7d$$u7d$17h63519be454187af7E', symObjAddr: 0x638, symBinAddr: 0x4E84C, symSize: 0x24 }
  - { offset: 0xFBB70, size: 0x8, addend: 0x0, symName: '__ZN4core3ops8function6FnOnce40call_once$u7b$$u7b$vtable.shim$u7d$$u7d$17h6b01928d925a9a09E', symObjAddr: 0x65C, symBinAddr: 0x4E870, symSize: 0x24 }
  - { offset: 0xFBBB4, size: 0x8, addend: 0x0, symName: '__ZN4core3ops8function6FnOnce40call_once$u7b$$u7b$vtable.shim$u7d$$u7d$17h6c89995f18514320E', symObjAddr: 0x680, symBinAddr: 0x4E894, symSize: 0x30 }
  - { offset: 0xFBBF4, size: 0x8, addend: 0x0, symName: '__ZN4core3ops8function6FnOnce40call_once$u7b$$u7b$vtable.shim$u7d$$u7d$17h80cefc6179684227E', symObjAddr: 0x6E0, symBinAddr: 0x4E8C4, symSize: 0x30 }
  - { offset: 0xFBC34, size: 0x8, addend: 0x0, symName: '__ZN4core3ops8function6FnOnce40call_once$u7b$$u7b$vtable.shim$u7d$$u7d$17h9f5814dfd26d8e8bE', symObjAddr: 0x768, symBinAddr: 0x4E8F4, symSize: 0x30 }
  - { offset: 0xFBC74, size: 0x8, addend: 0x0, symName: '__ZN4core3ops8function6FnOnce40call_once$u7b$$u7b$vtable.shim$u7d$$u7d$17ha295397302de6e16E', symObjAddr: 0x798, symBinAddr: 0x4E924, symSize: 0x30 }
  - { offset: 0xFBCB8, size: 0x8, addend: 0x0, symName: '__ZN4core3ops8function6FnOnce40call_once$u7b$$u7b$vtable.shim$u7d$$u7d$17haac81e44e3250ec1E', symObjAddr: 0x7F0, symBinAddr: 0x4E954, symSize: 0x24 }
  - { offset: 0xFBCFC, size: 0x8, addend: 0x0, symName: '__ZN4core3ops8function6FnOnce40call_once$u7b$$u7b$vtable.shim$u7d$$u7d$17hb9977c476759aae1E', symObjAddr: 0x858, symBinAddr: 0x4E978, symSize: 0x30 }
  - { offset: 0xFBD3C, size: 0x8, addend: 0x0, symName: '__ZN4core3ops8function6FnOnce40call_once$u7b$$u7b$vtable.shim$u7d$$u7d$17hbc27edbb1fd9f6b6E', symObjAddr: 0x888, symBinAddr: 0x4E9A8, symSize: 0x30 }
  - { offset: 0xFBD80, size: 0x8, addend: 0x0, symName: '__ZN4core3ops8function6FnOnce40call_once$u7b$$u7b$vtable.shim$u7d$$u7d$17hcd3d2e1adf62faecE', symObjAddr: 0x954, symBinAddr: 0x4E9D8, symSize: 0x30 }
  - { offset: 0xFBDC0, size: 0x8, addend: 0x0, symName: '__ZN4core3ops8function6FnOnce40call_once$u7b$$u7b$vtable.shim$u7d$$u7d$17hd1e66930625b7a34E', symObjAddr: 0x9A4, symBinAddr: 0x4EA08, symSize: 0x30 }
  - { offset: 0xFBE00, size: 0x8, addend: 0x0, symName: '__ZN4core3ops8function6FnOnce40call_once$u7b$$u7b$vtable.shim$u7d$$u7d$17hda266874b85fa961E', symObjAddr: 0xA50, symBinAddr: 0x4EA38, symSize: 0x30 }
  - { offset: 0xFBE44, size: 0x8, addend: 0x0, symName: '__ZN4core3ops8function6FnOnce40call_once$u7b$$u7b$vtable.shim$u7d$$u7d$17hec33c73980027902E', symObjAddr: 0xB1C, symBinAddr: 0x4EA68, symSize: 0x30 }
  - { offset: 0xFBE84, size: 0x8, addend: 0x0, symName: __ZN4core3ops8function6FnOnce9call_once17h03fefb29ee170cc2E, symObjAddr: 0xB74, symBinAddr: 0x4EA98, symSize: 0x4C }
  - { offset: 0xFBEC4, size: 0x8, addend: 0x0, symName: __ZN4core3ops8function6FnOnce9call_once17h0fa39fe73cab2693E, symObjAddr: 0xBE4, symBinAddr: 0x4EAE4, symSize: 0x4C }
  - { offset: 0xFBF04, size: 0x8, addend: 0x0, symName: __ZN4core3ops8function6FnOnce9call_once17h0fa93bdd34a094baE, symObjAddr: 0xC30, symBinAddr: 0x4EB30, symSize: 0x4C }
  - { offset: 0xFBF44, size: 0x8, addend: 0x0, symName: __ZN4core3ops8function6FnOnce9call_once17h14a10368e8206fc7E, symObjAddr: 0xCC8, symBinAddr: 0x4EB7C, symSize: 0x40 }
  - { offset: 0xFBF89, size: 0x8, addend: 0x0, symName: __ZN4core3ops8function6FnOnce9call_once17h1e464183dc016846E, symObjAddr: 0xD08, symBinAddr: 0x4EBBC, symSize: 0x4C }
  - { offset: 0xFBFC9, size: 0x8, addend: 0x0, symName: __ZN4core3ops8function6FnOnce9call_once17h23bf6cf4197088fdE, symObjAddr: 0xD54, symBinAddr: 0x4EC08, symSize: 0x4C }
  - { offset: 0xFC009, size: 0x8, addend: 0x0, symName: __ZN4core3ops8function6FnOnce9call_once17h41b5e932d57f726eE, symObjAddr: 0xE48, symBinAddr: 0x4EC54, symSize: 0x2C }
  - { offset: 0xFC04D, size: 0x8, addend: 0x0, symName: __ZN4core3ops8function6FnOnce9call_once17h43a677535176f8aaE, symObjAddr: 0xE74, symBinAddr: 0x4EC80, symSize: 0x24 }
  - { offset: 0xFC091, size: 0x8, addend: 0x0, symName: __ZN4core3ops8function6FnOnce9call_once17h481dbc1d67e911d1E, symObjAddr: 0xE98, symBinAddr: 0x4ECA4, symSize: 0x1C }
  - { offset: 0xFC0D5, size: 0x8, addend: 0x0, symName: __ZN4core3ops8function6FnOnce9call_once17h514c09c0f53f733eE, symObjAddr: 0xEB4, symBinAddr: 0x4ECC0, symSize: 0x4C }
  - { offset: 0xFC115, size: 0x8, addend: 0x0, symName: __ZN4core3ops8function6FnOnce9call_once17h5a08475f8c2f1772E, symObjAddr: 0xF00, symBinAddr: 0x4ED0C, symSize: 0x20 }
  - { offset: 0xFC159, size: 0x8, addend: 0x0, symName: __ZN4core3ops8function6FnOnce9call_once17h76845ba6a1aeed52E, symObjAddr: 0xF44, symBinAddr: 0x4ED2C, symSize: 0x4C }
  - { offset: 0xFC199, size: 0x8, addend: 0x0, symName: __ZN4core3ops8function6FnOnce9call_once17h7ee1cd9080edd138E, symObjAddr: 0xF90, symBinAddr: 0x4ED78, symSize: 0x24 }
  - { offset: 0xFC1DD, size: 0x8, addend: 0x0, symName: __ZN4core3ops8function6FnOnce9call_once17h9055274e377810e7E, symObjAddr: 0x104C, symBinAddr: 0x4ED9C, symSize: 0x2C }
  - { offset: 0xFC221, size: 0x8, addend: 0x0, symName: __ZN4core3ops8function6FnOnce9call_once17h99d0280c778acbddE, symObjAddr: 0x1128, symBinAddr: 0x4EDC8, symSize: 0x24 }
  - { offset: 0xFC265, size: 0x8, addend: 0x0, symName: __ZN4core3ops8function6FnOnce9call_once17hbde8be57d594c54eE, symObjAddr: 0x11E4, symBinAddr: 0x4EDEC, symSize: 0x4C }
  - { offset: 0xFC2A9, size: 0x8, addend: 0x0, symName: __ZN4core3ops8function6FnOnce9call_once17hee49adf195a0841dE, symObjAddr: 0x1380, symBinAddr: 0x4EE38, symSize: 0x24 }
  - { offset: 0xFC2ED, size: 0x8, addend: 0x0, symName: __ZN4core3ops8function6FnOnce9call_once17hf000be4eef476761E, symObjAddr: 0x13A4, symBinAddr: 0x4EE5C, symSize: 0x34 }
  - { offset: 0xFC383, size: 0x8, addend: 0x0, symName: __ZN4core4char7methods25encode_utf8_raw_unchecked17h7365b0af6321bdebE, symObjAddr: 0x46B4, symBinAddr: 0x50030, symSize: 0x188 }
  - { offset: 0xFC539, size: 0x8, addend: 0x0, symName: __ZN4core5slice3raw14from_raw_parts17h47abff45400b5b3cE, symObjAddr: 0x483C, symBinAddr: 0x501B8, symSize: 0x58 }
  - { offset: 0xFC581, size: 0x8, addend: 0x0, symName: __ZN4core5slice3raw14from_raw_parts18precondition_check17h07d31afb56f6b4f6E, symObjAddr: 0x4894, symBinAddr: 0x50210, symSize: 0x10C }
  - { offset: 0xFC769, size: 0x8, addend: 0x0, symName: '__ZN50_$LT$T$u20$as$u20$core..convert..Into$LT$U$GT$$GT$4into17h866948046136c07bE', symObjAddr: 0x669C, symBinAddr: 0x50430, symSize: 0x14 }
  - { offset: 0xFD15D, size: 0x8, addend: 0x0, symName: __ZN4pyo35impl_10trampoline33panic_result_into_callback_output17h88d9751d70af1955E, symObjAddr: 0x645C, symBinAddr: 0x5031C, symSize: 0x114 }
  - { offset: 0xFDC89, size: 0x8, addend: 0x0, symName: __ZN5alloc6borrow3Cow8Borrowed17h8cbf8fc6a5ae06c1E, symObjAddr: 0x6948, symBinAddr: 0x504B8, symSize: 0x2C }
  - { offset: 0xFDCC1, size: 0x8, addend: 0x0, symName: '__ZN71_$LT$alloc..borrow..Cow$LT$B$GT$$u20$as$u20$core..ops..deref..Deref$GT$5deref17ha727240cdb785942E', symObjAddr: 0x6AC8, symBinAddr: 0x50594, symSize: 0x78 }
  - { offset: 0xFDD1C, size: 0x8, addend: 0x0, symName: '__ZN66_$LT$alloc..borrow..Cow$LT$B$GT$$u20$as$u20$core..fmt..Display$GT$3fmt17hcac76a25cd36de0aE', symObjAddr: 0x6A44, symBinAddr: 0x50510, symSize: 0x84 }
  - { offset: 0xFDE05, size: 0x8, addend: 0x0, symName: '__ZN5alloc6string94_$LT$impl$u20$core..convert..From$LT$$RF$str$GT$$u20$for$u20$alloc..borrow..Cow$LT$str$GT$$GT$4from17h145d6ceeed7c687bE', symObjAddr: 0x6974, symBinAddr: 0x504E4, symSize: 0x2C }
  - { offset: 0xFDFAC, size: 0x8, addend: 0x0, symName: '__ZN5alloc6borrow12Cow$LT$B$GT$10into_owned17h74b482495a9eb0a9E', symObjAddr: 0x68D4, symBinAddr: 0x50444, symSize: 0x74 }
  - { offset: 0xFEB5B, size: 0x8, addend: 0x0, symName: __ZN3std6thread6thread6Thread6unpark17h8264442f15828821E, symObjAddr: 0x0, symBinAddr: 0x5060C, symSize: 0x38 }
  - { offset: 0xFEC6B, size: 0x8, addend: 0x0, symName: __ZN4core4sync6atomic11atomic_load17h12fe156198087ea5E, symObjAddr: 0x324, symBinAddr: 0x5088C, symSize: 0xF8 }
  - { offset: 0xFECB1, size: 0x8, addend: 0x0, symName: __ZN4core4sync6atomic11atomic_load17h91c4776f91582358E, symObjAddr: 0x41C, symBinAddr: 0x50984, symSize: 0xF8 }
  - { offset: 0xFECF7, size: 0x8, addend: 0x0, symName: __ZN4core4sync6atomic12atomic_store17h52275a35f68625b0E, symObjAddr: 0x514, symBinAddr: 0x50A7C, symSize: 0xFC }
  - { offset: 0xFEE25, size: 0x8, addend: 0x0, symName: __ZN4core4sync6atomic23atomic_compare_exchange17h43874debb851bff7E, symObjAddr: 0x744, symBinAddr: 0x50CAC, symSize: 0x4B4 }
  - { offset: 0xFEEC0, size: 0x8, addend: 0x0, symName: __ZN4core4sync6atomic5fence17h980fd2dfcc027b05E, symObjAddr: 0xBF8, symBinAddr: 0x51160, symSize: 0xB0 }
  - { offset: 0xFEFC0, size: 0x8, addend: 0x0, symName: '__ZN4core3ptr100drop_in_place$LT$core..cell..Cell$LT$core..option..Option$LT$std..thread..thread..Thread$GT$$GT$$GT$17hd188c6cb92e8876fE', symObjAddr: 0xF8, symBinAddr: 0x50678, symSize: 0x24 }
  - { offset: 0xFEFEF, size: 0x8, addend: 0x0, symName: '__ZN4core3ptr106drop_in_place$LT$core..cell..UnsafeCell$LT$core..option..Option$LT$std..thread..thread..Thread$GT$$GT$$GT$17heaf5ece0c2db6172E', symObjAddr: 0x11C, symBinAddr: 0x5069C, symSize: 0x24 }
  - { offset: 0xFF01E, size: 0x8, addend: 0x0, symName: '__ZN4core3ptr114drop_in_place$LT$core..pin..Pin$LT$alloc..sync..Arc$LT$std..thread..thread..Inner$C$std..alloc..System$GT$$GT$$GT$17hd4f35bce0026d5eeE', symObjAddr: 0x140, symBinAddr: 0x506C0, symSize: 0x24 }
  - { offset: 0xFF04D, size: 0x8, addend: 0x0, symName: '__ZN4core3ptr42drop_in_place$LT$once_cell..imp..Guard$GT$17h465b516ad2ff5b71E', symObjAddr: 0x164, symBinAddr: 0x506E4, symSize: 0x24 }
  - { offset: 0xFF07C, size: 0x8, addend: 0x0, symName: '__ZN4core3ptr43drop_in_place$LT$once_cell..imp..Waiter$GT$17h2e0e14e9f7fab35fE', symObjAddr: 0x188, symBinAddr: 0x50708, symSize: 0x24 }
  - { offset: 0xFF0AB, size: 0x8, addend: 0x0, symName: '__ZN4core3ptr48drop_in_place$LT$std..thread..thread..Thread$GT$17h17ddaf5c2caf4e80E', symObjAddr: 0x1AC, symBinAddr: 0x5072C, symSize: 0x24 }
  - { offset: 0xFF0DA, size: 0x8, addend: 0x0, symName: '__ZN4core3ptr76drop_in_place$LT$core..option..Option$LT$std..thread..thread..Thread$GT$$GT$17hb84319cf25db735bE', symObjAddr: 0x1D0, symBinAddr: 0x50750, symSize: 0x44 }
  - { offset: 0xFF150, size: 0x8, addend: 0x0, symName: '__ZN4core3ptr7mut_ptr31_$LT$impl$u20$$BP$mut$u20$T$GT$7is_null17h1b1ee375e1d3bb3bE', symObjAddr: 0x214, symBinAddr: 0x50794, symSize: 0x18 }
  - { offset: 0xFF1E4, size: 0x8, addend: 0x0, symName: '__ZN4core3ptr92drop_in_place$LT$alloc..sync..Arc$LT$std..thread..thread..Inner$C$std..alloc..System$GT$$GT$17h94abe9faaf261fe8E', symObjAddr: 0x22C, symBinAddr: 0x507AC, symSize: 0x24 }
  - { offset: 0xFF304, size: 0x8, addend: 0x0, symName: '__ZN72_$LT$core..option..Option$LT$T$GT$$u20$as$u20$core..default..Default$GT$7default17h7ce5ab3854cbdb0eE', symObjAddr: 0xF88, symBinAddr: 0x514F0, symSize: 0x8 }
  - { offset: 0xFF696, size: 0x8, addend: 0x0, symName: '__ZN4core3ops8function5impls79_$LT$impl$u20$core..ops..function..FnMut$LT$A$GT$$u20$for$u20$$RF$mut$u20$F$GT$8call_mut17h22453a69d2075207E', symObjAddr: 0xC4, symBinAddr: 0x50644, symSize: 0x34 }
  - { offset: 0xFF87A, size: 0x8, addend: 0x0, symName: '__ZN71_$LT$alloc..sync..Arc$LT$T$C$A$GT$$u20$as$u20$core..ops..drop..Drop$GT$4drop17h2f136280bf9226bfE', symObjAddr: 0xF0C, symBinAddr: 0x51474, symSize: 0x7C }
  - { offset: 0xFFBC8, size: 0x8, addend: 0x0, symName: __ZN3std6thread6thread6Thread6unpark17h8264442f15828821E, symObjAddr: 0x0, symBinAddr: 0x5060C, symSize: 0x38 }
  - { offset: 0xFFD2F, size: 0x8, addend: 0x0, symName: '__ZN63_$LT$once_cell..imp..Guard$u20$as$u20$core..ops..drop..Drop$GT$4drop17hfe70a1f249c13c8dE', symObjAddr: 0xCA8, symBinAddr: 0x51210, symSize: 0x250 }
  - { offset: 0xFFE2F, size: 0x8, addend: 0x0, symName: '__ZN63_$LT$once_cell..imp..Guard$u20$as$u20$core..ops..drop..Drop$GT$4drop28_$u7b$$u7b$closure$u7d$$u7d$17h30e31f4ce3fd16a2E', symObjAddr: 0xEF8, symBinAddr: 0x51460, symSize: 0x14 }
  - { offset: 0xFFE6E, size: 0x8, addend: 0x0, symName: __ZN9once_cell3imp18initialize_or_wait17hc7bf512a191b2388E, symObjAddr: 0xF90, symBinAddr: 0x514F8, symSize: 0x18C }
  - { offset: 0xFFF30, size: 0x8, addend: 0x0, symName: '__ZN9once_cell3imp18initialize_or_wait28_$u7b$$u7b$closure$u7d$$u7d$17ha4d06c505e68b602E', symObjAddr: 0x111C, symBinAddr: 0x51684, symSize: 0x18 }
  - { offset: 0xFFF6E, size: 0x8, addend: 0x0, symName: __ZN9once_cell3imp4wait17he2d2760645c41ac0E, symObjAddr: 0x1134, symBinAddr: 0x5169C, symSize: 0x1EC }
  - { offset: 0x100015, size: 0x8, addend: 0x0, symName: '__ZN9once_cell3imp4wait28_$u7b$$u7b$closure$u7d$$u7d$17h31b48e454ca61960E', symObjAddr: 0x1320, symBinAddr: 0x51888, symSize: 0x14 }
  - { offset: 0x10004B, size: 0x8, addend: 0x0, symName: '__ZN9once_cell3imp4wait28_$u7b$$u7b$closure$u7d$$u7d$17hd70be8e71ec08073E', symObjAddr: 0x1334, symBinAddr: 0x5189C, symSize: 0x20 }
  - { offset: 0x1000A7, size: 0x8, addend: 0x0, symName: __ZN9once_cell3imp6strict4addr17hc19d638811f039dcE, symObjAddr: 0x1354, symBinAddr: 0x518BC, symSize: 0x10 }
  - { offset: 0x1000DC, size: 0x8, addend: 0x0, symName: __ZN9once_cell3imp6strict8map_addr17h28aa9160219f3b9cE, symObjAddr: 0x1364, symBinAddr: 0x518CC, symSize: 0x94 }
  - { offset: 0x10012B, size: 0x8, addend: 0x0, symName: __ZN9once_cell3imp6strict8map_addr17h2c58423870facb95E, symObjAddr: 0x13F8, symBinAddr: 0x51960, symSize: 0x88 }
  - { offset: 0x10017A, size: 0x8, addend: 0x0, symName: __ZN9once_cell3imp6strict8map_addr17h8c18e7051f1f5998E, symObjAddr: 0x1480, symBinAddr: 0x519E8, symSize: 0x88 }
  - { offset: 0x1001C9, size: 0x8, addend: 0x0, symName: __ZN9once_cell3imp6strict8map_addr17hec02701eb300a25bE, symObjAddr: 0x1508, symBinAddr: 0x51A70, symSize: 0x88 }
  - { offset: 0x100218, size: 0x8, addend: 0x0, symName: __ZN9once_cell3imp6strict9with_addr17h472047d8a4d07af0E, symObjAddr: 0x1590, symBinAddr: 0x51AF8, symSize: 0x64 }
  - { offset: 0x100335, size: 0x8, addend: 0x0, symName: '__ZN4core4cell13Cell$LT$T$GT$3new17hba33a36d3e6d1d4dE', symObjAddr: 0x268, symBinAddr: 0x507D0, symSize: 0x14 }
  - { offset: 0x100396, size: 0x8, addend: 0x0, symName: '__ZN4core4cell13Cell$LT$T$GT$4take17h2673d6c20ccf0e0aE', symObjAddr: 0x27C, symBinAddr: 0x507E4, symSize: 0x3C }
  - { offset: 0x1003FD, size: 0x8, addend: 0x0, symName: __ZN4core4sync6atomic10AtomicBool3new17hfdb3d5177cb349a7E, symObjAddr: 0x2B8, symBinAddr: 0x50820, symSize: 0x18 }
  - { offset: 0x10042D, size: 0x8, addend: 0x0, symName: __ZN4core4sync6atomic10AtomicBool4load17hbec2ff92ccddfdcdE, symObjAddr: 0x2D0, symBinAddr: 0x50838, symSize: 0x2C }
  - { offset: 0x10045F, size: 0x8, addend: 0x0, symName: __ZN4core4sync6atomic10AtomicBool5store17ha6f9527993a2143aE, symObjAddr: 0x2FC, symBinAddr: 0x50864, symSize: 0x28 }
  - { offset: 0x1004AD, size: 0x8, addend: 0x0, symName: '__ZN4core4sync6atomic18AtomicPtr$LT$T$GT$16compare_exchange17h68dfbf362d21b77cE', symObjAddr: 0x610, symBinAddr: 0x50B78, symSize: 0x38 }
  - { offset: 0x100515, size: 0x8, addend: 0x0, symName: '__ZN4core4sync6atomic18AtomicPtr$LT$T$GT$4load17h6a5670a879e988feE', symObjAddr: 0x648, symBinAddr: 0x50BB0, symSize: 0x24 }
  - { offset: 0x100586, size: 0x8, addend: 0x0, symName: '__ZN4core4sync6atomic18AtomicPtr$LT$T$GT$4swap17h519b6c41751cc0a8E', symObjAddr: 0x66C, symBinAddr: 0x50BD4, symSize: 0xD8 }
  - { offset: 0x100CC9, size: 0x8, addend: 0x0, symName: '__ZN4core5slice29_$LT$impl$u20$$u5b$T$u5d$$GT$8is_empty17h1441d51a02456155E', symObjAddr: 0x7C8, symBinAddr: 0x51BB0, symSize: 0x1C }
  - { offset: 0x100D5D, size: 0x8, addend: 0x0, symName: __ZN4core3ffi5c_str4CStr29from_bytes_with_nul_unchecked17h7e704282ac06c996E, symObjAddr: 0x64, symBinAddr: 0x51B5C, symSize: 0x18 }
  - { offset: 0x100EF0, size: 0x8, addend: 0x0, symName: __ZN4core3fmt9Arguments3new17h03330aacb62aaa57E, symObjAddr: 0x5AC, symBinAddr: 0x51B74, symSize: 0x1C }
  - { offset: 0x100F22, size: 0x8, addend: 0x0, symName: __ZN4core3fmt9Arguments8from_str17ha82e966d519c2d86E, symObjAddr: 0x5C8, symBinAddr: 0x51B90, symSize: 0x20 }
  - { offset: 0x100F4A, size: 0x8, addend: 0x0, symName: __ZN8pyo3_ffi32_cstr_from_utf8_with_nul_checked17he7d1e2389061fb60E, symObjAddr: 0xCFC, symBinAddr: 0x51BCC, symSize: 0x1B8 }
  - { offset: 0x1011FA, size: 0x8, addend: 0x0, symName: '__ZN132_$LT$alloc..vec..Vec$LT$T$C$A$GT$$u20$as$u20$alloc..vec..spec_extend..SpecExtend$LT$$RF$T$C$core..slice..iter..Iter$LT$T$GT$$GT$$GT$11spec_extend17h90d626212c775969E', symObjAddr: 0x5C4, symBinAddr: 0x51D84, symSize: 0xB0 }
  - { offset: 0x101AE5, size: 0x8, addend: 0x0, symName: '__ZN4core3ptr9const_ptr33_$LT$impl$u20$$BP$const$u20$T$GT$13is_aligned_to17h6964e658c3711a0bE', symObjAddr: 0xB88, symBinAddr: 0x5201C, symSize: 0x88 }
  - { offset: 0x101B6C, size: 0x8, addend: 0x0, symName: '__ZN4core3ptr9const_ptr33_$LT$impl$u20$$BP$const$u20$T$GT$20offset_from_unsigned18precondition_check17h3d3eed80079fdc4cE', symObjAddr: 0xC10, symBinAddr: 0x520A4, symSize: 0x60 }
  - { offset: 0x101CA5, size: 0x8, addend: 0x0, symName: __ZN4core3ptr19copy_nonoverlapping18precondition_check17hc56f5706375a896fE, symObjAddr: 0x97C, symBinAddr: 0x51E34, symSize: 0x168 }
  - { offset: 0x101E5A, size: 0x8, addend: 0x0, symName: '__ZN4core3ptr46drop_in_place$LT$alloc..vec..Vec$LT$u8$GT$$GT$17hc860267f3c12dfd7E', symObjAddr: 0xAE4, symBinAddr: 0x51F9C, symSize: 0x5C }
  - { offset: 0x101E89, size: 0x8, addend: 0x0, symName: '__ZN4core3ptr53drop_in_place$LT$alloc..raw_vec..RawVec$LT$u8$GT$$GT$17h04b4d221438398dfE', symObjAddr: 0xB64, symBinAddr: 0x51FF8, symSize: 0x24 }
  - { offset: 0x102210, size: 0x8, addend: 0x0, symName: '__ZN91_$LT$core..slice..iter..Iter$LT$T$GT$$u20$as$u20$core..iter..traits..iterator..Iterator$GT$4next17h988d933cf90d8764E', symObjAddr: 0x2620, symBinAddr: 0x525B0, symSize: 0x84 }
  - { offset: 0x102302, size: 0x8, addend: 0x0, symName: __ZN4core5slice3raw14from_raw_parts18precondition_check17h4c01f9114cc0e16dE, symObjAddr: 0x1568, symBinAddr: 0x5215C, symSize: 0x10C }
  - { offset: 0x102616, size: 0x8, addend: 0x0, symName: __ZN4core9ub_checks23maybe_is_nonoverlapping7runtime17hf77364e7ecc1aa67E, symObjAddr: 0x1708, symBinAddr: 0x52268, symSize: 0xD8 }
  - { offset: 0x1027CD, size: 0x8, addend: 0x0, symName: __ZN4core4hint16assert_unchecked18precondition_check17heecca18d2bfbac6cE, symObjAddr: 0xC70, symBinAddr: 0x52104, symSize: 0x58 }
  - { offset: 0x102A28, size: 0x8, addend: 0x0, symName: '__ZN5alloc3vec12Vec$LT$T$GT$13with_capacity17h8a3cc722530cea62E', symObjAddr: 0x1808, symBinAddr: 0x52340, symSize: 0x40 }
  - { offset: 0x102B79, size: 0x8, addend: 0x0, symName: '__ZN5alloc3vec16Vec$LT$T$C$A$GT$15append_elements17hb8e64c835220ea3cE', symObjAddr: 0x1848, symBinAddr: 0x52380, symSize: 0xD4 }
  - { offset: 0x102DAE, size: 0x8, addend: 0x0, symName: '__ZN5alloc3vec16Vec$LT$T$C$A$GT$17extend_from_slice17h45e0294be7104278E', symObjAddr: 0x191C, symBinAddr: 0x52454, symSize: 0x6C }
  - { offset: 0x102F9F, size: 0x8, addend: 0x0, symName: '__ZN5alloc7raw_vec20RawVecInner$LT$A$GT$16with_capacity_in17h67f15b57230cd228E', symObjAddr: 0x1B84, symBinAddr: 0x524C0, symSize: 0xF0 }
  - { offset: 0x103170, size: 0x8, addend: 0x0, symName: '__ZN101_$LT$core..slice..iter..ChunksExactMut$LT$T$GT$$u20$as$u20$core..iter..traits..iterator..Iterator$GT$24__iterator_get_unchecked17h9bb9c29e306e66e0E', symObjAddr: 0x0, symBinAddr: 0x52634, symSize: 0xA0 }
  - { offset: 0x10381F, size: 0x8, addend: 0x0, symName: __ZN4core3ptr9alignment9Alignment13new_unchecked18precondition_check17h238546fc9900284cE, symObjAddr: 0x3F14, symBinAddr: 0x55120, symSize: 0x70 }
  - { offset: 0x103BDF, size: 0x8, addend: 0x0, symName: '__ZN4core3ptr8non_null16NonNull$LT$T$GT$13new_unchecked18precondition_check17h06cd0ae769b5561aE', symObjAddr: 0x3E74, symBinAddr: 0x550C8, symSize: 0x58 }
  - { offset: 0x103F37, size: 0x8, addend: 0x0, symName: '__ZN4core3ptr9const_ptr33_$LT$impl$u20$$BP$const$u20$T$GT$20offset_from_unsigned18precondition_check17hf2ec6609fb45cddbE', symObjAddr: 0x3F84, symBinAddr: 0x55190, symSize: 0x60 }
